
w.elf:     file format elf32-i386


Disassembly of section .text:

01000000 <start>:
 1000000:	bf fc 40 00 01       	mov    $0x10040fc,%edi
 1000005:	b9 4c ce 2d 01       	mov    $0x12dce4c,%ecx
 100000a:	81 e9 fc 40 00 01    	sub    $0x10040fc,%ecx
 1000010:	b8 00 00 00 00       	mov    $0x0,%eax
 1000015:	fc                   	cld    
 1000016:	f3 aa                	rep stos %al,%es:(%edi)
 1000018:	e8 f3 2d 00 00       	call   1002e10 <libc_init>
 100001d:	6a 00                	push   $0x0
 100001f:	6a 00                	push   $0x0
 1000021:	e8 61 19 00 00       	call   1001987 <main>
 1000026:	83 c4 08             	add    $0x8,%esp
 1000029:	89 c3                	mov    %eax,%ebx
 100002b:	b8 09 00 00 00       	mov    $0x9,%eax
 1000030:	cd 80                	int    $0x80

01000032 <errno>:
 1000032:	00 00                	add    %al,(%eax)
 1000034:	00 00                	add    %al,(%eax)
 1000036:	90                   	nop
 1000037:	90                   	nop

01000038 <draw_init>:
 1000038:	83 ec 1c             	sub    $0x1c,%esp
 100003b:	c7 04 24 00 41 00 01 	movl   $0x1004100,(%esp)
 1000042:	e8 c1 2a 00 00       	call   1002b08 <get_graph_info>
 1000047:	a1 08 41 00 01       	mov    0x1004108,%eax
 100004c:	83 f8 10             	cmp    $0x10,%eax
 100004f:	74 13                	je     1000064 <draw_init+0x2c>
 1000051:	c7 04 24 a8 3e 00 01 	movl   $0x1003ea8,(%esp)
 1000058:	e8 c3 2d 00 00       	call   1002e20 <printf>
 100005d:	b8 01 00 00 00       	mov    $0x1,%eax
 1000062:	eb 25                	jmp    1000089 <draw_init+0x51>
 1000064:	c7 44 24 04 20 41 00 	movl   $0x1004120,0x4(%esp)
 100006b:	01 
 100006c:	c7 04 24 b3 3e 00 01 	movl   $0x1003eb3,(%esp)
 1000073:	e8 53 2b 00 00       	call   1002bcb <get_module>
 1000078:	c7 04 24 04 00 00 00 	movl   $0x4,(%esp)
 100007f:	e8 c5 2a 00 00       	call   1002b49 <tty_switch>
 1000084:	b8 00 00 00 00       	mov    $0x0,%eax
 1000089:	83 c4 1c             	add    $0x1c,%esp
 100008c:	c3                   	ret    

0100008d <draw_set_canvas>:
 100008d:	83 7c 24 08 00       	cmpl   $0x0,0x8(%esp)
 1000092:	74 0c                	je     10000a0 <draw_set_canvas+0x13>
 1000094:	8b 44 24 04          	mov    0x4(%esp),%eax
 1000098:	8b 54 24 08          	mov    0x8(%esp),%edx
 100009c:	89 10                	mov    %edx,(%eax)
 100009e:	eb 0d                	jmp    10000ad <draw_set_canvas+0x20>
 10000a0:	a1 0c 41 00 01       	mov    0x100410c,%eax
 10000a5:	89 c2                	mov    %eax,%edx
 10000a7:	8b 44 24 04          	mov    0x4(%esp),%eax
 10000ab:	89 10                	mov    %edx,(%eax)
 10000ad:	8b 15 00 41 00 01    	mov    0x1004100,%edx
 10000b3:	8b 44 24 04          	mov    0x4(%esp),%eax
 10000b7:	89 50 04             	mov    %edx,0x4(%eax)
 10000ba:	8b 15 04 41 00 01    	mov    0x1004104,%edx
 10000c0:	8b 44 24 04          	mov    0x4(%esp),%eax
 10000c4:	89 50 08             	mov    %edx,0x8(%eax)
 10000c7:	8b 15 08 41 00 01    	mov    0x1004108,%edx
 10000cd:	8b 44 24 04          	mov    0x4(%esp),%eax
 10000d1:	89 50 0c             	mov    %edx,0xc(%eax)
 10000d4:	b8 00 00 00 00       	mov    $0x0,%eax
 10000d9:	c3                   	ret    

010000da <draw_set_point>:
 10000da:	83 ec 04             	sub    $0x4,%esp
 10000dd:	8b 44 24 14          	mov    0x14(%esp),%eax
 10000e1:	66 89 04 24          	mov    %ax,(%esp)
 10000e5:	8b 44 24 08          	mov    0x8(%esp),%eax
 10000e9:	8b 40 04             	mov    0x4(%eax),%eax
 10000ec:	3b 44 24 0c          	cmp    0xc(%esp),%eax
 10000f0:	76 30                	jbe    1000122 <draw_set_point+0x48>
 10000f2:	8b 44 24 08          	mov    0x8(%esp),%eax
 10000f6:	8b 40 08             	mov    0x8(%eax),%eax
 10000f9:	3b 44 24 10          	cmp    0x10(%esp),%eax
 10000fd:	76 26                	jbe    1000125 <draw_set_point+0x4b>
 10000ff:	8b 44 24 08          	mov    0x8(%esp),%eax
 1000103:	8b 10                	mov    (%eax),%edx
 1000105:	8b 44 24 08          	mov    0x8(%esp),%eax
 1000109:	8b 40 04             	mov    0x4(%eax),%eax
 100010c:	0f af 44 24 10       	imul   0x10(%esp),%eax
 1000111:	03 44 24 0c          	add    0xc(%esp),%eax
 1000115:	01 c0                	add    %eax,%eax
 1000117:	01 c2                	add    %eax,%edx
 1000119:	0f b7 04 24          	movzwl (%esp),%eax
 100011d:	66 89 02             	mov    %ax,(%edx)
 1000120:	eb 04                	jmp    1000126 <draw_set_point+0x4c>
 1000122:	90                   	nop
 1000123:	eb 01                	jmp    1000126 <draw_set_point+0x4c>
 1000125:	90                   	nop
 1000126:	83 c4 04             	add    $0x4,%esp
 1000129:	c3                   	ret    

0100012a <draw_get_point>:
 100012a:	8b 44 24 04          	mov    0x4(%esp),%eax
 100012e:	8b 40 04             	mov    0x4(%eax),%eax
 1000131:	3b 44 24 08          	cmp    0x8(%esp),%eax
 1000135:	77 07                	ja     100013e <draw_get_point+0x14>
 1000137:	b8 00 00 00 00       	mov    $0x0,%eax
 100013c:	eb 32                	jmp    1000170 <draw_get_point+0x46>
 100013e:	8b 44 24 04          	mov    0x4(%esp),%eax
 1000142:	8b 40 08             	mov    0x8(%eax),%eax
 1000145:	3b 44 24 0c          	cmp    0xc(%esp),%eax
 1000149:	77 07                	ja     1000152 <draw_get_point+0x28>
 100014b:	b8 00 00 00 00       	mov    $0x0,%eax
 1000150:	eb 1e                	jmp    1000170 <draw_get_point+0x46>
 1000152:	8b 44 24 04          	mov    0x4(%esp),%eax
 1000156:	8b 10                	mov    (%eax),%edx
 1000158:	8b 44 24 04          	mov    0x4(%esp),%eax
 100015c:	8b 40 04             	mov    0x4(%eax),%eax
 100015f:	0f af 44 24 0c       	imul   0xc(%esp),%eax
 1000164:	03 44 24 08          	add    0x8(%esp),%eax
 1000168:	01 c0                	add    %eax,%eax
 100016a:	8d 04 02             	lea    (%edx,%eax,1),%eax
 100016d:	0f b7 00             	movzwl (%eax),%eax
 1000170:	c3                   	ret    

01000171 <draw_fill_rect>:
 1000171:	57                   	push   %edi
 1000172:	53                   	push   %ebx
 1000173:	83 ec 14             	sub    $0x14,%esp
 1000176:	8b 44 24 34          	mov    0x34(%esp),%eax
 100017a:	66 89 04 24          	mov    %ax,(%esp)
 100017e:	8b 44 24 20          	mov    0x20(%esp),%eax
 1000182:	8b 40 04             	mov    0x4(%eax),%eax
 1000185:	3b 44 24 24          	cmp    0x24(%esp),%eax
 1000189:	0f 86 b8 00 00 00    	jbe    1000247 <draw_fill_rect+0xd6>
 100018f:	8b 44 24 20          	mov    0x20(%esp),%eax
 1000193:	8b 40 08             	mov    0x8(%eax),%eax
 1000196:	3b 44 24 28          	cmp    0x28(%esp),%eax
 100019a:	0f 86 aa 00 00 00    	jbe    100024a <draw_fill_rect+0xd9>
 10001a0:	8b 44 24 20          	mov    0x20(%esp),%eax
 10001a4:	8b 40 04             	mov    0x4(%eax),%eax
 10001a7:	3b 44 24 2c          	cmp    0x2c(%esp),%eax
 10001ab:	0f 86 9c 00 00 00    	jbe    100024d <draw_fill_rect+0xdc>
 10001b1:	8b 44 24 20          	mov    0x20(%esp),%eax
 10001b5:	8b 40 08             	mov    0x8(%eax),%eax
 10001b8:	3b 44 24 30          	cmp    0x30(%esp),%eax
 10001bc:	0f 86 8e 00 00 00    	jbe    1000250 <draw_fill_rect+0xdf>
 10001c2:	8b 44 24 24          	mov    0x24(%esp),%eax
 10001c6:	3b 44 24 2c          	cmp    0x2c(%esp),%eax
 10001ca:	0f 87 83 00 00 00    	ja     1000253 <draw_fill_rect+0xe2>
 10001d0:	8b 44 24 28          	mov    0x28(%esp),%eax
 10001d4:	3b 44 24 30          	cmp    0x30(%esp),%eax
 10001d8:	77 7c                	ja     1000256 <draw_fill_rect+0xe5>
 10001da:	8b 44 24 20          	mov    0x20(%esp),%eax
 10001de:	8b 10                	mov    (%eax),%edx
 10001e0:	8b 44 24 20          	mov    0x20(%esp),%eax
 10001e4:	8b 40 04             	mov    0x4(%eax),%eax
 10001e7:	0f af 44 24 28       	imul   0x28(%esp),%eax
 10001ec:	03 44 24 24          	add    0x24(%esp),%eax
 10001f0:	01 c0                	add    %eax,%eax
 10001f2:	8d 04 02             	lea    (%edx,%eax,1),%eax
 10001f5:	89 44 24 0c          	mov    %eax,0xc(%esp)
 10001f9:	8b 44 24 24          	mov    0x24(%esp),%eax
 10001fd:	8b 54 24 2c          	mov    0x2c(%esp),%edx
 1000201:	89 d1                	mov    %edx,%ecx
 1000203:	29 c1                	sub    %eax,%ecx
 1000205:	89 c8                	mov    %ecx,%eax
 1000207:	89 44 24 08          	mov    %eax,0x8(%esp)
 100020b:	fc                   	cld    
 100020c:	8b 44 24 28          	mov    0x28(%esp),%eax
 1000210:	89 44 24 10          	mov    %eax,0x10(%esp)
 1000214:	eb 25                	jmp    100023b <draw_fill_rect+0xca>
 1000216:	8b 54 24 08          	mov    0x8(%esp),%edx
 100021a:	0f b7 04 24          	movzwl (%esp),%eax
 100021e:	8b 5c 24 0c          	mov    0xc(%esp),%ebx
 1000222:	89 d1                	mov    %edx,%ecx
 1000224:	89 df                	mov    %ebx,%edi
 1000226:	f3 66 ab             	rep stos %ax,%es:(%edi)
 1000229:	8b 44 24 20          	mov    0x20(%esp),%eax
 100022d:	8b 40 04             	mov    0x4(%eax),%eax
 1000230:	01 c0                	add    %eax,%eax
 1000232:	01 44 24 0c          	add    %eax,0xc(%esp)
 1000236:	83 44 24 10 01       	addl   $0x1,0x10(%esp)
 100023b:	8b 44 24 10          	mov    0x10(%esp),%eax
 100023f:	3b 44 24 30          	cmp    0x30(%esp),%eax
 1000243:	76 d1                	jbe    1000216 <draw_fill_rect+0xa5>
 1000245:	eb 10                	jmp    1000257 <draw_fill_rect+0xe6>
 1000247:	90                   	nop
 1000248:	eb 0d                	jmp    1000257 <draw_fill_rect+0xe6>
 100024a:	90                   	nop
 100024b:	eb 0a                	jmp    1000257 <draw_fill_rect+0xe6>
 100024d:	90                   	nop
 100024e:	eb 07                	jmp    1000257 <draw_fill_rect+0xe6>
 1000250:	90                   	nop
 1000251:	eb 04                	jmp    1000257 <draw_fill_rect+0xe6>
 1000253:	90                   	nop
 1000254:	eb 01                	jmp    1000257 <draw_fill_rect+0xe6>
 1000256:	90                   	nop
 1000257:	83 c4 14             	add    $0x14,%esp
 100025a:	5b                   	pop    %ebx
 100025b:	5f                   	pop    %edi
 100025c:	c3                   	ret    

0100025d <draw_clear_screen>:
 100025d:	57                   	push   %edi
 100025e:	53                   	push   %ebx
 100025f:	83 ec 04             	sub    $0x4,%esp
 1000262:	8b 44 24 14          	mov    0x14(%esp),%eax
 1000266:	66 89 04 24          	mov    %ax,(%esp)
 100026a:	8b 44 24 10          	mov    0x10(%esp),%eax
 100026e:	8b 50 04             	mov    0x4(%eax),%edx
 1000271:	8b 44 24 10          	mov    0x10(%esp),%eax
 1000275:	8b 40 08             	mov    0x8(%eax),%eax
 1000278:	0f af c2             	imul   %edx,%eax
 100027b:	89 c1                	mov    %eax,%ecx
 100027d:	d1 f9                	sar    %ecx
 100027f:	0f b7 04 24          	movzwl (%esp),%eax
 1000283:	89 c2                	mov    %eax,%edx
 1000285:	c1 e2 10             	shl    $0x10,%edx
 1000288:	0f b7 04 24          	movzwl (%esp),%eax
 100028c:	89 d3                	mov    %edx,%ebx
 100028e:	09 c3                	or     %eax,%ebx
 1000290:	8b 44 24 10          	mov    0x10(%esp),%eax
 1000294:	8b 10                	mov    (%eax),%edx
 1000296:	89 d8                	mov    %ebx,%eax
 1000298:	89 d7                	mov    %edx,%edi
 100029a:	fc                   	cld    
 100029b:	f3 ab                	rep stos %eax,%es:(%edi)
 100029d:	83 c4 04             	add    $0x4,%esp
 10002a0:	5b                   	pop    %ebx
 10002a1:	5f                   	pop    %edi
 10002a2:	c3                   	ret    

010002a3 <draw_copy>:
 10002a3:	57                   	push   %edi
 10002a4:	56                   	push   %esi
 10002a5:	53                   	push   %ebx
 10002a6:	83 ec 10             	sub    $0x10,%esp
 10002a9:	8b 44 24 20          	mov    0x20(%esp),%eax
 10002ad:	8b 40 04             	mov    0x4(%eax),%eax
 10002b0:	3b 44 24 28          	cmp    0x28(%esp),%eax
 10002b4:	0f 86 48 01 00 00    	jbe    1000402 <draw_copy+0x15f>
 10002ba:	8b 44 24 20          	mov    0x20(%esp),%eax
 10002be:	8b 40 08             	mov    0x8(%eax),%eax
 10002c1:	3b 44 24 2c          	cmp    0x2c(%esp),%eax
 10002c5:	0f 86 3a 01 00 00    	jbe    1000405 <draw_copy+0x162>
 10002cb:	8b 44 24 24          	mov    0x24(%esp),%eax
 10002cf:	8b 40 04             	mov    0x4(%eax),%eax
 10002d2:	3b 44 24 28          	cmp    0x28(%esp),%eax
 10002d6:	0f 86 2c 01 00 00    	jbe    1000408 <draw_copy+0x165>
 10002dc:	8b 44 24 24          	mov    0x24(%esp),%eax
 10002e0:	8b 40 08             	mov    0x8(%eax),%eax
 10002e3:	3b 44 24 2c          	cmp    0x2c(%esp),%eax
 10002e7:	0f 86 1e 01 00 00    	jbe    100040b <draw_copy+0x168>
 10002ed:	8b 44 24 30          	mov    0x30(%esp),%eax
 10002f1:	8b 54 24 28          	mov    0x28(%esp),%edx
 10002f5:	01 c2                	add    %eax,%edx
 10002f7:	8b 44 24 20          	mov    0x20(%esp),%eax
 10002fb:	8b 40 04             	mov    0x4(%eax),%eax
 10002fe:	39 c2                	cmp    %eax,%edx
 1000300:	72 0f                	jb     1000311 <draw_copy+0x6e>
 1000302:	8b 44 24 20          	mov    0x20(%esp),%eax
 1000306:	8b 40 04             	mov    0x4(%eax),%eax
 1000309:	2b 44 24 28          	sub    0x28(%esp),%eax
 100030d:	89 44 24 30          	mov    %eax,0x30(%esp)
 1000311:	8b 44 24 30          	mov    0x30(%esp),%eax
 1000315:	8b 54 24 28          	mov    0x28(%esp),%edx
 1000319:	01 c2                	add    %eax,%edx
 100031b:	8b 44 24 24          	mov    0x24(%esp),%eax
 100031f:	8b 40 04             	mov    0x4(%eax),%eax
 1000322:	39 c2                	cmp    %eax,%edx
 1000324:	72 0f                	jb     1000335 <draw_copy+0x92>
 1000326:	8b 44 24 24          	mov    0x24(%esp),%eax
 100032a:	8b 40 04             	mov    0x4(%eax),%eax
 100032d:	2b 44 24 28          	sub    0x28(%esp),%eax
 1000331:	89 44 24 30          	mov    %eax,0x30(%esp)
 1000335:	8b 44 24 34          	mov    0x34(%esp),%eax
 1000339:	8b 54 24 2c          	mov    0x2c(%esp),%edx
 100033d:	01 c2                	add    %eax,%edx
 100033f:	8b 44 24 20          	mov    0x20(%esp),%eax
 1000343:	8b 40 08             	mov    0x8(%eax),%eax
 1000346:	39 c2                	cmp    %eax,%edx
 1000348:	72 0f                	jb     1000359 <draw_copy+0xb6>
 100034a:	8b 44 24 20          	mov    0x20(%esp),%eax
 100034e:	8b 40 08             	mov    0x8(%eax),%eax
 1000351:	2b 44 24 2c          	sub    0x2c(%esp),%eax
 1000355:	89 44 24 34          	mov    %eax,0x34(%esp)
 1000359:	8b 44 24 34          	mov    0x34(%esp),%eax
 100035d:	8b 54 24 2c          	mov    0x2c(%esp),%edx
 1000361:	01 c2                	add    %eax,%edx
 1000363:	8b 44 24 24          	mov    0x24(%esp),%eax
 1000367:	8b 40 08             	mov    0x8(%eax),%eax
 100036a:	39 c2                	cmp    %eax,%edx
 100036c:	72 0f                	jb     100037d <draw_copy+0xda>
 100036e:	8b 44 24 24          	mov    0x24(%esp),%eax
 1000372:	8b 40 08             	mov    0x8(%eax),%eax
 1000375:	2b 44 24 2c          	sub    0x2c(%esp),%eax
 1000379:	89 44 24 34          	mov    %eax,0x34(%esp)
 100037d:	8b 44 24 20          	mov    0x20(%esp),%eax
 1000381:	8b 40 04             	mov    0x4(%eax),%eax
 1000384:	0f af 44 24 2c       	imul   0x2c(%esp),%eax
 1000389:	03 44 24 28          	add    0x28(%esp),%eax
 100038d:	89 44 24 08          	mov    %eax,0x8(%esp)
 1000391:	8b 44 24 24          	mov    0x24(%esp),%eax
 1000395:	8b 40 04             	mov    0x4(%eax),%eax
 1000398:	0f af 44 24 2c       	imul   0x2c(%esp),%eax
 100039d:	03 44 24 28          	add    0x28(%esp),%eax
 10003a1:	89 44 24 04          	mov    %eax,0x4(%esp)
 10003a5:	fc                   	cld    
 10003a6:	c7 44 24 0c 00 00 00 	movl   $0x0,0xc(%esp)
 10003ad:	00 
 10003ae:	eb 46                	jmp    10003f6 <draw_copy+0x153>
 10003b0:	8b 44 24 20          	mov    0x20(%esp),%eax
 10003b4:	8b 00                	mov    (%eax),%eax
 10003b6:	8b 54 24 08          	mov    0x8(%esp),%edx
 10003ba:	01 d2                	add    %edx,%edx
 10003bc:	8d 14 10             	lea    (%eax,%edx,1),%edx
 10003bf:	8b 44 24 24          	mov    0x24(%esp),%eax
 10003c3:	8b 00                	mov    (%eax),%eax
 10003c5:	8b 4c 24 04          	mov    0x4(%esp),%ecx
 10003c9:	01 c9                	add    %ecx,%ecx
 10003cb:	8d 1c 08             	lea    (%eax,%ecx,1),%ebx
 10003ce:	8b 44 24 30          	mov    0x30(%esp),%eax
 10003d2:	89 c1                	mov    %eax,%ecx
 10003d4:	89 d6                	mov    %edx,%esi
 10003d6:	89 df                	mov    %ebx,%edi
 10003d8:	f3 66 a5             	rep movsw %ds:(%esi),%es:(%edi)
 10003db:	8b 44 24 20          	mov    0x20(%esp),%eax
 10003df:	8b 40 04             	mov    0x4(%eax),%eax
 10003e2:	01 44 24 08          	add    %eax,0x8(%esp)
 10003e6:	8b 44 24 24          	mov    0x24(%esp),%eax
 10003ea:	8b 40 04             	mov    0x4(%eax),%eax
 10003ed:	01 44 24 04          	add    %eax,0x4(%esp)
 10003f1:	83 44 24 0c 01       	addl   $0x1,0xc(%esp)
 10003f6:	8b 44 24 0c          	mov    0xc(%esp),%eax
 10003fa:	3b 44 24 34          	cmp    0x34(%esp),%eax
 10003fe:	72 b0                	jb     10003b0 <draw_copy+0x10d>
 1000400:	eb 0a                	jmp    100040c <draw_copy+0x169>
 1000402:	90                   	nop
 1000403:	eb 07                	jmp    100040c <draw_copy+0x169>
 1000405:	90                   	nop
 1000406:	eb 04                	jmp    100040c <draw_copy+0x169>
 1000408:	90                   	nop
 1000409:	eb 01                	jmp    100040c <draw_copy+0x169>
 100040b:	90                   	nop
 100040c:	83 c4 10             	add    $0x10,%esp
 100040f:	5b                   	pop    %ebx
 1000410:	5e                   	pop    %esi
 1000411:	5f                   	pop    %edi
 1000412:	c3                   	ret    

01000413 <draw_window>:
 1000413:	57                   	push   %edi
 1000414:	56                   	push   %esi
 1000415:	53                   	push   %ebx
 1000416:	83 ec 10             	sub    $0x10,%esp
 1000419:	8b 44 24 24          	mov    0x24(%esp),%eax
 100041d:	8b 40 04             	mov    0x4(%eax),%eax
 1000420:	3b 44 24 28          	cmp    0x28(%esp),%eax
 1000424:	0f 86 26 01 00 00    	jbe    1000550 <draw_window+0x13d>
 100042a:	8b 44 24 24          	mov    0x24(%esp),%eax
 100042e:	8b 40 08             	mov    0x8(%eax),%eax
 1000431:	3b 44 24 2c          	cmp    0x2c(%esp),%eax
 1000435:	0f 86 18 01 00 00    	jbe    1000553 <draw_window+0x140>
 100043b:	8b 44 24 20          	mov    0x20(%esp),%eax
 100043f:	8b 40 04             	mov    0x4(%eax),%eax
 1000442:	3b 44 24 30          	cmp    0x30(%esp),%eax
 1000446:	77 0b                	ja     1000453 <draw_window+0x40>
 1000448:	8b 44 24 20          	mov    0x20(%esp),%eax
 100044c:	8b 40 04             	mov    0x4(%eax),%eax
 100044f:	89 44 24 30          	mov    %eax,0x30(%esp)
 1000453:	8b 44 24 20          	mov    0x20(%esp),%eax
 1000457:	8b 40 08             	mov    0x8(%eax),%eax
 100045a:	3b 44 24 34          	cmp    0x34(%esp),%eax
 100045e:	77 0b                	ja     100046b <draw_window+0x58>
 1000460:	8b 44 24 20          	mov    0x20(%esp),%eax
 1000464:	8b 40 08             	mov    0x8(%eax),%eax
 1000467:	89 44 24 34          	mov    %eax,0x34(%esp)
 100046b:	8b 44 24 30          	mov    0x30(%esp),%eax
 100046f:	8b 54 24 28          	mov    0x28(%esp),%edx
 1000473:	01 c2                	add    %eax,%edx
 1000475:	8b 44 24 24          	mov    0x24(%esp),%eax
 1000479:	8b 40 04             	mov    0x4(%eax),%eax
 100047c:	39 c2                	cmp    %eax,%edx
 100047e:	72 0f                	jb     100048f <draw_window+0x7c>
 1000480:	8b 44 24 24          	mov    0x24(%esp),%eax
 1000484:	8b 40 04             	mov    0x4(%eax),%eax
 1000487:	2b 44 24 28          	sub    0x28(%esp),%eax
 100048b:	89 44 24 30          	mov    %eax,0x30(%esp)
 100048f:	8b 44 24 34          	mov    0x34(%esp),%eax
 1000493:	8b 54 24 2c          	mov    0x2c(%esp),%edx
 1000497:	01 c2                	add    %eax,%edx
 1000499:	8b 44 24 20          	mov    0x20(%esp),%eax
 100049d:	8b 40 08             	mov    0x8(%eax),%eax
 10004a0:	39 c2                	cmp    %eax,%edx
 10004a2:	72 0f                	jb     10004b3 <draw_window+0xa0>
 10004a4:	8b 44 24 20          	mov    0x20(%esp),%eax
 10004a8:	8b 40 08             	mov    0x8(%eax),%eax
 10004ab:	2b 44 24 2c          	sub    0x2c(%esp),%eax
 10004af:	89 44 24 34          	mov    %eax,0x34(%esp)
 10004b3:	8b 44 24 34          	mov    0x34(%esp),%eax
 10004b7:	8b 54 24 2c          	mov    0x2c(%esp),%edx
 10004bb:	01 c2                	add    %eax,%edx
 10004bd:	8b 44 24 24          	mov    0x24(%esp),%eax
 10004c1:	8b 40 08             	mov    0x8(%eax),%eax
 10004c4:	39 c2                	cmp    %eax,%edx
 10004c6:	72 0f                	jb     10004d7 <draw_window+0xc4>
 10004c8:	8b 44 24 24          	mov    0x24(%esp),%eax
 10004cc:	8b 40 08             	mov    0x8(%eax),%eax
 10004cf:	2b 44 24 2c          	sub    0x2c(%esp),%eax
 10004d3:	89 44 24 34          	mov    %eax,0x34(%esp)
 10004d7:	c7 44 24 08 00 00 00 	movl   $0x0,0x8(%esp)
 10004de:	00 
 10004df:	8b 44 24 24          	mov    0x24(%esp),%eax
 10004e3:	8b 40 04             	mov    0x4(%eax),%eax
 10004e6:	0f af 44 24 2c       	imul   0x2c(%esp),%eax
 10004eb:	03 44 24 28          	add    0x28(%esp),%eax
 10004ef:	89 44 24 04          	mov    %eax,0x4(%esp)
 10004f3:	fc                   	cld    
 10004f4:	c7 44 24 0c 00 00 00 	movl   $0x0,0xc(%esp)
 10004fb:	00 
 10004fc:	eb 46                	jmp    1000544 <draw_window+0x131>
 10004fe:	8b 44 24 20          	mov    0x20(%esp),%eax
 1000502:	8b 00                	mov    (%eax),%eax
 1000504:	8b 54 24 08          	mov    0x8(%esp),%edx
 1000508:	01 d2                	add    %edx,%edx
 100050a:	8d 14 10             	lea    (%eax,%edx,1),%edx
 100050d:	8b 44 24 24          	mov    0x24(%esp),%eax
 1000511:	8b 00                	mov    (%eax),%eax
 1000513:	8b 4c 24 04          	mov    0x4(%esp),%ecx
 1000517:	01 c9                	add    %ecx,%ecx
 1000519:	8d 1c 08             	lea    (%eax,%ecx,1),%ebx
 100051c:	8b 44 24 30          	mov    0x30(%esp),%eax
 1000520:	89 c1                	mov    %eax,%ecx
 1000522:	89 d6                	mov    %edx,%esi
 1000524:	89 df                	mov    %ebx,%edi
 1000526:	f3 66 a5             	rep movsw %ds:(%esi),%es:(%edi)
 1000529:	8b 44 24 20          	mov    0x20(%esp),%eax
 100052d:	8b 40 04             	mov    0x4(%eax),%eax
 1000530:	01 44 24 08          	add    %eax,0x8(%esp)
 1000534:	8b 44 24 24          	mov    0x24(%esp),%eax
 1000538:	8b 40 04             	mov    0x4(%eax),%eax
 100053b:	01 44 24 04          	add    %eax,0x4(%esp)
 100053f:	83 44 24 0c 01       	addl   $0x1,0xc(%esp)
 1000544:	8b 44 24 0c          	mov    0xc(%esp),%eax
 1000548:	3b 44 24 34          	cmp    0x34(%esp),%eax
 100054c:	72 b0                	jb     10004fe <draw_window+0xeb>
 100054e:	eb 04                	jmp    1000554 <draw_window+0x141>
 1000550:	90                   	nop
 1000551:	eb 01                	jmp    1000554 <draw_window+0x141>
 1000553:	90                   	nop
 1000554:	83 c4 10             	add    $0x10,%esp
 1000557:	5b                   	pop    %ebx
 1000558:	5e                   	pop    %esi
 1000559:	5f                   	pop    %edi
 100055a:	c3                   	ret    

0100055b <draw_cursor_mask>:
 100055b:	83 ec 24             	sub    $0x24,%esp
 100055e:	8b 44 24 38          	mov    0x38(%esp),%eax
 1000562:	66 89 04 24          	mov    %ax,(%esp)
 1000566:	8b 44 24 2c          	mov    0x2c(%esp),%eax
 100056a:	8b 40 04             	mov    0x4(%eax),%eax
 100056d:	3b 44 24 30          	cmp    0x30(%esp),%eax
 1000571:	0f 86 17 01 00 00    	jbe    100068e <draw_cursor_mask+0x133>
 1000577:	8b 44 24 2c          	mov    0x2c(%esp),%eax
 100057b:	8b 40 08             	mov    0x8(%eax),%eax
 100057e:	3b 44 24 34          	cmp    0x34(%esp),%eax
 1000582:	0f 86 09 01 00 00    	jbe    1000691 <draw_cursor_mask+0x136>
 1000588:	8b 44 24 28          	mov    0x28(%esp),%eax
 100058c:	8b 00                	mov    (%eax),%eax
 100058e:	89 44 24 10          	mov    %eax,0x10(%esp)
 1000592:	8b 44 24 2c          	mov    0x2c(%esp),%eax
 1000596:	8b 00                	mov    (%eax),%eax
 1000598:	89 44 24 0c          	mov    %eax,0xc(%esp)
 100059c:	8b 44 24 28          	mov    0x28(%esp),%eax
 10005a0:	8b 40 04             	mov    0x4(%eax),%eax
 10005a3:	89 44 24 18          	mov    %eax,0x18(%esp)
 10005a7:	8b 44 24 28          	mov    0x28(%esp),%eax
 10005ab:	8b 40 08             	mov    0x8(%eax),%eax
 10005ae:	89 44 24 14          	mov    %eax,0x14(%esp)
 10005b2:	8b 44 24 18          	mov    0x18(%esp),%eax
 10005b6:	89 c2                	mov    %eax,%edx
 10005b8:	03 54 24 30          	add    0x30(%esp),%edx
 10005bc:	8b 44 24 2c          	mov    0x2c(%esp),%eax
 10005c0:	8b 40 04             	mov    0x4(%eax),%eax
 10005c3:	39 c2                	cmp    %eax,%edx
 10005c5:	72 0f                	jb     10005d6 <draw_cursor_mask+0x7b>
 10005c7:	8b 44 24 2c          	mov    0x2c(%esp),%eax
 10005cb:	8b 40 04             	mov    0x4(%eax),%eax
 10005ce:	2b 44 24 30          	sub    0x30(%esp),%eax
 10005d2:	89 44 24 18          	mov    %eax,0x18(%esp)
 10005d6:	8b 44 24 14          	mov    0x14(%esp),%eax
 10005da:	89 c2                	mov    %eax,%edx
 10005dc:	03 54 24 34          	add    0x34(%esp),%edx
 10005e0:	8b 44 24 2c          	mov    0x2c(%esp),%eax
 10005e4:	8b 40 08             	mov    0x8(%eax),%eax
 10005e7:	39 c2                	cmp    %eax,%edx
 10005e9:	72 0f                	jb     10005fa <draw_cursor_mask+0x9f>
 10005eb:	8b 44 24 2c          	mov    0x2c(%esp),%eax
 10005ef:	8b 40 08             	mov    0x8(%eax),%eax
 10005f2:	2b 44 24 34          	sub    0x34(%esp),%eax
 10005f6:	89 44 24 14          	mov    %eax,0x14(%esp)
 10005fa:	8b 44 24 2c          	mov    0x2c(%esp),%eax
 10005fe:	8b 40 04             	mov    0x4(%eax),%eax
 1000601:	0f af 44 24 34       	imul   0x34(%esp),%eax
 1000606:	03 44 24 30          	add    0x30(%esp),%eax
 100060a:	01 c0                	add    %eax,%eax
 100060c:	01 44 24 0c          	add    %eax,0xc(%esp)
 1000610:	c7 44 24 1c 00 00 00 	movl   $0x0,0x1c(%esp)
 1000617:	00 
 1000618:	eb 68                	jmp    1000682 <draw_cursor_mask+0x127>
 100061a:	c7 44 24 20 00 00 00 	movl   $0x0,0x20(%esp)
 1000621:	00 
 1000622:	eb 35                	jmp    1000659 <draw_cursor_mask+0xfe>
 1000624:	8b 44 24 20          	mov    0x20(%esp),%eax
 1000628:	01 c0                	add    %eax,%eax
 100062a:	03 44 24 10          	add    0x10(%esp),%eax
 100062e:	0f b7 00             	movzwl (%eax),%eax
 1000631:	66 3b 04 24          	cmp    (%esp),%ax
 1000635:	74 1c                	je     1000653 <draw_cursor_mask+0xf8>
 1000637:	8b 44 24 20          	mov    0x20(%esp),%eax
 100063b:	01 c0                	add    %eax,%eax
 100063d:	03 44 24 0c          	add    0xc(%esp),%eax
 1000641:	8b 54 24 20          	mov    0x20(%esp),%edx
 1000645:	01 d2                	add    %edx,%edx
 1000647:	03 54 24 10          	add    0x10(%esp),%edx
 100064b:	0f b7 12             	movzwl (%edx),%edx
 100064e:	66 89 10             	mov    %dx,(%eax)
 1000651:	eb 01                	jmp    1000654 <draw_cursor_mask+0xf9>
 1000653:	90                   	nop
 1000654:	83 44 24 20 01       	addl   $0x1,0x20(%esp)
 1000659:	8b 44 24 20          	mov    0x20(%esp),%eax
 100065d:	3b 44 24 18          	cmp    0x18(%esp),%eax
 1000661:	7c c1                	jl     1000624 <draw_cursor_mask+0xc9>
 1000663:	8b 44 24 28          	mov    0x28(%esp),%eax
 1000667:	8b 40 04             	mov    0x4(%eax),%eax
 100066a:	01 c0                	add    %eax,%eax
 100066c:	01 44 24 10          	add    %eax,0x10(%esp)
 1000670:	8b 44 24 2c          	mov    0x2c(%esp),%eax
 1000674:	8b 40 04             	mov    0x4(%eax),%eax
 1000677:	01 c0                	add    %eax,%eax
 1000679:	01 44 24 0c          	add    %eax,0xc(%esp)
 100067d:	83 44 24 1c 01       	addl   $0x1,0x1c(%esp)
 1000682:	8b 44 24 1c          	mov    0x1c(%esp),%eax
 1000686:	3b 44 24 14          	cmp    0x14(%esp),%eax
 100068a:	7c 8e                	jl     100061a <draw_cursor_mask+0xbf>
 100068c:	eb 04                	jmp    1000692 <draw_cursor_mask+0x137>
 100068e:	90                   	nop
 100068f:	eb 01                	jmp    1000692 <draw_cursor_mask+0x137>
 1000691:	90                   	nop
 1000692:	83 c4 24             	add    $0x24,%esp
 1000695:	c3                   	ret    

01000696 <draw_x_line>:
 1000696:	57                   	push   %edi
 1000697:	53                   	push   %ebx
 1000698:	83 ec 04             	sub    $0x4,%esp
 100069b:	8b 44 24 20          	mov    0x20(%esp),%eax
 100069f:	66 89 04 24          	mov    %ax,(%esp)
 10006a3:	8b 44 24 18          	mov    0x18(%esp),%eax
 10006a7:	3b 44 24 1c          	cmp    0x1c(%esp),%eax
 10006ab:	77 33                	ja     10006e0 <draw_x_line+0x4a>
 10006ad:	8b 44 24 18          	mov    0x18(%esp),%eax
 10006b1:	8b 54 24 1c          	mov    0x1c(%esp),%edx
 10006b5:	29 c2                	sub    %eax,%edx
 10006b7:	8b 44 24 10          	mov    0x10(%esp),%eax
 10006bb:	8b 08                	mov    (%eax),%ecx
 10006bd:	8b 44 24 10          	mov    0x10(%esp),%eax
 10006c1:	8b 40 04             	mov    0x4(%eax),%eax
 10006c4:	0f af 44 24 14       	imul   0x14(%esp),%eax
 10006c9:	03 44 24 18          	add    0x18(%esp),%eax
 10006cd:	01 c0                	add    %eax,%eax
 10006cf:	8d 1c 01             	lea    (%ecx,%eax,1),%ebx
 10006d2:	0f b7 04 24          	movzwl (%esp),%eax
 10006d6:	89 d1                	mov    %edx,%ecx
 10006d8:	89 df                	mov    %ebx,%edi
 10006da:	fc                   	cld    
 10006db:	f3 66 ab             	rep stos %ax,%es:(%edi)
 10006de:	eb 01                	jmp    10006e1 <draw_x_line+0x4b>
 10006e0:	90                   	nop
 10006e1:	83 c4 04             	add    $0x4,%esp
 10006e4:	5b                   	pop    %ebx
 10006e5:	5f                   	pop    %edi
 10006e6:	c3                   	ret    

010006e7 <draw_y_line>:
 10006e7:	83 ec 24             	sub    $0x24,%esp
 10006ea:	8b 44 24 38          	mov    0x38(%esp),%eax
 10006ee:	66 89 44 24 10       	mov    %ax,0x10(%esp)
 10006f3:	8b 44 24 30          	mov    0x30(%esp),%eax
 10006f7:	89 44 24 20          	mov    %eax,0x20(%esp)
 10006fb:	eb 2a                	jmp    1000727 <draw_y_line+0x40>
 10006fd:	0f b7 54 24 10       	movzwl 0x10(%esp),%edx
 1000702:	8b 44 24 20          	mov    0x20(%esp),%eax
 1000706:	89 54 24 0c          	mov    %edx,0xc(%esp)
 100070a:	89 44 24 08          	mov    %eax,0x8(%esp)
 100070e:	8b 44 24 2c          	mov    0x2c(%esp),%eax
 1000712:	89 44 24 04          	mov    %eax,0x4(%esp)
 1000716:	8b 44 24 28          	mov    0x28(%esp),%eax
 100071a:	89 04 24             	mov    %eax,(%esp)
 100071d:	e8 b8 f9 ff ff       	call   10000da <draw_set_point>
 1000722:	83 44 24 20 01       	addl   $0x1,0x20(%esp)
 1000727:	8b 44 24 20          	mov    0x20(%esp),%eax
 100072b:	3b 44 24 34          	cmp    0x34(%esp),%eax
 100072f:	76 cc                	jbe    10006fd <draw_y_line+0x16>
 1000731:	83 c4 24             	add    $0x24,%esp
 1000734:	c3                   	ret    

01000735 <draw_rect>:
 1000735:	83 ec 1c             	sub    $0x1c,%esp
 1000738:	8b 44 24 34          	mov    0x34(%esp),%eax
 100073c:	66 89 44 24 18       	mov    %ax,0x18(%esp)
 1000741:	0f b7 44 24 18       	movzwl 0x18(%esp),%eax
 1000746:	89 44 24 10          	mov    %eax,0x10(%esp)
 100074a:	8b 44 24 2c          	mov    0x2c(%esp),%eax
 100074e:	89 44 24 0c          	mov    %eax,0xc(%esp)
 1000752:	8b 44 24 24          	mov    0x24(%esp),%eax
 1000756:	89 44 24 08          	mov    %eax,0x8(%esp)
 100075a:	8b 44 24 28          	mov    0x28(%esp),%eax
 100075e:	89 44 24 04          	mov    %eax,0x4(%esp)
 1000762:	8b 44 24 20          	mov    0x20(%esp),%eax
 1000766:	89 04 24             	mov    %eax,(%esp)
 1000769:	e8 28 ff ff ff       	call   1000696 <draw_x_line>
 100076e:	0f b7 44 24 18       	movzwl 0x18(%esp),%eax
 1000773:	89 44 24 10          	mov    %eax,0x10(%esp)
 1000777:	8b 44 24 2c          	mov    0x2c(%esp),%eax
 100077b:	89 44 24 0c          	mov    %eax,0xc(%esp)
 100077f:	8b 44 24 24          	mov    0x24(%esp),%eax
 1000783:	89 44 24 08          	mov    %eax,0x8(%esp)
 1000787:	8b 44 24 30          	mov    0x30(%esp),%eax
 100078b:	89 44 24 04          	mov    %eax,0x4(%esp)
 100078f:	8b 44 24 20          	mov    0x20(%esp),%eax
 1000793:	89 04 24             	mov    %eax,(%esp)
 1000796:	e8 fb fe ff ff       	call   1000696 <draw_x_line>
 100079b:	0f b7 44 24 18       	movzwl 0x18(%esp),%eax
 10007a0:	89 44 24 10          	mov    %eax,0x10(%esp)
 10007a4:	8b 44 24 30          	mov    0x30(%esp),%eax
 10007a8:	89 44 24 0c          	mov    %eax,0xc(%esp)
 10007ac:	8b 44 24 28          	mov    0x28(%esp),%eax
 10007b0:	89 44 24 08          	mov    %eax,0x8(%esp)
 10007b4:	8b 44 24 24          	mov    0x24(%esp),%eax
 10007b8:	89 44 24 04          	mov    %eax,0x4(%esp)
 10007bc:	8b 44 24 20          	mov    0x20(%esp),%eax
 10007c0:	89 04 24             	mov    %eax,(%esp)
 10007c3:	e8 1f ff ff ff       	call   10006e7 <draw_y_line>
 10007c8:	0f b7 44 24 18       	movzwl 0x18(%esp),%eax
 10007cd:	89 44 24 10          	mov    %eax,0x10(%esp)
 10007d1:	8b 44 24 30          	mov    0x30(%esp),%eax
 10007d5:	89 44 24 0c          	mov    %eax,0xc(%esp)
 10007d9:	8b 44 24 28          	mov    0x28(%esp),%eax
 10007dd:	89 44 24 08          	mov    %eax,0x8(%esp)
 10007e1:	8b 44 24 2c          	mov    0x2c(%esp),%eax
 10007e5:	89 44 24 04          	mov    %eax,0x4(%esp)
 10007e9:	8b 44 24 20          	mov    0x20(%esp),%eax
 10007ed:	89 04 24             	mov    %eax,(%esp)
 10007f0:	e8 f2 fe ff ff       	call   10006e7 <draw_y_line>
 10007f5:	83 7c 24 38 00       	cmpl   $0x0,0x38(%esp)
 10007fa:	74 35                	je     1000831 <draw_rect+0xfc>
 10007fc:	0f b7 44 24 18       	movzwl 0x18(%esp),%eax
 1000801:	89 44 24 14          	mov    %eax,0x14(%esp)
 1000805:	8b 44 24 30          	mov    0x30(%esp),%eax
 1000809:	89 44 24 10          	mov    %eax,0x10(%esp)
 100080d:	8b 44 24 2c          	mov    0x2c(%esp),%eax
 1000811:	89 44 24 0c          	mov    %eax,0xc(%esp)
 1000815:	8b 44 24 28          	mov    0x28(%esp),%eax
 1000819:	89 44 24 08          	mov    %eax,0x8(%esp)
 100081d:	8b 44 24 24          	mov    0x24(%esp),%eax
 1000821:	89 44 24 04          	mov    %eax,0x4(%esp)
 1000825:	8b 44 24 20          	mov    0x20(%esp),%eax
 1000829:	89 04 24             	mov    %eax,(%esp)
 100082c:	e8 40 f9 ff ff       	call   1000171 <draw_fill_rect>
 1000831:	83 c4 1c             	add    $0x1c,%esp
 1000834:	c3                   	ret    

01000835 <draw_string>:
 1000835:	83 ec 3c             	sub    $0x3c,%esp
 1000838:	8b 44 24 50          	mov    0x50(%esp),%eax
 100083c:	66 89 44 24 2c       	mov    %ax,0x2c(%esp)
 1000841:	eb 3d                	jmp    1000880 <draw_string+0x4b>
 1000843:	0f b7 54 24 2c       	movzwl 0x2c(%esp),%edx
 1000848:	8b 44 24 4c          	mov    0x4c(%esp),%eax
 100084c:	0f b6 00             	movzbl (%eax),%eax
 100084f:	0f be c0             	movsbl %al,%eax
 1000852:	89 54 24 10          	mov    %edx,0x10(%esp)
 1000856:	89 44 24 0c          	mov    %eax,0xc(%esp)
 100085a:	8b 44 24 48          	mov    0x48(%esp),%eax
 100085e:	89 44 24 08          	mov    %eax,0x8(%esp)
 1000862:	8b 44 24 44          	mov    0x44(%esp),%eax
 1000866:	89 44 24 04          	mov    %eax,0x4(%esp)
 100086a:	8b 44 24 40          	mov    0x40(%esp),%eax
 100086e:	89 04 24             	mov    %eax,(%esp)
 1000871:	e8 1d 00 00 00       	call   1000893 <draw_ascii>
 1000876:	83 44 24 44 08       	addl   $0x8,0x44(%esp)
 100087b:	83 44 24 4c 01       	addl   $0x1,0x4c(%esp)
 1000880:	8b 44 24 4c          	mov    0x4c(%esp),%eax
 1000884:	0f b6 00             	movzbl (%eax),%eax
 1000887:	84 c0                	test   %al,%al
 1000889:	75 b8                	jne    1000843 <draw_string+0xe>
 100088b:	8b 44 24 44          	mov    0x44(%esp),%eax
 100088f:	83 c4 3c             	add    $0x3c,%esp
 1000892:	c3                   	ret    

01000893 <draw_ascii>:
 1000893:	83 ec 14             	sub    $0x14,%esp
 1000896:	8b 44 24 28          	mov    0x28(%esp),%eax
 100089a:	66 89 04 24          	mov    %ax,(%esp)
 100089e:	8b 44 24 24          	mov    0x24(%esp),%eax
 10008a2:	c1 e0 04             	shl    $0x4,%eax
 10008a5:	05 20 41 00 01       	add    $0x1004120,%eax
 10008aa:	89 44 24 10          	mov    %eax,0x10(%esp)
 10008ae:	c7 44 24 04 00 00 00 	movl   $0x0,0x4(%esp)
 10008b5:	00 
 10008b6:	e9 b1 00 00 00       	jmp    100096c <draw_ascii+0xd9>
 10008bb:	8b 44 24 10          	mov    0x10(%esp),%eax
 10008bf:	0f b6 00             	movzbl (%eax),%eax
 10008c2:	88 44 24 0f          	mov    %al,0xf(%esp)
 10008c6:	83 44 24 10 01       	addl   $0x1,0x10(%esp)
 10008cb:	c7 44 24 08 00 00 00 	movl   $0x0,0x8(%esp)
 10008d2:	00 
 10008d3:	e9 84 00 00 00       	jmp    100095c <draw_ascii+0xc9>
 10008d8:	0f be 44 24 0f       	movsbl 0xf(%esp),%eax
 10008dd:	83 e0 01             	and    $0x1,%eax
 10008e0:	84 c0                	test   %al,%al
 10008e2:	74 39                	je     100091d <draw_ascii+0x8a>
 10008e4:	8b 44 24 18          	mov    0x18(%esp),%eax
 10008e8:	8b 10                	mov    (%eax),%edx
 10008ea:	8b 44 24 04          	mov    0x4(%esp),%eax
 10008ee:	89 c1                	mov    %eax,%ecx
 10008f0:	03 4c 24 20          	add    0x20(%esp),%ecx
 10008f4:	8b 44 24 18          	mov    0x18(%esp),%eax
 10008f8:	8b 40 04             	mov    0x4(%eax),%eax
 10008fb:	0f af c1             	imul   %ecx,%eax
 10008fe:	89 c1                	mov    %eax,%ecx
 1000900:	03 4c 24 1c          	add    0x1c(%esp),%ecx
 1000904:	8b 44 24 08          	mov    0x8(%esp),%eax
 1000908:	f7 d8                	neg    %eax
 100090a:	8d 04 01             	lea    (%ecx,%eax,1),%eax
 100090d:	83 c0 08             	add    $0x8,%eax
 1000910:	01 c0                	add    %eax,%eax
 1000912:	01 c2                	add    %eax,%edx
 1000914:	0f b7 04 24          	movzwl (%esp),%eax
 1000918:	66 89 02             	mov    %ax,(%edx)
 100091b:	eb 36                	jmp    1000953 <draw_ascii+0xc0>
 100091d:	8b 44 24 18          	mov    0x18(%esp),%eax
 1000921:	8b 10                	mov    (%eax),%edx
 1000923:	8b 44 24 04          	mov    0x4(%esp),%eax
 1000927:	89 c1                	mov    %eax,%ecx
 1000929:	03 4c 24 20          	add    0x20(%esp),%ecx
 100092d:	8b 44 24 18          	mov    0x18(%esp),%eax
 1000931:	8b 40 04             	mov    0x4(%eax),%eax
 1000934:	0f af c1             	imul   %ecx,%eax
 1000937:	89 c1                	mov    %eax,%ecx
 1000939:	03 4c 24 1c          	add    0x1c(%esp),%ecx
 100093d:	8b 44 24 08          	mov    0x8(%esp),%eax
 1000941:	f7 d8                	neg    %eax
 1000943:	8d 04 01             	lea    (%ecx,%eax,1),%eax
 1000946:	83 c0 08             	add    $0x8,%eax
 1000949:	01 c0                	add    %eax,%eax
 100094b:	8d 04 02             	lea    (%edx,%eax,1),%eax
 100094e:	66 c7 00 ff ff       	movw   $0xffff,(%eax)
 1000953:	d0 7c 24 0f          	sarb   0xf(%esp)
 1000957:	83 44 24 08 01       	addl   $0x1,0x8(%esp)
 100095c:	83 7c 24 08 07       	cmpl   $0x7,0x8(%esp)
 1000961:	0f 8e 71 ff ff ff    	jle    10008d8 <draw_ascii+0x45>
 1000967:	83 44 24 04 01       	addl   $0x1,0x4(%esp)
 100096c:	83 7c 24 04 0f       	cmpl   $0xf,0x4(%esp)
 1000971:	0f 8e 44 ff ff ff    	jle    10008bb <draw_ascii+0x28>
 1000977:	83 c4 14             	add    $0x14,%esp
 100097a:	c3                   	ret    

0100097b <draw_bmp16>:
 100097b:	83 ec 34             	sub    $0x34,%esp
 100097e:	8b 44 24 48          	mov    0x48(%esp),%eax
 1000982:	66 89 44 24 10       	mov    %ax,0x10(%esp)
 1000987:	8b 44 24 44          	mov    0x44(%esp),%eax
 100098b:	89 44 24 24          	mov    %eax,0x24(%esp)
 100098f:	8b 44 24 24          	mov    0x24(%esp),%eax
 1000993:	8b 40 12             	mov    0x12(%eax),%eax
 1000996:	89 44 24 20          	mov    %eax,0x20(%esp)
 100099a:	8b 44 24 24          	mov    0x24(%esp),%eax
 100099e:	8b 40 16             	mov    0x16(%eax),%eax
 10009a1:	89 44 24 1c          	mov    %eax,0x1c(%esp)
 10009a5:	8b 44 24 24          	mov    0x24(%esp),%eax
 10009a9:	8b 50 0a             	mov    0xa(%eax),%edx
 10009ac:	8b 44 24 44          	mov    0x44(%esp),%eax
 10009b0:	8d 04 02             	lea    (%edx,%eax,1),%eax
 10009b3:	89 44 24 28          	mov    %eax,0x28(%esp)
 10009b7:	8b 44 24 20          	mov    0x20(%esp),%eax
 10009bb:	8d 14 00             	lea    (%eax,%eax,1),%edx
 10009be:	89 d0                	mov    %edx,%eax
 10009c0:	c1 f8 1f             	sar    $0x1f,%eax
 10009c3:	c1 e8 1e             	shr    $0x1e,%eax
 10009c6:	01 c2                	add    %eax,%edx
 10009c8:	83 e2 03             	and    $0x3,%edx
 10009cb:	89 d1                	mov    %edx,%ecx
 10009cd:	29 c1                	sub    %eax,%ecx
 10009cf:	89 c8                	mov    %ecx,%eax
 10009d1:	89 c2                	mov    %eax,%edx
 10009d3:	c1 ea 1f             	shr    $0x1f,%edx
 10009d6:	8d 04 02             	lea    (%edx,%eax,1),%eax
 10009d9:	d1 f8                	sar    %eax
 10009db:	89 44 24 18          	mov    %eax,0x18(%esp)
 10009df:	8b 44 24 1c          	mov    0x1c(%esp),%eax
 10009e3:	83 e8 01             	sub    $0x1,%eax
 10009e6:	89 44 24 30          	mov    %eax,0x30(%esp)
 10009ea:	e9 96 00 00 00       	jmp    1000a85 <draw_bmp16+0x10a>
 10009ef:	c7 44 24 2c 00 00 00 	movl   $0x0,0x2c(%esp)
 10009f6:	00 
 10009f7:	eb 73                	jmp    1000a6c <draw_bmp16+0xf1>
 10009f9:	8b 44 24 28          	mov    0x28(%esp),%eax
 10009fd:	0f b7 00             	movzwl (%eax),%eax
 1000a00:	66 c1 e8 05          	shr    $0x5,%ax
 1000a04:	0f b7 c0             	movzwl %ax,%eax
 1000a07:	c1 e0 06             	shl    $0x6,%eax
 1000a0a:	89 c2                	mov    %eax,%edx
 1000a0c:	8b 44 24 28          	mov    0x28(%esp),%eax
 1000a10:	0f b7 00             	movzwl (%eax),%eax
 1000a13:	83 e0 1f             	and    $0x1f,%eax
 1000a16:	09 d0                	or     %edx,%eax
 1000a18:	83 c8 20             	or     $0x20,%eax
 1000a1b:	66 89 44 24 16       	mov    %ax,0x16(%esp)
 1000a20:	83 7c 24 4c 00       	cmpl   $0x0,0x4c(%esp)
 1000a25:	74 0c                	je     1000a33 <draw_bmp16+0xb8>
 1000a27:	0f b7 44 24 16       	movzwl 0x16(%esp),%eax
 1000a2c:	66 3b 44 24 10       	cmp    0x10(%esp),%ax
 1000a31:	74 2f                	je     1000a62 <draw_bmp16+0xe7>
 1000a33:	0f b7 4c 24 16       	movzwl 0x16(%esp),%ecx
 1000a38:	8b 44 24 30          	mov    0x30(%esp),%eax
 1000a3c:	89 c2                	mov    %eax,%edx
 1000a3e:	03 54 24 40          	add    0x40(%esp),%edx
 1000a42:	8b 44 24 2c          	mov    0x2c(%esp),%eax
 1000a46:	03 44 24 3c          	add    0x3c(%esp),%eax
 1000a4a:	89 4c 24 0c          	mov    %ecx,0xc(%esp)
 1000a4e:	89 54 24 08          	mov    %edx,0x8(%esp)
 1000a52:	89 44 24 04          	mov    %eax,0x4(%esp)
 1000a56:	8b 44 24 38          	mov    0x38(%esp),%eax
 1000a5a:	89 04 24             	mov    %eax,(%esp)
 1000a5d:	e8 78 f6 ff ff       	call   10000da <draw_set_point>
 1000a62:	83 44 24 28 02       	addl   $0x2,0x28(%esp)
 1000a67:	83 44 24 2c 01       	addl   $0x1,0x2c(%esp)
 1000a6c:	8b 44 24 2c          	mov    0x2c(%esp),%eax
 1000a70:	3b 44 24 20          	cmp    0x20(%esp),%eax
 1000a74:	7c 83                	jl     10009f9 <draw_bmp16+0x7e>
 1000a76:	8b 44 24 18          	mov    0x18(%esp),%eax
 1000a7a:	01 c0                	add    %eax,%eax
 1000a7c:	01 44 24 28          	add    %eax,0x28(%esp)
 1000a80:	83 6c 24 30 01       	subl   $0x1,0x30(%esp)
 1000a85:	83 7c 24 30 00       	cmpl   $0x0,0x30(%esp)
 1000a8a:	0f 89 5f ff ff ff    	jns    10009ef <draw_bmp16+0x74>
 1000a90:	83 c4 34             	add    $0x34,%esp
 1000a93:	c3                   	ret    

01000a94 <draw_bmp>:
 1000a94:	83 ec 4c             	sub    $0x4c,%esp
 1000a97:	8b 44 24 60          	mov    0x60(%esp),%eax
 1000a9b:	66 89 44 24 2c       	mov    %ax,0x2c(%esp)
 1000aa0:	8b 44 24 5c          	mov    0x5c(%esp),%eax
 1000aa4:	89 44 24 3c          	mov    %eax,0x3c(%esp)
 1000aa8:	8b 44 24 3c          	mov    0x3c(%esp),%eax
 1000aac:	0f b7 40 1c          	movzwl 0x1c(%eax),%eax
 1000ab0:	66 83 f8 18          	cmp    $0x18,%ax
 1000ab4:	75 37                	jne    1000aed <draw_bmp+0x59>
 1000ab6:	0f b7 44 24 2c       	movzwl 0x2c(%esp),%eax
 1000abb:	8b 54 24 64          	mov    0x64(%esp),%edx
 1000abf:	89 54 24 14          	mov    %edx,0x14(%esp)
 1000ac3:	89 44 24 10          	mov    %eax,0x10(%esp)
 1000ac7:	8b 44 24 5c          	mov    0x5c(%esp),%eax
 1000acb:	89 44 24 0c          	mov    %eax,0xc(%esp)
 1000acf:	8b 44 24 58          	mov    0x58(%esp),%eax
 1000ad3:	89 44 24 08          	mov    %eax,0x8(%esp)
 1000ad7:	8b 44 24 54          	mov    0x54(%esp),%eax
 1000adb:	89 44 24 04          	mov    %eax,0x4(%esp)
 1000adf:	8b 44 24 50          	mov    0x50(%esp),%eax
 1000ae3:	89 04 24             	mov    %eax,(%esp)
 1000ae6:	e8 3b 00 00 00       	call   1000b26 <draw_bmp24>
 1000aeb:	eb 35                	jmp    1000b22 <draw_bmp+0x8e>
 1000aed:	0f b7 44 24 2c       	movzwl 0x2c(%esp),%eax
 1000af2:	8b 54 24 64          	mov    0x64(%esp),%edx
 1000af6:	89 54 24 14          	mov    %edx,0x14(%esp)
 1000afa:	89 44 24 10          	mov    %eax,0x10(%esp)
 1000afe:	8b 44 24 5c          	mov    0x5c(%esp),%eax
 1000b02:	89 44 24 0c          	mov    %eax,0xc(%esp)
 1000b06:	8b 44 24 58          	mov    0x58(%esp),%eax
 1000b0a:	89 44 24 08          	mov    %eax,0x8(%esp)
 1000b0e:	8b 44 24 54          	mov    0x54(%esp),%eax
 1000b12:	89 44 24 04          	mov    %eax,0x4(%esp)
 1000b16:	8b 44 24 50          	mov    0x50(%esp),%eax
 1000b1a:	89 04 24             	mov    %eax,(%esp)
 1000b1d:	e8 59 fe ff ff       	call   100097b <draw_bmp16>
 1000b22:	83 c4 4c             	add    $0x4c,%esp
 1000b25:	c3                   	ret    

01000b26 <draw_bmp24>:
 1000b26:	83 ec 34             	sub    $0x34,%esp
 1000b29:	8b 44 24 48          	mov    0x48(%esp),%eax
 1000b2d:	66 89 44 24 10       	mov    %ax,0x10(%esp)
 1000b32:	8b 44 24 44          	mov    0x44(%esp),%eax
 1000b36:	89 44 24 24          	mov    %eax,0x24(%esp)
 1000b3a:	8b 44 24 24          	mov    0x24(%esp),%eax
 1000b3e:	8b 40 12             	mov    0x12(%eax),%eax
 1000b41:	89 44 24 20          	mov    %eax,0x20(%esp)
 1000b45:	8b 44 24 24          	mov    0x24(%esp),%eax
 1000b49:	8b 40 16             	mov    0x16(%eax),%eax
 1000b4c:	89 44 24 1c          	mov    %eax,0x1c(%esp)
 1000b50:	8b 44 24 24          	mov    0x24(%esp),%eax
 1000b54:	8b 50 0a             	mov    0xa(%eax),%edx
 1000b57:	8b 44 24 44          	mov    0x44(%esp),%eax
 1000b5b:	8d 04 02             	lea    (%edx,%eax,1),%eax
 1000b5e:	89 44 24 28          	mov    %eax,0x28(%esp)
 1000b62:	8b 54 24 20          	mov    0x20(%esp),%edx
 1000b66:	89 d0                	mov    %edx,%eax
 1000b68:	01 c0                	add    %eax,%eax
 1000b6a:	8d 14 10             	lea    (%eax,%edx,1),%edx
 1000b6d:	89 d0                	mov    %edx,%eax
 1000b6f:	c1 f8 1f             	sar    $0x1f,%eax
 1000b72:	c1 e8 1e             	shr    $0x1e,%eax
 1000b75:	01 c2                	add    %eax,%edx
 1000b77:	83 e2 03             	and    $0x3,%edx
 1000b7a:	89 d1                	mov    %edx,%ecx
 1000b7c:	29 c1                	sub    %eax,%ecx
 1000b7e:	89 c8                	mov    %ecx,%eax
 1000b80:	89 44 24 18          	mov    %eax,0x18(%esp)
 1000b84:	8b 44 24 1c          	mov    0x1c(%esp),%eax
 1000b88:	83 e8 01             	sub    $0x1,%eax
 1000b8b:	89 44 24 30          	mov    %eax,0x30(%esp)
 1000b8f:	e9 bc 00 00 00       	jmp    1000c50 <draw_bmp24+0x12a>
 1000b94:	c7 44 24 2c 00 00 00 	movl   $0x0,0x2c(%esp)
 1000b9b:	00 
 1000b9c:	e9 8d 00 00 00       	jmp    1000c2e <draw_bmp24+0x108>
 1000ba1:	8b 44 24 28          	mov    0x28(%esp),%eax
 1000ba5:	0f b6 40 02          	movzbl 0x2(%eax),%eax
 1000ba9:	c0 e8 03             	shr    $0x3,%al
 1000bac:	0f b6 c0             	movzbl %al,%eax
 1000baf:	c1 e0 0b             	shl    $0xb,%eax
 1000bb2:	89 c2                	mov    %eax,%edx
 1000bb4:	8b 44 24 28          	mov    0x28(%esp),%eax
 1000bb8:	0f b6 40 01          	movzbl 0x1(%eax),%eax
 1000bbc:	c0 e8 02             	shr    $0x2,%al
 1000bbf:	0f b6 c0             	movzbl %al,%eax
 1000bc2:	83 e0 3f             	and    $0x3f,%eax
 1000bc5:	c1 e0 05             	shl    $0x5,%eax
 1000bc8:	01 c2                	add    %eax,%edx
 1000bca:	8b 44 24 28          	mov    0x28(%esp),%eax
 1000bce:	0f b6 00             	movzbl (%eax),%eax
 1000bd1:	c0 e8 03             	shr    $0x3,%al
 1000bd4:	0f b6 c0             	movzbl %al,%eax
 1000bd7:	83 e0 1f             	and    $0x1f,%eax
 1000bda:	8d 04 02             	lea    (%edx,%eax,1),%eax
 1000bdd:	66 89 44 24 16       	mov    %ax,0x16(%esp)
 1000be2:	83 7c 24 4c 00       	cmpl   $0x0,0x4c(%esp)
 1000be7:	74 0c                	je     1000bf5 <draw_bmp24+0xcf>
 1000be9:	0f b7 44 24 16       	movzwl 0x16(%esp),%eax
 1000bee:	66 3b 44 24 10       	cmp    0x10(%esp),%ax
 1000bf3:	74 2f                	je     1000c24 <draw_bmp24+0xfe>
 1000bf5:	0f b7 4c 24 16       	movzwl 0x16(%esp),%ecx
 1000bfa:	8b 44 24 30          	mov    0x30(%esp),%eax
 1000bfe:	89 c2                	mov    %eax,%edx
 1000c00:	03 54 24 40          	add    0x40(%esp),%edx
 1000c04:	8b 44 24 2c          	mov    0x2c(%esp),%eax
 1000c08:	03 44 24 3c          	add    0x3c(%esp),%eax
 1000c0c:	89 4c 24 0c          	mov    %ecx,0xc(%esp)
 1000c10:	89 54 24 08          	mov    %edx,0x8(%esp)
 1000c14:	89 44 24 04          	mov    %eax,0x4(%esp)
 1000c18:	8b 44 24 38          	mov    0x38(%esp),%eax
 1000c1c:	89 04 24             	mov    %eax,(%esp)
 1000c1f:	e8 b6 f4 ff ff       	call   10000da <draw_set_point>
 1000c24:	83 44 24 28 03       	addl   $0x3,0x28(%esp)
 1000c29:	83 44 24 2c 01       	addl   $0x1,0x2c(%esp)
 1000c2e:	8b 44 24 2c          	mov    0x2c(%esp),%eax
 1000c32:	3b 44 24 20          	cmp    0x20(%esp),%eax
 1000c36:	0f 8c 65 ff ff ff    	jl     1000ba1 <draw_bmp24+0x7b>
 1000c3c:	8b 54 24 28          	mov    0x28(%esp),%edx
 1000c40:	8b 44 24 18          	mov    0x18(%esp),%eax
 1000c44:	8d 04 02             	lea    (%edx,%eax,1),%eax
 1000c47:	89 44 24 28          	mov    %eax,0x28(%esp)
 1000c4b:	83 6c 24 30 01       	subl   $0x1,0x30(%esp)
 1000c50:	83 7c 24 30 00       	cmpl   $0x0,0x30(%esp)
 1000c55:	0f 89 39 ff ff ff    	jns    1000b94 <draw_bmp24+0x6e>
 1000c5b:	83 c4 34             	add    $0x34,%esp
 1000c5e:	c3                   	ret    
 1000c5f:	90                   	nop

01000c60 <kb_do_km_keypress>:
 1000c60:	8b 44 24 08          	mov    0x8(%esp),%eax
 1000c64:	8b 50 08             	mov    0x8(%eax),%edx
 1000c67:	8b 44 24 04          	mov    0x4(%esp),%eax
 1000c6b:	89 50 0c             	mov    %edx,0xc(%eax)
 1000c6e:	8b 44 24 08          	mov    0x8(%esp),%eax
 1000c72:	8b 40 0c             	mov    0xc(%eax),%eax
 1000c75:	89 c2                	mov    %eax,%edx
 1000c77:	8b 44 24 04          	mov    0x4(%esp),%eax
 1000c7b:	89 50 10             	mov    %edx,0x10(%eax)
 1000c7e:	c3                   	ret    

01000c7f <kb_init>:
 1000c7f:	83 ec 3c             	sub    $0x3c,%esp
 1000c82:	8b 44 24 40          	mov    0x40(%esp),%eax
 1000c86:	c7 40 10 00 00 00 00 	movl   $0x0,0x10(%eax)
 1000c8d:	c7 44 24 10 03 00 00 	movl   $0x3,0x10(%esp)
 1000c94:	00 
 1000c95:	8d 44 24 10          	lea    0x10(%esp),%eax
 1000c99:	89 44 24 04          	mov    %eax,0x4(%esp)
 1000c9d:	c7 04 24 00 00 00 00 	movl   $0x0,(%esp)
 1000ca4:	e8 66 1f 00 00       	call   1002c0f <send>
 1000ca9:	b8 00 00 00 00       	mov    $0x0,%eax
 1000cae:	83 c4 3c             	add    $0x3c,%esp
 1000cb1:	c3                   	ret    

01000cb2 <kb_exit>:
 1000cb2:	83 ec 3c             	sub    $0x3c,%esp
 1000cb5:	c7 44 24 10 07 00 00 	movl   $0x7,0x10(%esp)
 1000cbc:	00 
 1000cbd:	8d 44 24 10          	lea    0x10(%esp),%eax
 1000cc1:	89 44 24 04          	mov    %eax,0x4(%esp)
 1000cc5:	c7 04 24 00 00 00 00 	movl   $0x0,(%esp)
 1000ccc:	e8 3e 1f 00 00       	call   1002c0f <send>
 1000cd1:	b8 00 00 00 00       	mov    $0x0,%eax
 1000cd6:	83 c4 3c             	add    $0x3c,%esp
 1000cd9:	c3                   	ret    
 1000cda:	90                   	nop
 1000cdb:	90                   	nop

01000cdc <mouse_do_km_mouseact>:
 1000cdc:	8b 44 24 04          	mov    0x4(%esp),%eax
 1000ce0:	8b 50 18             	mov    0x18(%eax),%edx
 1000ce3:	8b 44 24 04          	mov    0x4(%esp),%eax
 1000ce7:	89 50 24             	mov    %edx,0x24(%eax)
 1000cea:	8b 44 24 04          	mov    0x4(%esp),%eax
 1000cee:	8b 50 1c             	mov    0x1c(%eax),%edx
 1000cf1:	8b 44 24 04          	mov    0x4(%esp),%eax
 1000cf5:	89 50 28             	mov    %edx,0x28(%eax)
 1000cf8:	8b 44 24 04          	mov    0x4(%esp),%eax
 1000cfc:	8b 50 20             	mov    0x20(%eax),%edx
 1000cff:	8b 44 24 04          	mov    0x4(%esp),%eax
 1000d03:	89 50 2c             	mov    %edx,0x2c(%eax)
 1000d06:	8b 44 24 04          	mov    0x4(%esp),%eax
 1000d0a:	8b 50 18             	mov    0x18(%eax),%edx
 1000d0d:	8b 44 24 08          	mov    0x8(%esp),%eax
 1000d11:	8b 40 08             	mov    0x8(%eax),%eax
 1000d14:	01 c2                	add    %eax,%edx
 1000d16:	8b 44 24 04          	mov    0x4(%esp),%eax
 1000d1a:	89 50 18             	mov    %edx,0x18(%eax)
 1000d1d:	8b 44 24 04          	mov    0x4(%esp),%eax
 1000d21:	8b 50 1c             	mov    0x1c(%eax),%edx
 1000d24:	8b 44 24 08          	mov    0x8(%esp),%eax
 1000d28:	8b 40 0c             	mov    0xc(%eax),%eax
 1000d2b:	01 c2                	add    %eax,%edx
 1000d2d:	8b 44 24 04          	mov    0x4(%esp),%eax
 1000d31:	89 50 1c             	mov    %edx,0x1c(%eax)
 1000d34:	8b 44 24 08          	mov    0x8(%esp),%eax
 1000d38:	8b 50 10             	mov    0x10(%eax),%edx
 1000d3b:	8b 44 24 04          	mov    0x4(%esp),%eax
 1000d3f:	89 50 20             	mov    %edx,0x20(%eax)
 1000d42:	8b 44 24 04          	mov    0x4(%esp),%eax
 1000d46:	8b 40 18             	mov    0x18(%eax),%eax
 1000d49:	85 c0                	test   %eax,%eax
 1000d4b:	79 0b                	jns    1000d58 <mouse_do_km_mouseact+0x7c>
 1000d4d:	8b 44 24 04          	mov    0x4(%esp),%eax
 1000d51:	c7 40 18 00 00 00 00 	movl   $0x0,0x18(%eax)
 1000d58:	8b 44 24 04          	mov    0x4(%esp),%eax
 1000d5c:	8b 40 1c             	mov    0x1c(%eax),%eax
 1000d5f:	85 c0                	test   %eax,%eax
 1000d61:	79 0b                	jns    1000d6e <mouse_do_km_mouseact+0x92>
 1000d63:	8b 44 24 04          	mov    0x4(%esp),%eax
 1000d67:	c7 40 1c 00 00 00 00 	movl   $0x0,0x1c(%eax)
 1000d6e:	8b 44 24 04          	mov    0x4(%esp),%eax
 1000d72:	8b 50 18             	mov    0x18(%eax),%edx
 1000d75:	8b 44 24 04          	mov    0x4(%esp),%eax
 1000d79:	8b 40 08             	mov    0x8(%eax),%eax
 1000d7c:	8b 40 04             	mov    0x4(%eax),%eax
 1000d7f:	39 c2                	cmp    %eax,%edx
 1000d81:	7e 11                	jle    1000d94 <mouse_do_km_mouseact+0xb8>
 1000d83:	8b 44 24 04          	mov    0x4(%esp),%eax
 1000d87:	8b 40 08             	mov    0x8(%eax),%eax
 1000d8a:	8b 50 04             	mov    0x4(%eax),%edx
 1000d8d:	8b 44 24 04          	mov    0x4(%esp),%eax
 1000d91:	89 50 18             	mov    %edx,0x18(%eax)
 1000d94:	8b 44 24 04          	mov    0x4(%esp),%eax
 1000d98:	8b 50 1c             	mov    0x1c(%eax),%edx
 1000d9b:	8b 44 24 04          	mov    0x4(%esp),%eax
 1000d9f:	8b 40 08             	mov    0x8(%eax),%eax
 1000da2:	8b 40 08             	mov    0x8(%eax),%eax
 1000da5:	39 c2                	cmp    %eax,%edx
 1000da7:	7e 11                	jle    1000dba <mouse_do_km_mouseact+0xde>
 1000da9:	8b 44 24 04          	mov    0x4(%esp),%eax
 1000dad:	8b 40 08             	mov    0x8(%eax),%eax
 1000db0:	8b 50 08             	mov    0x8(%eax),%edx
 1000db3:	8b 44 24 04          	mov    0x4(%esp),%eax
 1000db7:	89 50 1c             	mov    %edx,0x1c(%eax)
 1000dba:	c3                   	ret    

01000dbb <cursor_init>:
 1000dbb:	83 ec 2c             	sub    $0x2c,%esp
 1000dbe:	a1 bc 3e 00 01       	mov    0x1003ebc,%eax
 1000dc3:	c7 00 80 7b 00 01    	movl   $0x1007b80,(%eax)
 1000dc9:	a1 bc 3e 00 01       	mov    0x1003ebc,%eax
 1000dce:	c7 40 04 0c 00 00 00 	movl   $0xc,0x4(%eax)
 1000dd5:	a1 bc 3e 00 01       	mov    0x1003ebc,%eax
 1000dda:	c7 40 08 14 00 00 00 	movl   $0x14,0x8(%eax)
 1000de1:	a1 bc 3e 00 01       	mov    0x1003ebc,%eax
 1000de6:	c7 40 0c 10 00 00 00 	movl   $0x10,0xc(%eax)
 1000ded:	c7 44 24 04 80 53 00 	movl   $0x1005380,0x4(%esp)
 1000df4:	01 
 1000df5:	c7 04 24 c0 3e 00 01 	movl   $0x1003ec0,(%esp)
 1000dfc:	e8 ca 1d 00 00       	call   1002bcb <get_module>
 1000e01:	a1 bc 3e 00 01       	mov    0x1003ebc,%eax
 1000e06:	c7 44 24 14 00 00 00 	movl   $0x0,0x14(%esp)
 1000e0d:	00 
 1000e0e:	c7 44 24 10 00 00 00 	movl   $0x0,0x10(%esp)
 1000e15:	00 
 1000e16:	c7 44 24 0c 80 53 00 	movl   $0x1005380,0xc(%esp)
 1000e1d:	01 
 1000e1e:	c7 44 24 08 00 00 00 	movl   $0x0,0x8(%esp)
 1000e25:	00 
 1000e26:	c7 44 24 04 00 00 00 	movl   $0x0,0x4(%esp)
 1000e2d:	00 
 1000e2e:	89 04 24             	mov    %eax,(%esp)
 1000e31:	e8 5e fc ff ff       	call   1000a94 <draw_bmp>
 1000e36:	83 c4 2c             	add    $0x2c,%esp
 1000e39:	c3                   	ret    

01000e3a <mouse_init>:
 1000e3a:	83 ec 3c             	sub    $0x3c,%esp
 1000e3d:	c7 44 24 10 05 00 00 	movl   $0x5,0x10(%esp)
 1000e44:	00 
 1000e45:	8d 44 24 10          	lea    0x10(%esp),%eax
 1000e49:	89 44 24 04          	mov    %eax,0x4(%esp)
 1000e4d:	c7 04 24 00 00 00 00 	movl   $0x0,(%esp)
 1000e54:	e8 b6 1d 00 00       	call   1002c0f <send>
 1000e59:	e8 5d ff ff ff       	call   1000dbb <cursor_init>
 1000e5e:	8b 15 bc 3e 00 01    	mov    0x1003ebc,%edx
 1000e64:	8b 44 24 40          	mov    0x40(%esp),%eax
 1000e68:	89 50 14             	mov    %edx,0x14(%eax)
 1000e6b:	8b 44 24 40          	mov    0x40(%esp),%eax
 1000e6f:	c7 40 18 90 01 00 00 	movl   $0x190,0x18(%eax)
 1000e76:	8b 44 24 40          	mov    0x40(%esp),%eax
 1000e7a:	c7 40 1c 2c 01 00 00 	movl   $0x12c,0x1c(%eax)
 1000e81:	b8 00 00 00 00       	mov    $0x0,%eax
 1000e86:	83 c4 3c             	add    $0x3c,%esp
 1000e89:	c3                   	ret    

01000e8a <mouse_exit>:
 1000e8a:	83 ec 3c             	sub    $0x3c,%esp
 1000e8d:	c7 44 24 10 08 00 00 	movl   $0x8,0x10(%esp)
 1000e94:	00 
 1000e95:	8d 44 24 10          	lea    0x10(%esp),%eax
 1000e99:	89 44 24 04          	mov    %eax,0x4(%esp)
 1000e9d:	c7 04 24 00 00 00 00 	movl   $0x0,(%esp)
 1000ea4:	e8 66 1d 00 00       	call   1002c0f <send>
 1000ea9:	b8 00 00 00 00       	mov    $0x0,%eax
 1000eae:	83 c4 3c             	add    $0x3c,%esp
 1000eb1:	c3                   	ret    
 1000eb2:	90                   	nop
 1000eb3:	90                   	nop

01000eb4 <send_km_copydata>:
 1000eb4:	83 ec 3c             	sub    $0x3c,%esp
 1000eb7:	c7 44 24 10 15 00 00 	movl   $0x15,0x10(%esp)
 1000ebe:	00 
 1000ebf:	8b 44 24 40          	mov    0x40(%esp),%eax
 1000ec3:	89 44 24 18          	mov    %eax,0x18(%esp)
 1000ec7:	8b 44 24 44          	mov    0x44(%esp),%eax
 1000ecb:	89 44 24 1c          	mov    %eax,0x1c(%esp)
 1000ecf:	8b 44 24 48          	mov    0x48(%esp),%eax
 1000ed3:	89 44 24 24          	mov    %eax,0x24(%esp)
 1000ed7:	8b 44 24 4c          	mov    0x4c(%esp),%eax
 1000edb:	89 44 24 28          	mov    %eax,0x28(%esp)
 1000edf:	8d 44 24 10          	lea    0x10(%esp),%eax
 1000ee3:	89 44 24 04          	mov    %eax,0x4(%esp)
 1000ee7:	c7 04 24 00 00 00 00 	movl   $0x0,(%esp)
 1000eee:	e8 1c 1d 00 00       	call   1002c0f <send>
 1000ef3:	83 c4 3c             	add    $0x3c,%esp
 1000ef6:	c3                   	ret    

01000ef7 <send_um_reply>:
 1000ef7:	83 ec 3c             	sub    $0x3c,%esp
 1000efa:	c7 44 24 10 a2 0f 00 	movl   $0xfa2,0x10(%esp)
 1000f01:	00 
 1000f02:	8b 44 24 44          	mov    0x44(%esp),%eax
 1000f06:	89 44 24 18          	mov    %eax,0x18(%esp)
 1000f0a:	8d 44 24 10          	lea    0x10(%esp),%eax
 1000f0e:	89 44 24 04          	mov    %eax,0x4(%esp)
 1000f12:	8b 44 24 40          	mov    0x40(%esp),%eax
 1000f16:	89 04 24             	mov    %eax,(%esp)
 1000f19:	e8 f1 1c 00 00       	call   1002c0f <send>
 1000f1e:	83 c4 3c             	add    $0x3c,%esp
 1000f21:	c3                   	ret    

01000f22 <send_um_reply2>:
 1000f22:	83 ec 3c             	sub    $0x3c,%esp
 1000f25:	c7 44 24 10 a2 0f 00 	movl   $0xfa2,0x10(%esp)
 1000f2c:	00 
 1000f2d:	8b 44 24 44          	mov    0x44(%esp),%eax
 1000f31:	89 44 24 18          	mov    %eax,0x18(%esp)
 1000f35:	8b 44 24 48          	mov    0x48(%esp),%eax
 1000f39:	89 44 24 1c          	mov    %eax,0x1c(%esp)
 1000f3d:	8d 44 24 10          	lea    0x10(%esp),%eax
 1000f41:	89 44 24 04          	mov    %eax,0x4(%esp)
 1000f45:	8b 44 24 40          	mov    0x40(%esp),%eax
 1000f49:	89 04 24             	mov    %eax,(%esp)
 1000f4c:	e8 be 1c 00 00       	call   1002c0f <send>
 1000f51:	83 c4 3c             	add    $0x3c,%esp
 1000f54:	c3                   	ret    

01000f55 <send_um_exit>:
 1000f55:	83 ec 3c             	sub    $0x3c,%esp
 1000f58:	c7 44 24 10 a8 0f 00 	movl   $0xfa8,0x10(%esp)
 1000f5f:	00 
 1000f60:	8b 44 24 40          	mov    0x40(%esp),%eax
 1000f64:	89 44 24 18          	mov    %eax,0x18(%esp)
 1000f68:	8b 44 24 40          	mov    0x40(%esp),%eax
 1000f6c:	8b 40 24             	mov    0x24(%eax),%eax
 1000f6f:	8d 54 24 10          	lea    0x10(%esp),%edx
 1000f73:	89 54 24 04          	mov    %edx,0x4(%esp)
 1000f77:	89 04 24             	mov    %eax,(%esp)
 1000f7a:	e8 90 1c 00 00       	call   1002c0f <send>
 1000f7f:	83 c4 3c             	add    $0x3c,%esp
 1000f82:	c3                   	ret    
 1000f83:	90                   	nop

01000f84 <timer_do_km_timer>:
 1000f84:	c3                   	ret    

01000f85 <timer_init>:
 1000f85:	83 ec 3c             	sub    $0x3c,%esp
 1000f88:	c7 44 24 10 0f 00 00 	movl   $0xf,0x10(%esp)
 1000f8f:	00 
 1000f90:	c7 44 24 18 0a 00 00 	movl   $0xa,0x18(%esp)
 1000f97:	00 
 1000f98:	8d 44 24 10          	lea    0x10(%esp),%eax
 1000f9c:	89 44 24 04          	mov    %eax,0x4(%esp)
 1000fa0:	c7 04 24 00 00 00 00 	movl   $0x0,(%esp)
 1000fa7:	e8 63 1c 00 00       	call   1002c0f <send>
 1000fac:	b8 00 00 00 00       	mov    $0x0,%eax
 1000fb1:	83 c4 3c             	add    $0x3c,%esp
 1000fb4:	c3                   	ret    

01000fb5 <timer_exit>:
 1000fb5:	83 ec 3c             	sub    $0x3c,%esp
 1000fb8:	c7 44 24 10 10 00 00 	movl   $0x10,0x10(%esp)
 1000fbf:	00 
 1000fc0:	8d 44 24 10          	lea    0x10(%esp),%eax
 1000fc4:	89 44 24 04          	mov    %eax,0x4(%esp)
 1000fc8:	c7 04 24 00 00 00 00 	movl   $0x0,(%esp)
 1000fcf:	e8 3b 1c 00 00       	call   1002c0f <send>
 1000fd4:	b8 00 00 00 00       	mov    $0x0,%eax
 1000fd9:	83 c4 3c             	add    $0x3c,%esp
 1000fdc:	c3                   	ret    
 1000fdd:	90                   	nop
 1000fde:	90                   	nop
 1000fdf:	90                   	nop

01000fe0 <send_um_keypress>:
 1000fe0:	83 ec 3c             	sub    $0x3c,%esp
 1000fe3:	c7 44 24 10 a4 0f 00 	movl   $0xfa4,0x10(%esp)
 1000fea:	00 
 1000feb:	8b 44 24 40          	mov    0x40(%esp),%eax
 1000fef:	89 44 24 18          	mov    %eax,0x18(%esp)
 1000ff3:	8b 44 24 44          	mov    0x44(%esp),%eax
 1000ff7:	89 44 24 1c          	mov    %eax,0x1c(%esp)
 1000ffb:	8b 44 24 48          	mov    0x48(%esp),%eax
 1000fff:	89 44 24 20          	mov    %eax,0x20(%esp)
 1001003:	8b 44 24 4c          	mov    0x4c(%esp),%eax
 1001007:	89 44 24 24          	mov    %eax,0x24(%esp)
 100100b:	8b 44 24 40          	mov    0x40(%esp),%eax
 100100f:	8b 40 24             	mov    0x24(%eax),%eax
 1001012:	8d 54 24 10          	lea    0x10(%esp),%edx
 1001016:	89 54 24 04          	mov    %edx,0x4(%esp)
 100101a:	89 04 24             	mov    %eax,(%esp)
 100101d:	e8 ed 1b 00 00       	call   1002c0f <send>
 1001022:	83 c4 3c             	add    $0x3c,%esp
 1001025:	c3                   	ret    

01001026 <send_um_mouseact>:
 1001026:	83 ec 3c             	sub    $0x3c,%esp
 1001029:	c7 44 24 10 a6 0f 00 	movl   $0xfa6,0x10(%esp)
 1001030:	00 
 1001031:	8b 44 24 40          	mov    0x40(%esp),%eax
 1001035:	89 44 24 18          	mov    %eax,0x18(%esp)
 1001039:	8b 44 24 44          	mov    0x44(%esp),%eax
 100103d:	89 44 24 1c          	mov    %eax,0x1c(%esp)
 1001041:	8b 44 24 48          	mov    0x48(%esp),%eax
 1001045:	89 44 24 20          	mov    %eax,0x20(%esp)
 1001049:	8b 44 24 4c          	mov    0x4c(%esp),%eax
 100104d:	89 44 24 24          	mov    %eax,0x24(%esp)
 1001051:	8b 44 24 40          	mov    0x40(%esp),%eax
 1001055:	8b 40 24             	mov    0x24(%eax),%eax
 1001058:	8d 54 24 10          	lea    0x10(%esp),%edx
 100105c:	89 54 24 04          	mov    %edx,0x4(%esp)
 1001060:	89 04 24             	mov    %eax,(%esp)
 1001063:	e8 a7 1b 00 00       	call   1002c0f <send>
 1001068:	83 c4 3c             	add    $0x3c,%esp
 100106b:	c3                   	ret    

0100106c <draw_mouse>:
 100106c:	53                   	push   %ebx
 100106d:	83 ec 28             	sub    $0x28,%esp
 1001070:	8b 44 24 30          	mov    0x30(%esp),%eax
 1001074:	8b 40 1c             	mov    0x1c(%eax),%eax
 1001077:	89 c3                	mov    %eax,%ebx
 1001079:	8b 44 24 30          	mov    0x30(%esp),%eax
 100107d:	8b 40 18             	mov    0x18(%eax),%eax
 1001080:	89 c1                	mov    %eax,%ecx
 1001082:	8b 15 cc 3e 00 01    	mov    0x1003ecc,%edx
 1001088:	8b 44 24 30          	mov    0x30(%esp),%eax
 100108c:	8b 40 14             	mov    0x14(%eax),%eax
 100108f:	c7 44 24 10 ff ff 00 	movl   $0xffff,0x10(%esp)
 1001096:	00 
 1001097:	89 5c 24 0c          	mov    %ebx,0xc(%esp)
 100109b:	89 4c 24 08          	mov    %ecx,0x8(%esp)
 100109f:	89 54 24 04          	mov    %edx,0x4(%esp)
 10010a3:	89 04 24             	mov    %eax,(%esp)
 10010a6:	e8 b0 f4 ff ff       	call   100055b <draw_cursor_mask>
 10010ab:	83 c4 28             	add    $0x28,%esp
 10010ae:	5b                   	pop    %ebx
 10010af:	c3                   	ret    

010010b0 <draw_restore>:
 10010b0:	53                   	push   %ebx
 10010b1:	83 ec 28             	sub    $0x28,%esp
 10010b4:	8b 44 24 30          	mov    0x30(%esp),%eax
 10010b8:	8b 40 1c             	mov    0x1c(%eax),%eax
 10010bb:	89 c3                	mov    %eax,%ebx
 10010bd:	8b 44 24 30          	mov    0x30(%esp),%eax
 10010c1:	8b 40 18             	mov    0x18(%eax),%eax
 10010c4:	89 c1                	mov    %eax,%ecx
 10010c6:	8b 15 cc 3e 00 01    	mov    0x1003ecc,%edx
 10010cc:	8b 44 24 30          	mov    0x30(%esp),%eax
 10010d0:	8b 40 08             	mov    0x8(%eax),%eax
 10010d3:	c7 44 24 14 14 00 00 	movl   $0x14,0x14(%esp)
 10010da:	00 
 10010db:	c7 44 24 10 0c 00 00 	movl   $0xc,0x10(%esp)
 10010e2:	00 
 10010e3:	89 5c 24 0c          	mov    %ebx,0xc(%esp)
 10010e7:	89 4c 24 08          	mov    %ecx,0x8(%esp)
 10010eb:	89 54 24 04          	mov    %edx,0x4(%esp)
 10010ef:	89 04 24             	mov    %eax,(%esp)
 10010f2:	e8 ac f1 ff ff       	call   10002a3 <draw_copy>
 10010f7:	83 c4 28             	add    $0x28,%esp
 10010fa:	5b                   	pop    %ebx
 10010fb:	c3                   	ret    

010010fc <w_redraw>:
 10010fc:	57                   	push   %edi
 10010fd:	56                   	push   %esi
 10010fe:	53                   	push   %ebx
 10010ff:	83 ec 20             	sub    $0x20,%esp
 1001102:	8b 44 24 40          	mov    0x40(%esp),%eax
 1001106:	89 44 24 10          	mov    %eax,0x10(%esp)
 100110a:	8b 44 24 3c          	mov    0x3c(%esp),%eax
 100110e:	89 44 24 0c          	mov    %eax,0xc(%esp)
 1001112:	8b 44 24 38          	mov    0x38(%esp),%eax
 1001116:	89 44 24 08          	mov    %eax,0x8(%esp)
 100111a:	8b 44 24 34          	mov    0x34(%esp),%eax
 100111e:	89 44 24 04          	mov    %eax,0x4(%esp)
 1001122:	8b 44 24 30          	mov    0x30(%esp),%eax
 1001126:	89 04 24             	mov    %eax,(%esp)
 1001129:	e8 14 0b 00 00       	call   1001c42 <__wnd_redraw>
 100112e:	8b 44 24 38          	mov    0x38(%esp),%eax
 1001132:	8b 54 24 40          	mov    0x40(%esp),%edx
 1001136:	89 d1                	mov    %edx,%ecx
 1001138:	29 c1                	sub    %eax,%ecx
 100113a:	89 c8                	mov    %ecx,%eax
 100113c:	89 c7                	mov    %eax,%edi
 100113e:	8b 44 24 34          	mov    0x34(%esp),%eax
 1001142:	8b 54 24 3c          	mov    0x3c(%esp),%edx
 1001146:	89 d1                	mov    %edx,%ecx
 1001148:	29 c1                	sub    %eax,%ecx
 100114a:	89 c8                	mov    %ecx,%eax
 100114c:	89 c6                	mov    %eax,%esi
 100114e:	8b 5c 24 38          	mov    0x38(%esp),%ebx
 1001152:	8b 4c 24 34          	mov    0x34(%esp),%ecx
 1001156:	8b 15 cc 3e 00 01    	mov    0x1003ecc,%edx
 100115c:	8b 44 24 30          	mov    0x30(%esp),%eax
 1001160:	8b 40 08             	mov    0x8(%eax),%eax
 1001163:	89 7c 24 14          	mov    %edi,0x14(%esp)
 1001167:	89 74 24 10          	mov    %esi,0x10(%esp)
 100116b:	89 5c 24 0c          	mov    %ebx,0xc(%esp)
 100116f:	89 4c 24 08          	mov    %ecx,0x8(%esp)
 1001173:	89 54 24 04          	mov    %edx,0x4(%esp)
 1001177:	89 04 24             	mov    %eax,(%esp)
 100117a:	e8 24 f1 ff ff       	call   10002a3 <draw_copy>
 100117f:	8b 44 24 30          	mov    0x30(%esp),%eax
 1001183:	89 04 24             	mov    %eax,(%esp)
 1001186:	e8 e1 fe ff ff       	call   100106c <draw_mouse>
 100118b:	83 c4 20             	add    $0x20,%esp
 100118e:	5b                   	pop    %ebx
 100118f:	5e                   	pop    %esi
 1001190:	5f                   	pop    %edi
 1001191:	c3                   	ret    

01001192 <no_handler>:
 1001192:	83 ec 1c             	sub    $0x1c,%esp
 1001195:	8b 44 24 24          	mov    0x24(%esp),%eax
 1001199:	8b 00                	mov    (%eax),%eax
 100119b:	89 44 24 04          	mov    %eax,0x4(%esp)
 100119f:	c7 04 24 d4 3e 00 01 	movl   $0x1003ed4,(%esp)
 10011a6:	e8 75 1c 00 00       	call   1002e20 <printf>
 10011ab:	b8 01 00 00 00       	mov    $0x1,%eax
 10011b0:	83 c4 1c             	add    $0x1c,%esp
 10011b3:	c3                   	ret    

010011b4 <do_km_keypress>:
 10011b4:	53                   	push   %ebx
 10011b5:	83 ec 28             	sub    $0x28,%esp
 10011b8:	8b 44 24 34          	mov    0x34(%esp),%eax
 10011bc:	89 44 24 04          	mov    %eax,0x4(%esp)
 10011c0:	8b 44 24 30          	mov    0x30(%esp),%eax
 10011c4:	89 04 24             	mov    %eax,(%esp)
 10011c7:	e8 94 fa ff ff       	call   1000c60 <kb_do_km_keypress>
 10011cc:	8b 44 24 30          	mov    0x30(%esp),%eax
 10011d0:	8b 40 04             	mov    0x4(%eax),%eax
 10011d3:	85 c0                	test   %eax,%eax
 10011d5:	74 32                	je     1001209 <do_km_keypress+0x55>
 10011d7:	8b 44 24 34          	mov    0x34(%esp),%eax
 10011db:	8b 58 10             	mov    0x10(%eax),%ebx
 10011de:	8b 44 24 34          	mov    0x34(%esp),%eax
 10011e2:	8b 48 0c             	mov    0xc(%eax),%ecx
 10011e5:	8b 44 24 34          	mov    0x34(%esp),%eax
 10011e9:	8b 50 08             	mov    0x8(%eax),%edx
 10011ec:	8b 44 24 30          	mov    0x30(%esp),%eax
 10011f0:	8b 40 04             	mov    0x4(%eax),%eax
 10011f3:	89 5c 24 0c          	mov    %ebx,0xc(%esp)
 10011f7:	89 4c 24 08          	mov    %ecx,0x8(%esp)
 10011fb:	89 54 24 04          	mov    %edx,0x4(%esp)
 10011ff:	89 04 24             	mov    %eax,(%esp)
 1001202:	e8 d9 fd ff ff       	call   1000fe0 <send_um_keypress>
 1001207:	eb 59                	jmp    1001262 <do_km_keypress+0xae>
 1001209:	8b 44 24 30          	mov    0x30(%esp),%eax
 100120d:	8b 40 0c             	mov    0xc(%eax),%eax
 1001210:	83 f8 66             	cmp    $0x66,%eax
 1001213:	75 3a                	jne    100124f <do_km_keypress+0x9b>
 1001215:	8b 44 24 30          	mov    0x30(%esp),%eax
 1001219:	8b 40 08             	mov    0x8(%eax),%eax
 100121c:	8b 50 08             	mov    0x8(%eax),%edx
 100121f:	8b 44 24 30          	mov    0x30(%esp),%eax
 1001223:	8b 40 08             	mov    0x8(%eax),%eax
 1001226:	8b 40 04             	mov    0x4(%eax),%eax
 1001229:	89 54 24 10          	mov    %edx,0x10(%esp)
 100122d:	89 44 24 0c          	mov    %eax,0xc(%esp)
 1001231:	c7 44 24 08 00 00 00 	movl   $0x0,0x8(%esp)
 1001238:	00 
 1001239:	c7 44 24 04 00 00 00 	movl   $0x0,0x4(%esp)
 1001240:	00 
 1001241:	8b 44 24 30          	mov    0x30(%esp),%eax
 1001245:	89 04 24             	mov    %eax,(%esp)
 1001248:	e8 af fe ff ff       	call   10010fc <w_redraw>
 100124d:	eb 13                	jmp    1001262 <do_km_keypress+0xae>
 100124f:	8b 44 24 30          	mov    0x30(%esp),%eax
 1001253:	8b 40 0c             	mov    0xc(%eax),%eax
 1001256:	83 f8 71             	cmp    $0x71,%eax
 1001259:	75 07                	jne    1001262 <do_km_keypress+0xae>
 100125b:	b8 01 00 00 00       	mov    $0x1,%eax
 1001260:	eb 05                	jmp    1001267 <do_km_keypress+0xb3>
 1001262:	b8 00 00 00 00       	mov    $0x0,%eax
 1001267:	83 c4 28             	add    $0x28,%esp
 100126a:	5b                   	pop    %ebx
 100126b:	c3                   	ret    

0100126c <do_km_mouseact>:
 100126c:	53                   	push   %ebx
 100126d:	83 ec 28             	sub    $0x28,%esp
 1001270:	8b 44 24 30          	mov    0x30(%esp),%eax
 1001274:	89 04 24             	mov    %eax,(%esp)
 1001277:	e8 34 fe ff ff       	call   10010b0 <draw_restore>
 100127c:	8b 44 24 34          	mov    0x34(%esp),%eax
 1001280:	89 44 24 04          	mov    %eax,0x4(%esp)
 1001284:	8b 44 24 30          	mov    0x30(%esp),%eax
 1001288:	89 04 24             	mov    %eax,(%esp)
 100128b:	e8 4c fa ff ff       	call   1000cdc <mouse_do_km_mouseact>
 1001290:	8b 44 24 30          	mov    0x30(%esp),%eax
 1001294:	89 04 24             	mov    %eax,(%esp)
 1001297:	e8 d0 fd ff ff       	call   100106c <draw_mouse>
 100129c:	8b 44 24 30          	mov    0x30(%esp),%eax
 10012a0:	89 04 24             	mov    %eax,(%esp)
 10012a3:	e8 98 0e 00 00       	call   1002140 <wnd_reset_hwnd>
 10012a8:	c7 44 24 10 40 02 00 	movl   $0x240,0x10(%esp)
 10012af:	00 
 10012b0:	c7 44 24 0c 1f 03 00 	movl   $0x31f,0xc(%esp)
 10012b7:	00 
 10012b8:	c7 44 24 08 30 02 00 	movl   $0x230,0x8(%esp)
 10012bf:	00 
 10012c0:	c7 44 24 04 00 00 00 	movl   $0x0,0x4(%esp)
 10012c7:	00 
 10012c8:	8b 44 24 30          	mov    0x30(%esp),%eax
 10012cc:	89 04 24             	mov    %eax,(%esp)
 10012cf:	e8 28 fe ff ff       	call   10010fc <w_redraw>
 10012d4:	8b 44 24 30          	mov    0x30(%esp),%eax
 10012d8:	8b 40 04             	mov    0x4(%eax),%eax
 10012db:	85 c0                	test   %eax,%eax
 10012dd:	74 7e                	je     100135d <do_km_mouseact+0xf1>
 10012df:	8b 44 24 30          	mov    0x30(%esp),%eax
 10012e3:	8b 40 04             	mov    0x4(%eax),%eax
 10012e6:	89 c2                	mov    %eax,%edx
 10012e8:	a1 cc 3e 00 01       	mov    0x1003ecc,%eax
 10012ed:	c7 44 24 10 00 00 00 	movl   $0x0,0x10(%esp)
 10012f4:	00 
 10012f5:	89 54 24 0c          	mov    %edx,0xc(%esp)
 10012f9:	c7 44 24 08 30 02 00 	movl   $0x230,0x8(%esp)
 1001300:	00 
 1001301:	c7 44 24 04 00 00 00 	movl   $0x0,0x4(%esp)
 1001308:	00 
 1001309:	89 04 24             	mov    %eax,(%esp)
 100130c:	e8 24 f5 ff ff       	call   1000835 <draw_string>
 1001311:	8b 44 24 34          	mov    0x34(%esp),%eax
 1001315:	8b 50 10             	mov    0x10(%eax),%edx
 1001318:	8b 44 24 30          	mov    0x30(%esp),%eax
 100131c:	8b 48 1c             	mov    0x1c(%eax),%ecx
 100131f:	8b 44 24 30          	mov    0x30(%esp),%eax
 1001323:	8b 40 04             	mov    0x4(%eax),%eax
 1001326:	8b 40 18             	mov    0x18(%eax),%eax
 1001329:	89 cb                	mov    %ecx,%ebx
 100132b:	29 c3                	sub    %eax,%ebx
 100132d:	8b 44 24 30          	mov    0x30(%esp),%eax
 1001331:	8b 48 18             	mov    0x18(%eax),%ecx
 1001334:	8b 44 24 30          	mov    0x30(%esp),%eax
 1001338:	8b 40 04             	mov    0x4(%eax),%eax
 100133b:	8b 40 14             	mov    0x14(%eax),%eax
 100133e:	29 c1                	sub    %eax,%ecx
 1001340:	8b 44 24 30          	mov    0x30(%esp),%eax
 1001344:	8b 40 04             	mov    0x4(%eax),%eax
 1001347:	89 54 24 0c          	mov    %edx,0xc(%esp)
 100134b:	89 5c 24 08          	mov    %ebx,0x8(%esp)
 100134f:	89 4c 24 04          	mov    %ecx,0x4(%esp)
 1001353:	89 04 24             	mov    %eax,(%esp)
 1001356:	e8 cb fc ff ff       	call   1001026 <send_um_mouseact>
 100135b:	eb 2d                	jmp    100138a <do_km_mouseact+0x11e>
 100135d:	a1 cc 3e 00 01       	mov    0x1003ecc,%eax
 1001362:	c7 44 24 10 00 00 00 	movl   $0x0,0x10(%esp)
 1001369:	00 
 100136a:	c7 44 24 0c ef 3e 00 	movl   $0x1003eef,0xc(%esp)
 1001371:	01 
 1001372:	c7 44 24 08 30 02 00 	movl   $0x230,0x8(%esp)
 1001379:	00 
 100137a:	c7 44 24 04 00 00 00 	movl   $0x0,0x4(%esp)
 1001381:	00 
 1001382:	89 04 24             	mov    %eax,(%esp)
 1001385:	e8 ab f4 ff ff       	call   1000835 <draw_string>
 100138a:	8b 44 24 30          	mov    0x30(%esp),%eax
 100138e:	8b 40 20             	mov    0x20(%eax),%eax
 1001391:	83 e0 01             	and    $0x1,%eax
 1001394:	84 c0                	test   %al,%al
 1001396:	0f 84 82 00 00 00    	je     100141e <do_km_mouseact+0x1b2>
 100139c:	8b 44 24 30          	mov    0x30(%esp),%eax
 10013a0:	8b 40 2c             	mov    0x2c(%eax),%eax
 10013a3:	83 e0 01             	and    $0x1,%eax
 10013a6:	85 c0                	test   %eax,%eax
 10013a8:	0f 85 89 00 00 00    	jne    1001437 <do_km_mouseact+0x1cb>
 10013ae:	8b 44 24 30          	mov    0x30(%esp),%eax
 10013b2:	8b 40 04             	mov    0x4(%eax),%eax
 10013b5:	89 44 24 04          	mov    %eax,0x4(%esp)
 10013b9:	8b 44 24 30          	mov    0x30(%esp),%eax
 10013bd:	89 04 24             	mov    %eax,(%esp)
 10013c0:	e8 e2 0c 00 00       	call   10020a7 <wnd_set_top>
 10013c5:	8b 44 24 30          	mov    0x30(%esp),%eax
 10013c9:	8b 50 18             	mov    0x18(%eax),%edx
 10013cc:	8b 44 24 30          	mov    0x30(%esp),%eax
 10013d0:	89 50 30             	mov    %edx,0x30(%eax)
 10013d3:	8b 44 24 30          	mov    0x30(%esp),%eax
 10013d7:	8b 50 1c             	mov    0x1c(%eax),%edx
 10013da:	8b 44 24 30          	mov    0x30(%esp),%eax
 10013de:	89 50 34             	mov    %edx,0x34(%eax)
 10013e1:	8b 44 24 30          	mov    0x30(%esp),%eax
 10013e5:	8b 50 04             	mov    0x4(%eax),%edx
 10013e8:	8b 44 24 30          	mov    0x30(%esp),%eax
 10013ec:	89 50 38             	mov    %edx,0x38(%eax)
 10013ef:	8b 44 24 30          	mov    0x30(%esp),%eax
 10013f3:	8b 40 04             	mov    0x4(%eax),%eax
 10013f6:	85 c0                	test   %eax,%eax
 10013f8:	74 3d                	je     1001437 <do_km_mouseact+0x1cb>
 10013fa:	8b 44 24 30          	mov    0x30(%esp),%eax
 10013fe:	8b 40 04             	mov    0x4(%eax),%eax
 1001401:	8b 50 14             	mov    0x14(%eax),%edx
 1001404:	8b 44 24 30          	mov    0x30(%esp),%eax
 1001408:	89 50 3c             	mov    %edx,0x3c(%eax)
 100140b:	8b 44 24 30          	mov    0x30(%esp),%eax
 100140f:	8b 40 04             	mov    0x4(%eax),%eax
 1001412:	8b 50 18             	mov    0x18(%eax),%edx
 1001415:	8b 44 24 30          	mov    0x30(%esp),%eax
 1001419:	89 50 40             	mov    %edx,0x40(%eax)
 100141c:	eb 19                	jmp    1001437 <do_km_mouseact+0x1cb>
 100141e:	8b 44 24 30          	mov    0x30(%esp),%eax
 1001422:	8b 40 2c             	mov    0x2c(%eax),%eax
 1001425:	83 e0 01             	and    $0x1,%eax
 1001428:	84 c0                	test   %al,%al
 100142a:	74 0b                	je     1001437 <do_km_mouseact+0x1cb>
 100142c:	8b 44 24 30          	mov    0x30(%esp),%eax
 1001430:	c7 40 38 00 00 00 00 	movl   $0x0,0x38(%eax)
 1001437:	b8 00 00 00 00       	mov    $0x0,%eax
 100143c:	83 c4 28             	add    $0x28,%esp
 100143f:	5b                   	pop    %ebx
 1001440:	c3                   	ret    

01001441 <do_km_timer>:
 1001441:	83 ec 6c             	sub    $0x6c,%esp
 1001444:	8b 44 24 74          	mov    0x74(%esp),%eax
 1001448:	89 44 24 04          	mov    %eax,0x4(%esp)
 100144c:	8b 44 24 70          	mov    0x70(%esp),%eax
 1001450:	89 04 24             	mov    %eax,(%esp)
 1001453:	e8 2c fb ff ff       	call   1000f84 <timer_do_km_timer>
 1001458:	8b 44 24 70          	mov    0x70(%esp),%eax
 100145c:	8b 00                	mov    (%eax),%eax
 100145e:	89 44 24 5c          	mov    %eax,0x5c(%esp)
 1001462:	eb 43                	jmp    10014a7 <do_km_timer+0x66>
 1001464:	8b 44 24 5c          	mov    0x5c(%esp),%eax
 1001468:	8b 40 10             	mov    0x10(%eax),%eax
 100146b:	83 f8 01             	cmp    $0x1,%eax
 100146e:	75 32                	jne    10014a2 <do_km_timer+0x61>
 1001470:	8b 44 24 5c          	mov    0x5c(%esp),%eax
 1001474:	8b 40 28             	mov    0x28(%eax),%eax
 1001477:	85 c0                	test   %eax,%eax
 1001479:	74 27                	je     10014a2 <do_km_timer+0x61>
 100147b:	c7 44 24 20 ab 0f 00 	movl   $0xfab,0x20(%esp)
 1001482:	00 
 1001483:	8b 44 24 5c          	mov    0x5c(%esp),%eax
 1001487:	89 44 24 28          	mov    %eax,0x28(%esp)
 100148b:	8b 44 24 5c          	mov    0x5c(%esp),%eax
 100148f:	8b 40 24             	mov    0x24(%eax),%eax
 1001492:	8d 54 24 20          	lea    0x20(%esp),%edx
 1001496:	89 54 24 04          	mov    %edx,0x4(%esp)
 100149a:	89 04 24             	mov    %eax,(%esp)
 100149d:	e8 6d 17 00 00       	call   1002c0f <send>
 10014a2:	83 44 24 5c 48       	addl   $0x48,0x5c(%esp)
 10014a7:	8b 44 24 70          	mov    0x70(%esp),%eax
 10014ab:	8b 00                	mov    (%eax),%eax
 10014ad:	05 40 02 00 00       	add    $0x240,%eax
 10014b2:	3b 44 24 5c          	cmp    0x5c(%esp),%eax
 10014b6:	77 ac                	ja     1001464 <do_km_timer+0x23>
 10014b8:	8b 44 24 70          	mov    0x70(%esp),%eax
 10014bc:	8b 40 38             	mov    0x38(%eax),%eax
 10014bf:	85 c0                	test   %eax,%eax
 10014c1:	0f 84 b1 01 00 00    	je     1001678 <do_km_timer+0x237>
 10014c7:	8b 44 24 70          	mov    0x70(%esp),%eax
 10014cb:	8b 40 20             	mov    0x20(%eax),%eax
 10014ce:	83 e0 01             	and    $0x1,%eax
 10014d1:	84 c0                	test   %al,%al
 10014d3:	0f 84 9f 01 00 00    	je     1001678 <do_km_timer+0x237>
 10014d9:	8b 44 24 70          	mov    0x70(%esp),%eax
 10014dd:	8b 40 10             	mov    0x10(%eax),%eax
 10014e0:	83 e0 04             	and    $0x4,%eax
 10014e3:	85 c0                	test   %eax,%eax
 10014e5:	0f 84 8d 01 00 00    	je     1001678 <do_km_timer+0x237>
 10014eb:	8b 44 24 70          	mov    0x70(%esp),%eax
 10014ef:	8b 40 38             	mov    0x38(%eax),%eax
 10014f2:	89 44 24 58          	mov    %eax,0x58(%esp)
 10014f6:	8b 44 24 58          	mov    0x58(%esp),%eax
 10014fa:	8b 40 14             	mov    0x14(%eax),%eax
 10014fd:	89 44 24 54          	mov    %eax,0x54(%esp)
 1001501:	8b 44 24 58          	mov    0x58(%esp),%eax
 1001505:	8b 40 18             	mov    0x18(%eax),%eax
 1001508:	89 44 24 50          	mov    %eax,0x50(%esp)
 100150c:	8b 44 24 70          	mov    0x70(%esp),%eax
 1001510:	8b 50 18             	mov    0x18(%eax),%edx
 1001513:	8b 44 24 70          	mov    0x70(%esp),%eax
 1001517:	8b 40 30             	mov    0x30(%eax),%eax
 100151a:	29 c2                	sub    %eax,%edx
 100151c:	8b 44 24 58          	mov    0x58(%esp),%eax
 1001520:	89 50 14             	mov    %edx,0x14(%eax)
 1001523:	8b 44 24 58          	mov    0x58(%esp),%eax
 1001527:	8b 50 14             	mov    0x14(%eax),%edx
 100152a:	8b 44 24 70          	mov    0x70(%esp),%eax
 100152e:	8b 40 3c             	mov    0x3c(%eax),%eax
 1001531:	01 c2                	add    %eax,%edx
 1001533:	8b 44 24 58          	mov    0x58(%esp),%eax
 1001537:	89 50 14             	mov    %edx,0x14(%eax)
 100153a:	8b 44 24 70          	mov    0x70(%esp),%eax
 100153e:	8b 50 1c             	mov    0x1c(%eax),%edx
 1001541:	8b 44 24 70          	mov    0x70(%esp),%eax
 1001545:	8b 40 34             	mov    0x34(%eax),%eax
 1001548:	29 c2                	sub    %eax,%edx
 100154a:	8b 44 24 58          	mov    0x58(%esp),%eax
 100154e:	89 50 18             	mov    %edx,0x18(%eax)
 1001551:	8b 44 24 58          	mov    0x58(%esp),%eax
 1001555:	8b 50 18             	mov    0x18(%eax),%edx
 1001558:	8b 44 24 70          	mov    0x70(%esp),%eax
 100155c:	8b 40 40             	mov    0x40(%eax),%eax
 100155f:	01 c2                	add    %eax,%edx
 1001561:	8b 44 24 58          	mov    0x58(%esp),%eax
 1001565:	89 50 18             	mov    %edx,0x18(%eax)
 1001568:	8b 44 24 58          	mov    0x58(%esp),%eax
 100156c:	8b 40 14             	mov    0x14(%eax),%eax
 100156f:	85 c0                	test   %eax,%eax
 1001571:	79 0b                	jns    100157e <do_km_timer+0x13d>
 1001573:	8b 44 24 58          	mov    0x58(%esp),%eax
 1001577:	c7 40 14 00 00 00 00 	movl   $0x0,0x14(%eax)
 100157e:	8b 44 24 58          	mov    0x58(%esp),%eax
 1001582:	8b 40 18             	mov    0x18(%eax),%eax
 1001585:	85 c0                	test   %eax,%eax
 1001587:	79 0b                	jns    1001594 <do_km_timer+0x153>
 1001589:	8b 44 24 58          	mov    0x58(%esp),%eax
 100158d:	c7 40 18 00 00 00 00 	movl   $0x0,0x18(%eax)
 1001594:	8b 44 24 58          	mov    0x58(%esp),%eax
 1001598:	8b 50 14             	mov    0x14(%eax),%edx
 100159b:	8b 44 24 70          	mov    0x70(%esp),%eax
 100159f:	8b 40 08             	mov    0x8(%eax),%eax
 10015a2:	8b 40 04             	mov    0x4(%eax),%eax
 10015a5:	39 c2                	cmp    %eax,%edx
 10015a7:	7c 14                	jl     10015bd <do_km_timer+0x17c>
 10015a9:	8b 44 24 70          	mov    0x70(%esp),%eax
 10015ad:	8b 40 08             	mov    0x8(%eax),%eax
 10015b0:	8b 40 04             	mov    0x4(%eax),%eax
 10015b3:	8d 50 ff             	lea    -0x1(%eax),%edx
 10015b6:	8b 44 24 58          	mov    0x58(%esp),%eax
 10015ba:	89 50 14             	mov    %edx,0x14(%eax)
 10015bd:	8b 44 24 58          	mov    0x58(%esp),%eax
 10015c1:	8b 50 18             	mov    0x18(%eax),%edx
 10015c4:	8b 44 24 70          	mov    0x70(%esp),%eax
 10015c8:	8b 40 08             	mov    0x8(%eax),%eax
 10015cb:	8b 40 08             	mov    0x8(%eax),%eax
 10015ce:	39 c2                	cmp    %eax,%edx
 10015d0:	7c 14                	jl     10015e6 <do_km_timer+0x1a5>
 10015d2:	8b 44 24 70          	mov    0x70(%esp),%eax
 10015d6:	8b 40 08             	mov    0x8(%eax),%eax
 10015d9:	8b 40 08             	mov    0x8(%eax),%eax
 10015dc:	8d 50 ff             	lea    -0x1(%eax),%edx
 10015df:	8b 44 24 58          	mov    0x58(%esp),%eax
 10015e3:	89 50 18             	mov    %edx,0x18(%eax)
 10015e6:	8b 44 24 58          	mov    0x58(%esp),%eax
 10015ea:	8b 40 14             	mov    0x14(%eax),%eax
 10015ed:	8b 54 24 54          	mov    0x54(%esp),%edx
 10015f1:	39 d0                	cmp    %edx,%eax
 10015f3:	7e 02                	jle    10015f7 <do_km_timer+0x1b6>
 10015f5:	89 d0                	mov    %edx,%eax
 10015f7:	89 44 24 4c          	mov    %eax,0x4c(%esp)
 10015fb:	8b 44 24 58          	mov    0x58(%esp),%eax
 10015ff:	8b 40 18             	mov    0x18(%eax),%eax
 1001602:	8b 54 24 50          	mov    0x50(%esp),%edx
 1001606:	39 d0                	cmp    %edx,%eax
 1001608:	7e 02                	jle    100160c <do_km_timer+0x1cb>
 100160a:	89 d0                	mov    %edx,%eax
 100160c:	89 44 24 48          	mov    %eax,0x48(%esp)
 1001610:	8b 44 24 58          	mov    0x58(%esp),%eax
 1001614:	8b 40 14             	mov    0x14(%eax),%eax
 1001617:	8b 54 24 54          	mov    0x54(%esp),%edx
 100161b:	39 d0                	cmp    %edx,%eax
 100161d:	7d 02                	jge    1001621 <do_km_timer+0x1e0>
 100161f:	89 d0                	mov    %edx,%eax
 1001621:	8b 54 24 58          	mov    0x58(%esp),%edx
 1001625:	8b 52 1c             	mov    0x1c(%edx),%edx
 1001628:	01 d0                	add    %edx,%eax
 100162a:	89 44 24 44          	mov    %eax,0x44(%esp)
 100162e:	8b 44 24 58          	mov    0x58(%esp),%eax
 1001632:	8b 40 18             	mov    0x18(%eax),%eax
 1001635:	8b 54 24 50          	mov    0x50(%esp),%edx
 1001639:	39 d0                	cmp    %edx,%eax
 100163b:	7d 02                	jge    100163f <do_km_timer+0x1fe>
 100163d:	89 d0                	mov    %edx,%eax
 100163f:	8b 54 24 58          	mov    0x58(%esp),%edx
 1001643:	8b 52 20             	mov    0x20(%edx),%edx
 1001646:	01 d0                	add    %edx,%eax
 1001648:	89 44 24 40          	mov    %eax,0x40(%esp)
 100164c:	8b 44 24 40          	mov    0x40(%esp),%eax
 1001650:	89 44 24 10          	mov    %eax,0x10(%esp)
 1001654:	8b 44 24 44          	mov    0x44(%esp),%eax
 1001658:	89 44 24 0c          	mov    %eax,0xc(%esp)
 100165c:	8b 44 24 48          	mov    0x48(%esp),%eax
 1001660:	89 44 24 08          	mov    %eax,0x8(%esp)
 1001664:	8b 44 24 4c          	mov    0x4c(%esp),%eax
 1001668:	89 44 24 04          	mov    %eax,0x4(%esp)
 100166c:	8b 44 24 70          	mov    0x70(%esp),%eax
 1001670:	89 04 24             	mov    %eax,(%esp)
 1001673:	e8 84 fa ff ff       	call   10010fc <w_redraw>
 1001678:	b8 00 00 00 00       	mov    $0x0,%eax
 100167d:	83 c4 6c             	add    $0x6c,%esp
 1001680:	c3                   	ret    

01001681 <do_wm_window_create>:
 1001681:	57                   	push   %edi
 1001682:	56                   	push   %esi
 1001683:	53                   	push   %ebx
 1001684:	83 ec 50             	sub    $0x50,%esp
 1001687:	8b 44 24 64          	mov    0x64(%esp),%eax
 100168b:	8b 40 14             	mov    0x14(%eax),%eax
 100168e:	89 c1                	mov    %eax,%ecx
 1001690:	8b 44 24 64          	mov    0x64(%esp),%eax
 1001694:	8b 50 04             	mov    0x4(%eax),%edx
 1001697:	8b 44 24 64          	mov    0x64(%esp),%eax
 100169b:	8b 40 18             	mov    0x18(%eax),%eax
 100169e:	8d 5c 24 2c          	lea    0x2c(%esp),%ebx
 10016a2:	89 5c 24 0c          	mov    %ebx,0xc(%esp)
 10016a6:	89 4c 24 08          	mov    %ecx,0x8(%esp)
 10016aa:	89 54 24 04          	mov    %edx,0x4(%esp)
 10016ae:	89 04 24             	mov    %eax,(%esp)
 10016b1:	e8 fe f7 ff ff       	call   1000eb4 <send_km_copydata>
 10016b6:	8b 44 24 64          	mov    0x64(%esp),%eax
 10016ba:	8b 40 10             	mov    0x10(%eax),%eax
 10016bd:	0f b7 f8             	movzwl %ax,%edi
 10016c0:	8b 44 24 64          	mov    0x64(%esp),%eax
 10016c4:	8b 40 10             	mov    0x10(%eax),%eax
 10016c7:	c1 e8 10             	shr    $0x10,%eax
 10016ca:	89 c3                	mov    %eax,%ebx
 10016cc:	8b 44 24 64          	mov    0x64(%esp),%eax
 10016d0:	8b 40 0c             	mov    0xc(%eax),%eax
 10016d3:	0f b7 f0             	movzwl %ax,%esi
 10016d6:	8b 44 24 64          	mov    0x64(%esp),%eax
 10016da:	8b 40 0c             	mov    0xc(%eax),%eax
 10016dd:	c1 e8 10             	shr    $0x10,%eax
 10016e0:	89 c1                	mov    %eax,%ecx
 10016e2:	8b 44 24 64          	mov    0x64(%esp),%eax
 10016e6:	8b 40 08             	mov    0x8(%eax),%eax
 10016e9:	89 c2                	mov    %eax,%edx
 10016eb:	8b 44 24 64          	mov    0x64(%esp),%eax
 10016ef:	8b 40 04             	mov    0x4(%eax),%eax
 10016f2:	89 7c 24 1c          	mov    %edi,0x1c(%esp)
 10016f6:	89 5c 24 18          	mov    %ebx,0x18(%esp)
 10016fa:	89 74 24 14          	mov    %esi,0x14(%esp)
 10016fe:	89 4c 24 10          	mov    %ecx,0x10(%esp)
 1001702:	8d 4c 24 2c          	lea    0x2c(%esp),%ecx
 1001706:	89 4c 24 0c          	mov    %ecx,0xc(%esp)
 100170a:	89 54 24 08          	mov    %edx,0x8(%esp)
 100170e:	89 44 24 04          	mov    %eax,0x4(%esp)
 1001712:	8b 44 24 60          	mov    0x60(%esp),%eax
 1001716:	89 04 24             	mov    %eax,(%esp)
 1001719:	e8 38 07 00 00       	call   1001e56 <wnd_create>
 100171e:	89 44 24 4c          	mov    %eax,0x4c(%esp)
 1001722:	8b 44 24 60          	mov    0x60(%esp),%eax
 1001726:	8b 00                	mov    (%eax),%eax
 1001728:	8b 54 24 4c          	mov    0x4c(%esp),%edx
 100172c:	89 d1                	mov    %edx,%ecx
 100172e:	29 c1                	sub    %eax,%ecx
 1001730:	89 c8                	mov    %ecx,%eax
 1001732:	c1 f8 03             	sar    $0x3,%eax
 1001735:	69 c0 39 8e e3 38    	imul   $0x38e38e39,%eax,%eax
 100173b:	8d 90 00 11 00 00    	lea    0x1100(%eax),%edx
 1001741:	8b 44 24 64          	mov    0x64(%esp),%eax
 1001745:	8b 40 04             	mov    0x4(%eax),%eax
 1001748:	89 54 24 08          	mov    %edx,0x8(%esp)
 100174c:	8b 54 24 4c          	mov    0x4c(%esp),%edx
 1001750:	89 54 24 04          	mov    %edx,0x4(%esp)
 1001754:	89 04 24             	mov    %eax,(%esp)
 1001757:	e8 c6 f7 ff ff       	call   1000f22 <send_um_reply2>
 100175c:	8b 44 24 60          	mov    0x60(%esp),%eax
 1001760:	8b 50 1c             	mov    0x1c(%eax),%edx
 1001763:	8b 44 24 60          	mov    0x60(%esp),%eax
 1001767:	8b 40 18             	mov    0x18(%eax),%eax
 100176a:	89 54 24 04          	mov    %edx,0x4(%esp)
 100176e:	89 04 24             	mov    %eax,(%esp)
 1001771:	e8 49 08 00 00       	call   1001fbf <wnd_in_area>
 1001776:	8b 54 24 60          	mov    0x60(%esp),%edx
 100177a:	89 42 04             	mov    %eax,0x4(%edx)
 100177d:	b8 00 00 00 00       	mov    $0x0,%eax
 1001782:	83 c4 50             	add    $0x50,%esp
 1001785:	5b                   	pop    %ebx
 1001786:	5e                   	pop    %esi
 1001787:	5f                   	pop    %edi
 1001788:	c3                   	ret    

01001789 <do_wm_window_destroy>:
 1001789:	83 ec 2c             	sub    $0x2c,%esp
 100178c:	8b 44 24 34          	mov    0x34(%esp),%eax
 1001790:	8b 40 08             	mov    0x8(%eax),%eax
 1001793:	89 44 24 04          	mov    %eax,0x4(%esp)
 1001797:	8b 44 24 30          	mov    0x30(%esp),%eax
 100179b:	89 04 24             	mov    %eax,(%esp)
 100179e:	e8 0d 06 00 00       	call   1001db0 <wnd_destroy>
 10017a3:	89 44 24 1c          	mov    %eax,0x1c(%esp)
 10017a7:	8b 44 24 34          	mov    0x34(%esp),%eax
 10017ab:	8b 40 04             	mov    0x4(%eax),%eax
 10017ae:	8b 54 24 1c          	mov    0x1c(%esp),%edx
 10017b2:	89 54 24 04          	mov    %edx,0x4(%esp)
 10017b6:	89 04 24             	mov    %eax,(%esp)
 10017b9:	e8 39 f7 ff ff       	call   1000ef7 <send_um_reply>
 10017be:	b8 00 00 00 00       	mov    $0x0,%eax
 10017c3:	83 c4 2c             	add    $0x2c,%esp
 10017c6:	c3                   	ret    

010017c7 <do_wm_window_refresh>:
 10017c7:	53                   	push   %ebx
 10017c8:	83 ec 48             	sub    $0x48,%esp
 10017cb:	8b 44 24 54          	mov    0x54(%esp),%eax
 10017cf:	8b 40 08             	mov    0x8(%eax),%eax
 10017d2:	89 44 24 34          	mov    %eax,0x34(%esp)
 10017d6:	8b 44 24 54          	mov    0x54(%esp),%eax
 10017da:	8b 40 10             	mov    0x10(%eax),%eax
 10017dd:	89 44 24 30          	mov    %eax,0x30(%esp)
 10017e1:	8b 44 24 54          	mov    0x54(%esp),%eax
 10017e5:	8b 40 14             	mov    0x14(%eax),%eax
 10017e8:	89 44 24 2c          	mov    %eax,0x2c(%esp)
 10017ec:	8b 44 24 30          	mov    0x30(%esp),%eax
 10017f0:	c1 e8 10             	shr    $0x10,%eax
 10017f3:	89 44 24 28          	mov    %eax,0x28(%esp)
 10017f7:	8b 44 24 30          	mov    0x30(%esp),%eax
 10017fb:	25 ff ff 00 00       	and    $0xffff,%eax
 1001800:	89 44 24 24          	mov    %eax,0x24(%esp)
 1001804:	8b 44 24 2c          	mov    0x2c(%esp),%eax
 1001808:	c1 e8 10             	shr    $0x10,%eax
 100180b:	89 44 24 3c          	mov    %eax,0x3c(%esp)
 100180f:	8b 44 24 2c          	mov    0x2c(%esp),%eax
 1001813:	25 ff ff 00 00       	and    $0xffff,%eax
 1001818:	89 44 24 38          	mov    %eax,0x38(%esp)
 100181c:	8b 44 24 34          	mov    0x34(%esp),%eax
 1001820:	8b 40 1c             	mov    0x1c(%eax),%eax
 1001823:	3b 44 24 3c          	cmp    0x3c(%esp),%eax
 1001827:	7d 0b                	jge    1001834 <do_wm_window_refresh+0x6d>
 1001829:	8b 44 24 34          	mov    0x34(%esp),%eax
 100182d:	8b 40 1c             	mov    0x1c(%eax),%eax
 1001830:	89 44 24 3c          	mov    %eax,0x3c(%esp)
 1001834:	8b 44 24 34          	mov    0x34(%esp),%eax
 1001838:	8b 40 20             	mov    0x20(%eax),%eax
 100183b:	3b 44 24 38          	cmp    0x38(%esp),%eax
 100183f:	7d 0b                	jge    100184c <do_wm_window_refresh+0x85>
 1001841:	8b 44 24 34          	mov    0x34(%esp),%eax
 1001845:	8b 40 20             	mov    0x20(%eax),%eax
 1001848:	89 44 24 38          	mov    %eax,0x38(%esp)
 100184c:	8b 44 24 34          	mov    0x34(%esp),%eax
 1001850:	8b 40 18             	mov    0x18(%eax),%eax
 1001853:	03 44 24 24          	add    0x24(%esp),%eax
 1001857:	89 c3                	mov    %eax,%ebx
 1001859:	03 5c 24 38          	add    0x38(%esp),%ebx
 100185d:	8b 44 24 34          	mov    0x34(%esp),%eax
 1001861:	8b 40 14             	mov    0x14(%eax),%eax
 1001864:	03 44 24 28          	add    0x28(%esp),%eax
 1001868:	89 c1                	mov    %eax,%ecx
 100186a:	03 4c 24 3c          	add    0x3c(%esp),%ecx
 100186e:	8b 44 24 34          	mov    0x34(%esp),%eax
 1001872:	8b 40 18             	mov    0x18(%eax),%eax
 1001875:	89 c2                	mov    %eax,%edx
 1001877:	03 54 24 24          	add    0x24(%esp),%edx
 100187b:	8b 44 24 34          	mov    0x34(%esp),%eax
 100187f:	8b 40 14             	mov    0x14(%eax),%eax
 1001882:	03 44 24 28          	add    0x28(%esp),%eax
 1001886:	89 5c 24 10          	mov    %ebx,0x10(%esp)
 100188a:	89 4c 24 0c          	mov    %ecx,0xc(%esp)
 100188e:	89 54 24 08          	mov    %edx,0x8(%esp)
 1001892:	89 44 24 04          	mov    %eax,0x4(%esp)
 1001896:	8b 44 24 50          	mov    0x50(%esp),%eax
 100189a:	89 04 24             	mov    %eax,(%esp)
 100189d:	e8 5a f8 ff ff       	call   10010fc <w_redraw>
 10018a2:	b8 00 00 00 00       	mov    $0x0,%eax
 10018a7:	83 c4 48             	add    $0x48,%esp
 10018aa:	5b                   	pop    %ebx
 10018ab:	c3                   	ret    

010018ac <do_wm_window_timer>:
 10018ac:	83 ec 10             	sub    $0x10,%esp
 10018af:	8b 44 24 18          	mov    0x18(%esp),%eax
 10018b3:	8b 40 08             	mov    0x8(%eax),%eax
 10018b6:	89 44 24 0c          	mov    %eax,0xc(%esp)
 10018ba:	8b 44 24 18          	mov    0x18(%esp),%eax
 10018be:	8b 50 0c             	mov    0xc(%eax),%edx
 10018c1:	8b 44 24 0c          	mov    0xc(%esp),%eax
 10018c5:	89 50 28             	mov    %edx,0x28(%eax)
 10018c8:	b8 00 00 00 00       	mov    $0x0,%eax
 10018cd:	83 c4 10             	add    $0x10,%esp
 10018d0:	c3                   	ret    

010018d1 <main_loop>:
 10018d1:	83 ec 4c             	sub    $0x4c,%esp
 10018d4:	e9 80 00 00 00       	jmp    1001959 <main_loop+0x88>
 10018d9:	8b 44 24 18          	mov    0x18(%esp),%eax
 10018dd:	83 e0 fe             	and    $0xfffffffe,%eax
 10018e0:	89 44 24 3c          	mov    %eax,0x3c(%esp)
 10018e4:	83 7c 24 3c 12       	cmpl   $0x12,0x3c(%esp)
 10018e9:	77 29                	ja     1001914 <main_loop+0x43>
 10018eb:	8b 44 24 3c          	mov    0x3c(%esp),%eax
 10018ef:	d1 e8                	shr    %eax
 10018f1:	8b 14 85 c0 40 00 01 	mov    0x10040c0(,%eax,4),%edx
 10018f8:	8d 44 24 18          	lea    0x18(%esp),%eax
 10018fc:	89 44 24 04          	mov    %eax,0x4(%esp)
 1001900:	8b 44 24 50          	mov    0x50(%esp),%eax
 1001904:	89 04 24             	mov    %eax,(%esp)
 1001907:	ff d2                	call   *%edx
 1001909:	89 44 24 38          	mov    %eax,0x38(%esp)
 100190d:	83 7c 24 38 00       	cmpl   $0x0,0x38(%esp)
 1001912:	75 6b                	jne    100197f <main_loop+0xae>
 1001914:	81 7c 24 3c d1 07 00 	cmpl   $0x7d1,0x3c(%esp)
 100191b:	00 
 100191c:	76 3b                	jbe    1001959 <main_loop+0x88>
 100191e:	81 7c 24 3c d8 07 00 	cmpl   $0x7d8,0x3c(%esp)
 1001925:	00 
 1001926:	77 31                	ja     1001959 <main_loop+0x88>
 1001928:	81 6c 24 3c d0 07 00 	subl   $0x7d0,0x3c(%esp)
 100192f:	00 
 1001930:	8b 44 24 3c          	mov    0x3c(%esp),%eax
 1001934:	d1 e8                	shr    %eax
 1001936:	8b 14 85 e8 40 00 01 	mov    0x10040e8(,%eax,4),%edx
 100193d:	8d 44 24 18          	lea    0x18(%esp),%eax
 1001941:	89 44 24 04          	mov    %eax,0x4(%esp)
 1001945:	8b 44 24 50          	mov    0x50(%esp),%eax
 1001949:	89 04 24             	mov    %eax,(%esp)
 100194c:	ff d2                	call   *%edx
 100194e:	89 44 24 38          	mov    %eax,0x38(%esp)
 1001952:	83 7c 24 38 00       	cmpl   $0x0,0x38(%esp)
 1001957:	75 29                	jne    1001982 <main_loop+0xb1>
 1001959:	c7 44 24 08 01 00 00 	movl   $0x1,0x8(%esp)
 1001960:	00 
 1001961:	8d 44 24 18          	lea    0x18(%esp),%eax
 1001965:	89 44 24 04          	mov    %eax,0x4(%esp)
 1001969:	c7 04 24 ff ff ff ff 	movl   $0xffffffff,(%esp)
 1001970:	e8 de 12 00 00       	call   1002c53 <recv>
 1001975:	85 c0                	test   %eax,%eax
 1001977:	0f 85 5c ff ff ff    	jne    10018d9 <main_loop+0x8>
 100197d:	eb 04                	jmp    1001983 <main_loop+0xb2>
 100197f:	90                   	nop
 1001980:	eb 01                	jmp    1001983 <main_loop+0xb2>
 1001982:	90                   	nop
 1001983:	83 c4 4c             	add    $0x4c,%esp
 1001986:	c3                   	ret    

01001987 <main>:
 1001987:	55                   	push   %ebp
 1001988:	89 e5                	mov    %esp,%ebp
 100198a:	83 e4 f0             	and    $0xfffffff0,%esp
 100198d:	83 ec 70             	sub    $0x70,%esp
 1001990:	c7 44 24 08 44 00 00 	movl   $0x44,0x8(%esp)
 1001997:	00 
 1001998:	c7 44 24 04 00 00 00 	movl   $0x0,0x4(%esp)
 100199f:	00 
 10019a0:	8d 44 24 2c          	lea    0x2c(%esp),%eax
 10019a4:	89 04 24             	mov    %eax,(%esp)
 10019a7:	e8 d0 0c 00 00       	call   100267c <memset>
 10019ac:	e8 87 e6 ff ff       	call   1000038 <draw_init>
 10019b1:	a1 cc 3e 00 01       	mov    0x1003ecc,%eax
 10019b6:	c7 44 24 04 00 00 00 	movl   $0x0,0x4(%esp)
 10019bd:	00 
 10019be:	89 04 24             	mov    %eax,(%esp)
 10019c1:	e8 c7 e6 ff ff       	call   100008d <draw_set_canvas>
 10019c6:	a1 d0 3e 00 01       	mov    0x1003ed0,%eax
 10019cb:	c7 44 24 04 e0 7d 00 	movl   $0x1007de0,0x4(%esp)
 10019d2:	01 
 10019d3:	89 04 24             	mov    %eax,(%esp)
 10019d6:	e8 b2 e6 ff ff       	call   100008d <draw_set_canvas>
 10019db:	a1 d0 3e 00 01       	mov    0x1003ed0,%eax
 10019e0:	89 44 24 34          	mov    %eax,0x34(%esp)
 10019e4:	8d 44 24 2c          	lea    0x2c(%esp),%eax
 10019e8:	89 04 24             	mov    %eax,(%esp)
 10019eb:	e8 8f f2 ff ff       	call   1000c7f <kb_init>
 10019f0:	8d 44 24 2c          	lea    0x2c(%esp),%eax
 10019f4:	89 04 24             	mov    %eax,(%esp)
 10019f7:	e8 3e f4 ff ff       	call   1000e3a <mouse_init>
 10019fc:	8d 44 24 2c          	lea    0x2c(%esp),%eax
 1001a00:	89 04 24             	mov    %eax,(%esp)
 1001a03:	e8 7d f5 ff ff       	call   1000f85 <timer_init>
 1001a08:	8d 44 24 2c          	lea    0x2c(%esp),%eax
 1001a0c:	89 04 24             	mov    %eax,(%esp)
 1001a0f:	e8 54 07 00 00       	call   1002168 <wnd_init>
 1001a14:	a1 d0 3e 00 01       	mov    0x1003ed0,%eax
 1001a19:	8b 50 08             	mov    0x8(%eax),%edx
 1001a1c:	a1 d0 3e 00 01       	mov    0x1003ed0,%eax
 1001a21:	8b 40 04             	mov    0x4(%eax),%eax
 1001a24:	89 54 24 10          	mov    %edx,0x10(%esp)
 1001a28:	89 44 24 0c          	mov    %eax,0xc(%esp)
 1001a2c:	c7 44 24 08 00 00 00 	movl   $0x0,0x8(%esp)
 1001a33:	00 
 1001a34:	c7 44 24 04 00 00 00 	movl   $0x0,0x4(%esp)
 1001a3b:	00 
 1001a3c:	8d 44 24 2c          	lea    0x2c(%esp),%eax
 1001a40:	89 04 24             	mov    %eax,(%esp)
 1001a43:	e8 b4 f6 ff ff       	call   10010fc <w_redraw>
 1001a48:	8d 44 24 2c          	lea    0x2c(%esp),%eax
 1001a4c:	89 04 24             	mov    %eax,(%esp)
 1001a4f:	e8 7d fe ff ff       	call   10018d1 <main_loop>
 1001a54:	8d 44 24 2c          	lea    0x2c(%esp),%eax
 1001a58:	89 04 24             	mov    %eax,(%esp)
 1001a5b:	e8 2f 08 00 00       	call   100228f <wnd_exit>
 1001a60:	8d 44 24 2c          	lea    0x2c(%esp),%eax
 1001a64:	89 04 24             	mov    %eax,(%esp)
 1001a67:	e8 49 f5 ff ff       	call   1000fb5 <timer_exit>
 1001a6c:	8d 44 24 2c          	lea    0x2c(%esp),%eax
 1001a70:	89 04 24             	mov    %eax,(%esp)
 1001a73:	e8 12 f4 ff ff       	call   1000e8a <mouse_exit>
 1001a78:	8d 44 24 2c          	lea    0x2c(%esp),%eax
 1001a7c:	89 04 24             	mov    %eax,(%esp)
 1001a7f:	e8 2e f2 ff ff       	call   1000cb2 <kb_exit>
 1001a84:	c7 04 24 01 00 00 00 	movl   $0x1,(%esp)
 1001a8b:	e8 b9 10 00 00       	call   1002b49 <tty_switch>
 1001a90:	b8 00 00 00 00       	mov    $0x0,%eax
 1001a95:	c9                   	leave  
 1001a96:	c3                   	ret    
 1001a97:	90                   	nop

01001a98 <desktop_init>:
 1001a98:	83 ec 2c             	sub    $0x2c,%esp
 1001a9b:	a1 f8 3e 00 01       	mov    0x1003ef8,%eax
 1001aa0:	c7 44 24 04 20 24 1f 	movl   $0x11f2420,0x4(%esp)
 1001aa7:	01 
 1001aa8:	89 04 24             	mov    %eax,(%esp)
 1001aab:	e8 dd e5 ff ff       	call   100008d <draw_set_canvas>
 1001ab0:	a1 f8 3e 00 01       	mov    0x1003ef8,%eax
 1001ab5:	c7 44 24 04 ff ff 00 	movl   $0xffff,0x4(%esp)
 1001abc:	00 
 1001abd:	89 04 24             	mov    %eax,(%esp)
 1001ac0:	e8 98 e7 ff ff       	call   100025d <draw_clear_screen>
 1001ac5:	a1 f8 3e 00 01       	mov    0x1003ef8,%eax
 1001aca:	c7 44 24 18 01 00 00 	movl   $0x1,0x18(%esp)
 1001ad1:	00 
 1001ad2:	c7 44 24 14 40 06 00 	movl   $0x640,0x14(%esp)
 1001ad9:	00 
 1001ada:	c7 44 24 10 f3 01 00 	movl   $0x1f3,0x10(%esp)
 1001ae1:	00 
 1001ae2:	c7 44 24 0c bb 02 00 	movl   $0x2bb,0xc(%esp)
 1001ae9:	00 
 1001aea:	c7 44 24 08 64 00 00 	movl   $0x64,0x8(%esp)
 1001af1:	00 
 1001af2:	c7 44 24 04 64 00 00 	movl   $0x64,0x4(%esp)
 1001af9:	00 
 1001afa:	89 04 24             	mov    %eax,(%esp)
 1001afd:	e8 33 ec ff ff       	call   1000735 <draw_rect>
 1001b02:	c7 44 24 04 00 24 0f 	movl   $0x10f2400,0x4(%esp)
 1001b09:	01 
 1001b0a:	c7 04 24 fc 3e 00 01 	movl   $0x1003efc,(%esp)
 1001b11:	e8 b5 10 00 00       	call   1002bcb <get_module>
 1001b16:	a1 f8 3e 00 01       	mov    0x1003ef8,%eax
 1001b1b:	c7 44 24 14 01 00 00 	movl   $0x1,0x14(%esp)
 1001b22:	00 
 1001b23:	c7 44 24 10 ff ff 00 	movl   $0xffff,0x10(%esp)
 1001b2a:	00 
 1001b2b:	c7 44 24 0c 00 24 0f 	movl   $0x10f2400,0xc(%esp)
 1001b32:	01 
 1001b33:	c7 44 24 08 14 00 00 	movl   $0x14,0x8(%esp)
 1001b3a:	00 
 1001b3b:	c7 44 24 04 78 00 00 	movl   $0x78,0x4(%esp)
 1001b42:	00 
 1001b43:	89 04 24             	mov    %eax,(%esp)
 1001b46:	e8 49 ef ff ff       	call   1000a94 <draw_bmp>
 1001b4b:	a1 f8 3e 00 01       	mov    0x1003ef8,%eax
 1001b50:	c7 44 24 10 00 00 00 	movl   $0x0,0x10(%esp)
 1001b57:	00 
 1001b58:	c7 44 24 0c 06 3f 00 	movl   $0x1003f06,0xc(%esp)
 1001b5f:	01 
 1001b60:	c7 44 24 08 00 00 00 	movl   $0x0,0x8(%esp)
 1001b67:	00 
 1001b68:	c7 44 24 04 00 00 00 	movl   $0x0,0x4(%esp)
 1001b6f:	00 
 1001b70:	89 04 24             	mov    %eax,(%esp)
 1001b73:	e8 bd ec ff ff       	call   1000835 <draw_string>
 1001b78:	83 c4 2c             	add    $0x2c,%esp
 1001b7b:	c3                   	ret    

01001b7c <wnd_list_del>:
 1001b7c:	8b 44 24 08          	mov    0x8(%esp),%eax
 1001b80:	8b 40 30             	mov    0x30(%eax),%eax
 1001b83:	3b 44 24 08          	cmp    0x8(%esp),%eax
 1001b87:	75 0c                	jne    1001b95 <wnd_list_del+0x19>
 1001b89:	8b 44 24 04          	mov    0x4(%esp),%eax
 1001b8d:	c7 00 00 00 00 00    	movl   $0x0,(%eax)
 1001b93:	eb 3b                	jmp    1001bd0 <wnd_list_del+0x54>
 1001b95:	8b 44 24 04          	mov    0x4(%esp),%eax
 1001b99:	8b 00                	mov    (%eax),%eax
 1001b9b:	3b 44 24 08          	cmp    0x8(%esp),%eax
 1001b9f:	75 0d                	jne    1001bae <wnd_list_del+0x32>
 1001ba1:	8b 44 24 08          	mov    0x8(%esp),%eax
 1001ba5:	8b 50 30             	mov    0x30(%eax),%edx
 1001ba8:	8b 44 24 04          	mov    0x4(%esp),%eax
 1001bac:	89 10                	mov    %edx,(%eax)
 1001bae:	8b 44 24 08          	mov    0x8(%esp),%eax
 1001bb2:	8b 40 2c             	mov    0x2c(%eax),%eax
 1001bb5:	8b 54 24 08          	mov    0x8(%esp),%edx
 1001bb9:	8b 52 30             	mov    0x30(%edx),%edx
 1001bbc:	89 50 30             	mov    %edx,0x30(%eax)
 1001bbf:	8b 44 24 08          	mov    0x8(%esp),%eax
 1001bc3:	8b 40 30             	mov    0x30(%eax),%eax
 1001bc6:	8b 54 24 08          	mov    0x8(%esp),%edx
 1001bca:	8b 52 2c             	mov    0x2c(%edx),%edx
 1001bcd:	89 50 2c             	mov    %edx,0x2c(%eax)
 1001bd0:	c3                   	ret    

01001bd1 <wnd_list_add_first>:
 1001bd1:	8b 44 24 04          	mov    0x4(%esp),%eax
 1001bd5:	8b 00                	mov    (%eax),%eax
 1001bd7:	85 c0                	test   %eax,%eax
 1001bd9:	75 22                	jne    1001bfd <wnd_list_add_first+0x2c>
 1001bdb:	8b 44 24 04          	mov    0x4(%esp),%eax
 1001bdf:	8b 54 24 08          	mov    0x8(%esp),%edx
 1001be3:	89 10                	mov    %edx,(%eax)
 1001be5:	8b 44 24 08          	mov    0x8(%esp),%eax
 1001be9:	8b 54 24 08          	mov    0x8(%esp),%edx
 1001bed:	89 50 30             	mov    %edx,0x30(%eax)
 1001bf0:	8b 44 24 08          	mov    0x8(%esp),%eax
 1001bf4:	8b 54 24 08          	mov    0x8(%esp),%edx
 1001bf8:	89 50 2c             	mov    %edx,0x2c(%eax)
 1001bfb:	eb 44                	jmp    1001c41 <wnd_list_add_first+0x70>
 1001bfd:	8b 44 24 04          	mov    0x4(%esp),%eax
 1001c01:	8b 00                	mov    (%eax),%eax
 1001c03:	8b 40 2c             	mov    0x2c(%eax),%eax
 1001c06:	8b 54 24 08          	mov    0x8(%esp),%edx
 1001c0a:	89 50 30             	mov    %edx,0x30(%eax)
 1001c0d:	8b 44 24 04          	mov    0x4(%esp),%eax
 1001c11:	8b 00                	mov    (%eax),%eax
 1001c13:	8b 50 2c             	mov    0x2c(%eax),%edx
 1001c16:	8b 44 24 08          	mov    0x8(%esp),%eax
 1001c1a:	89 50 2c             	mov    %edx,0x2c(%eax)
 1001c1d:	8b 44 24 04          	mov    0x4(%esp),%eax
 1001c21:	8b 10                	mov    (%eax),%edx
 1001c23:	8b 44 24 08          	mov    0x8(%esp),%eax
 1001c27:	89 50 30             	mov    %edx,0x30(%eax)
 1001c2a:	8b 44 24 04          	mov    0x4(%esp),%eax
 1001c2e:	8b 00                	mov    (%eax),%eax
 1001c30:	8b 54 24 08          	mov    0x8(%esp),%edx
 1001c34:	89 50 2c             	mov    %edx,0x2c(%eax)
 1001c37:	8b 44 24 04          	mov    0x4(%esp),%eax
 1001c3b:	8b 54 24 08          	mov    0x8(%esp),%edx
 1001c3f:	89 10                	mov    %edx,(%eax)
 1001c41:	c3                   	ret    

01001c42 <__wnd_redraw>:
 1001c42:	57                   	push   %edi
 1001c43:	56                   	push   %esi
 1001c44:	53                   	push   %ebx
 1001c45:	83 ec 40             	sub    $0x40,%esp
 1001c48:	8b 44 24 54          	mov    0x54(%esp),%eax
 1001c4c:	8b 54 24 5c          	mov    0x5c(%esp),%edx
 1001c50:	89 d1                	mov    %edx,%ecx
 1001c52:	29 c1                	sub    %eax,%ecx
 1001c54:	89 c8                	mov    %ecx,%eax
 1001c56:	89 44 24 38          	mov    %eax,0x38(%esp)
 1001c5a:	8b 44 24 58          	mov    0x58(%esp),%eax
 1001c5e:	8b 54 24 60          	mov    0x60(%esp),%edx
 1001c62:	89 d1                	mov    %edx,%ecx
 1001c64:	29 c1                	sub    %eax,%ecx
 1001c66:	89 c8                	mov    %ecx,%eax
 1001c68:	89 44 24 34          	mov    %eax,0x34(%esp)
 1001c6c:	8b 44 24 54          	mov    0x54(%esp),%eax
 1001c70:	89 44 24 30          	mov    %eax,0x30(%esp)
 1001c74:	8b 44 24 58          	mov    0x58(%esp),%eax
 1001c78:	89 44 24 2c          	mov    %eax,0x2c(%esp)
 1001c7c:	83 7c 24 38 00       	cmpl   $0x0,0x38(%esp)
 1001c81:	0f 8e 1b 01 00 00    	jle    1001da2 <__wnd_redraw+0x160>
 1001c87:	83 7c 24 34 00       	cmpl   $0x0,0x34(%esp)
 1001c8c:	0f 8e 13 01 00 00    	jle    1001da5 <__wnd_redraw+0x163>
 1001c92:	8b 7c 24 34          	mov    0x34(%esp),%edi
 1001c96:	8b 74 24 38          	mov    0x38(%esp),%esi
 1001c9a:	8b 5c 24 2c          	mov    0x2c(%esp),%ebx
 1001c9e:	8b 4c 24 30          	mov    0x30(%esp),%ecx
 1001ca2:	8b 44 24 50          	mov    0x50(%esp),%eax
 1001ca6:	8b 50 08             	mov    0x8(%eax),%edx
 1001ca9:	a1 f8 3e 00 01       	mov    0x1003ef8,%eax
 1001cae:	89 7c 24 14          	mov    %edi,0x14(%esp)
 1001cb2:	89 74 24 10          	mov    %esi,0x10(%esp)
 1001cb6:	89 5c 24 0c          	mov    %ebx,0xc(%esp)
 1001cba:	89 4c 24 08          	mov    %ecx,0x8(%esp)
 1001cbe:	89 54 24 04          	mov    %edx,0x4(%esp)
 1001cc2:	89 04 24             	mov    %eax,(%esp)
 1001cc5:	e8 d9 e5 ff ff       	call   10002a3 <draw_copy>
 1001cca:	a1 60 53 00 01       	mov    0x1005360,%eax
 1001ccf:	85 c0                	test   %eax,%eax
 1001cd1:	0f 84 d1 00 00 00    	je     1001da8 <__wnd_redraw+0x166>
 1001cd7:	a1 60 53 00 01       	mov    0x1005360,%eax
 1001cdc:	8b 40 2c             	mov    0x2c(%eax),%eax
 1001cdf:	89 44 24 3c          	mov    %eax,0x3c(%esp)
 1001ce3:	eb 59                	jmp    1001d3e <__wnd_redraw+0xfc>
 1001ce5:	8b 44 24 3c          	mov    0x3c(%esp),%eax
 1001ce9:	8b 40 20             	mov    0x20(%eax),%eax
 1001cec:	89 c6                	mov    %eax,%esi
 1001cee:	8b 44 24 3c          	mov    0x3c(%esp),%eax
 1001cf2:	8b 40 1c             	mov    0x1c(%eax),%eax
 1001cf5:	89 c3                	mov    %eax,%ebx
 1001cf7:	8b 44 24 3c          	mov    0x3c(%esp),%eax
 1001cfb:	8b 40 18             	mov    0x18(%eax),%eax
 1001cfe:	89 c1                	mov    %eax,%ecx
 1001d00:	8b 44 24 3c          	mov    0x3c(%esp),%eax
 1001d04:	8b 40 14             	mov    0x14(%eax),%eax
 1001d07:	89 c2                	mov    %eax,%edx
 1001d09:	8b 44 24 50          	mov    0x50(%esp),%eax
 1001d0d:	8b 40 08             	mov    0x8(%eax),%eax
 1001d10:	8b 7c 24 3c          	mov    0x3c(%esp),%edi
 1001d14:	83 c7 34             	add    $0x34,%edi
 1001d17:	89 74 24 14          	mov    %esi,0x14(%esp)
 1001d1b:	89 5c 24 10          	mov    %ebx,0x10(%esp)
 1001d1f:	89 4c 24 0c          	mov    %ecx,0xc(%esp)
 1001d23:	89 54 24 08          	mov    %edx,0x8(%esp)
 1001d27:	89 44 24 04          	mov    %eax,0x4(%esp)
 1001d2b:	89 3c 24             	mov    %edi,(%esp)
 1001d2e:	e8 e0 e6 ff ff       	call   1000413 <draw_window>
 1001d33:	8b 44 24 3c          	mov    0x3c(%esp),%eax
 1001d37:	8b 40 2c             	mov    0x2c(%eax),%eax
 1001d3a:	89 44 24 3c          	mov    %eax,0x3c(%esp)
 1001d3e:	a1 60 53 00 01       	mov    0x1005360,%eax
 1001d43:	39 44 24 3c          	cmp    %eax,0x3c(%esp)
 1001d47:	75 9c                	jne    1001ce5 <__wnd_redraw+0xa3>
 1001d49:	a1 60 53 00 01       	mov    0x1005360,%eax
 1001d4e:	89 44 24 3c          	mov    %eax,0x3c(%esp)
 1001d52:	8b 44 24 3c          	mov    0x3c(%esp),%eax
 1001d56:	8b 40 20             	mov    0x20(%eax),%eax
 1001d59:	89 c6                	mov    %eax,%esi
 1001d5b:	8b 44 24 3c          	mov    0x3c(%esp),%eax
 1001d5f:	8b 40 1c             	mov    0x1c(%eax),%eax
 1001d62:	89 c3                	mov    %eax,%ebx
 1001d64:	8b 44 24 3c          	mov    0x3c(%esp),%eax
 1001d68:	8b 40 18             	mov    0x18(%eax),%eax
 1001d6b:	89 c1                	mov    %eax,%ecx
 1001d6d:	8b 44 24 3c          	mov    0x3c(%esp),%eax
 1001d71:	8b 40 14             	mov    0x14(%eax),%eax
 1001d74:	89 c2                	mov    %eax,%edx
 1001d76:	8b 44 24 50          	mov    0x50(%esp),%eax
 1001d7a:	8b 40 08             	mov    0x8(%eax),%eax
 1001d7d:	8b 7c 24 3c          	mov    0x3c(%esp),%edi
 1001d81:	83 c7 34             	add    $0x34,%edi
 1001d84:	89 74 24 14          	mov    %esi,0x14(%esp)
 1001d88:	89 5c 24 10          	mov    %ebx,0x10(%esp)
 1001d8c:	89 4c 24 0c          	mov    %ecx,0xc(%esp)
 1001d90:	89 54 24 08          	mov    %edx,0x8(%esp)
 1001d94:	89 44 24 04          	mov    %eax,0x4(%esp)
 1001d98:	89 3c 24             	mov    %edi,(%esp)
 1001d9b:	e8 73 e6 ff ff       	call   1000413 <draw_window>
 1001da0:	eb 07                	jmp    1001da9 <__wnd_redraw+0x167>
 1001da2:	90                   	nop
 1001da3:	eb 04                	jmp    1001da9 <__wnd_redraw+0x167>
 1001da5:	90                   	nop
 1001da6:	eb 01                	jmp    1001da9 <__wnd_redraw+0x167>
 1001da8:	90                   	nop
 1001da9:	83 c4 40             	add    $0x40,%esp
 1001dac:	5b                   	pop    %ebx
 1001dad:	5e                   	pop    %esi
 1001dae:	5f                   	pop    %edi
 1001daf:	c3                   	ret    

01001db0 <wnd_destroy>:
 1001db0:	53                   	push   %ebx
 1001db1:	83 ec 28             	sub    $0x28,%esp
 1001db4:	8b 44 24 34          	mov    0x34(%esp),%eax
 1001db8:	8b 40 10             	mov    0x10(%eax),%eax
 1001dbb:	85 c0                	test   %eax,%eax
 1001dbd:	75 0a                	jne    1001dc9 <wnd_destroy+0x19>
 1001dbf:	b8 00 00 00 00       	mov    $0x0,%eax
 1001dc4:	e9 88 00 00 00       	jmp    1001e51 <wnd_destroy+0xa1>
 1001dc9:	8b 44 24 34          	mov    0x34(%esp),%eax
 1001dcd:	89 44 24 04          	mov    %eax,0x4(%esp)
 1001dd1:	c7 04 24 60 53 00 01 	movl   $0x1005360,(%esp)
 1001dd8:	e8 9f fd ff ff       	call   1001b7c <wnd_list_del>
 1001ddd:	8b 44 24 34          	mov    0x34(%esp),%eax
 1001de1:	c7 40 10 00 00 00 00 	movl   $0x0,0x10(%eax)
 1001de8:	8b 44 24 34          	mov    0x34(%esp),%eax
 1001dec:	8b 50 18             	mov    0x18(%eax),%edx
 1001def:	8b 44 24 34          	mov    0x34(%esp),%eax
 1001df3:	8b 40 20             	mov    0x20(%eax),%eax
 1001df6:	8d 1c 02             	lea    (%edx,%eax,1),%ebx
 1001df9:	8b 44 24 34          	mov    0x34(%esp),%eax
 1001dfd:	8b 50 14             	mov    0x14(%eax),%edx
 1001e00:	8b 44 24 34          	mov    0x34(%esp),%eax
 1001e04:	8b 40 1c             	mov    0x1c(%eax),%eax
 1001e07:	8d 0c 02             	lea    (%edx,%eax,1),%ecx
 1001e0a:	8b 44 24 34          	mov    0x34(%esp),%eax
 1001e0e:	8b 50 18             	mov    0x18(%eax),%edx
 1001e11:	8b 44 24 34          	mov    0x34(%esp),%eax
 1001e15:	8b 40 14             	mov    0x14(%eax),%eax
 1001e18:	89 5c 24 10          	mov    %ebx,0x10(%esp)
 1001e1c:	89 4c 24 0c          	mov    %ecx,0xc(%esp)
 1001e20:	89 54 24 08          	mov    %edx,0x8(%esp)
 1001e24:	89 44 24 04          	mov    %eax,0x4(%esp)
 1001e28:	8b 44 24 30          	mov    0x30(%esp),%eax
 1001e2c:	89 04 24             	mov    %eax,(%esp)
 1001e2f:	e8 c8 f2 ff ff       	call   10010fc <w_redraw>
 1001e34:	8b 44 24 30          	mov    0x30(%esp),%eax
 1001e38:	8b 40 04             	mov    0x4(%eax),%eax
 1001e3b:	3b 44 24 34          	cmp    0x34(%esp),%eax
 1001e3f:	75 0b                	jne    1001e4c <wnd_destroy+0x9c>
 1001e41:	8b 44 24 30          	mov    0x30(%esp),%eax
 1001e45:	c7 40 04 00 00 00 00 	movl   $0x0,0x4(%eax)
 1001e4c:	b8 01 00 00 00       	mov    $0x1,%eax
 1001e51:	83 c4 28             	add    $0x28,%esp
 1001e54:	5b                   	pop    %ebx
 1001e55:	c3                   	ret    

01001e56 <wnd_create>:
 1001e56:	53                   	push   %ebx
 1001e57:	83 ec 38             	sub    $0x38,%esp
 1001e5a:	c7 44 24 2c 20 51 00 	movl   $0x1005120,0x2c(%esp)
 1001e61:	01 
 1001e62:	e9 3f 01 00 00       	jmp    1001fa6 <wnd_create+0x150>
 1001e67:	8b 44 24 2c          	mov    0x2c(%esp),%eax
 1001e6b:	8b 40 10             	mov    0x10(%eax),%eax
 1001e6e:	85 c0                	test   %eax,%eax
 1001e70:	0f 85 2b 01 00 00    	jne    1001fa1 <wnd_create+0x14b>
 1001e76:	8b 44 24 2c          	mov    0x2c(%esp),%eax
 1001e7a:	8b 54 24 4c          	mov    0x4c(%esp),%edx
 1001e7e:	89 54 24 04          	mov    %edx,0x4(%esp)
 1001e82:	89 04 24             	mov    %eax,(%esp)
 1001e85:	e8 ee 04 00 00       	call   1002378 <strcpy>
 1001e8a:	8b 44 24 48          	mov    0x48(%esp),%eax
 1001e8e:	89 c2                	mov    %eax,%edx
 1001e90:	83 ca 01             	or     $0x1,%edx
 1001e93:	8b 44 24 2c          	mov    0x2c(%esp),%eax
 1001e97:	89 50 10             	mov    %edx,0x10(%eax)
 1001e9a:	8b 44 24 2c          	mov    0x2c(%esp),%eax
 1001e9e:	8b 54 24 44          	mov    0x44(%esp),%edx
 1001ea2:	89 50 24             	mov    %edx,0x24(%eax)
 1001ea5:	8b 44 24 2c          	mov    0x2c(%esp),%eax
 1001ea9:	8b 54 24 50          	mov    0x50(%esp),%edx
 1001ead:	89 50 14             	mov    %edx,0x14(%eax)
 1001eb0:	8b 44 24 2c          	mov    0x2c(%esp),%eax
 1001eb4:	8b 54 24 54          	mov    0x54(%esp),%edx
 1001eb8:	89 50 18             	mov    %edx,0x18(%eax)
 1001ebb:	8b 44 24 2c          	mov    0x2c(%esp),%eax
 1001ebf:	8b 54 24 58          	mov    0x58(%esp),%edx
 1001ec3:	89 50 1c             	mov    %edx,0x1c(%eax)
 1001ec6:	8b 44 24 2c          	mov    0x2c(%esp),%eax
 1001eca:	8b 54 24 5c          	mov    0x5c(%esp),%edx
 1001ece:	89 50 20             	mov    %edx,0x20(%eax)
 1001ed1:	8b 44 24 2c          	mov    0x2c(%esp),%eax
 1001ed5:	89 44 24 04          	mov    %eax,0x4(%esp)
 1001ed9:	c7 04 24 60 53 00 01 	movl   $0x1005360,(%esp)
 1001ee0:	e8 ec fc ff ff       	call   1001bd1 <wnd_list_add_first>
 1001ee5:	8b 44 24 40          	mov    0x40(%esp),%eax
 1001ee9:	8b 40 08             	mov    0x8(%eax),%eax
 1001eec:	8b 50 04             	mov    0x4(%eax),%edx
 1001eef:	8b 44 24 40          	mov    0x40(%esp),%eax
 1001ef3:	8b 40 08             	mov    0x8(%eax),%eax
 1001ef6:	8b 40 08             	mov    0x8(%eax),%eax
 1001ef9:	0f af c2             	imul   %edx,%eax
 1001efc:	8d 0c 00             	lea    (%eax,%eax,1),%ecx
 1001eff:	8b 44 24 50          	mov    0x50(%esp),%eax
 1001f03:	0f be d0             	movsbl %al,%edx
 1001f06:	8b 44 24 2c          	mov    0x2c(%esp),%eax
 1001f0a:	8b 40 44             	mov    0x44(%eax),%eax
 1001f0d:	89 4c 24 08          	mov    %ecx,0x8(%esp)
 1001f11:	89 54 24 04          	mov    %edx,0x4(%esp)
 1001f15:	89 04 24             	mov    %eax,(%esp)
 1001f18:	e8 5f 07 00 00       	call   100267c <memset>
 1001f1d:	8b 44 24 2c          	mov    0x2c(%esp),%eax
 1001f21:	8b 50 18             	mov    0x18(%eax),%edx
 1001f24:	8b 44 24 2c          	mov    0x2c(%esp),%eax
 1001f28:	8b 40 20             	mov    0x20(%eax),%eax
 1001f2b:	8d 1c 02             	lea    (%edx,%eax,1),%ebx
 1001f2e:	8b 44 24 2c          	mov    0x2c(%esp),%eax
 1001f32:	8b 50 14             	mov    0x14(%eax),%edx
 1001f35:	8b 44 24 2c          	mov    0x2c(%esp),%eax
 1001f39:	8b 40 1c             	mov    0x1c(%eax),%eax
 1001f3c:	8d 0c 02             	lea    (%edx,%eax,1),%ecx
 1001f3f:	8b 44 24 2c          	mov    0x2c(%esp),%eax
 1001f43:	8b 50 18             	mov    0x18(%eax),%edx
 1001f46:	8b 44 24 2c          	mov    0x2c(%esp),%eax
 1001f4a:	8b 40 14             	mov    0x14(%eax),%eax
 1001f4d:	89 5c 24 10          	mov    %ebx,0x10(%esp)
 1001f51:	89 4c 24 0c          	mov    %ecx,0xc(%esp)
 1001f55:	89 54 24 08          	mov    %edx,0x8(%esp)
 1001f59:	89 44 24 04          	mov    %eax,0x4(%esp)
 1001f5d:	8b 44 24 40          	mov    0x40(%esp),%eax
 1001f61:	89 04 24             	mov    %eax,(%esp)
 1001f64:	e8 93 f1 ff ff       	call   10010fc <w_redraw>
 1001f69:	8b 15 78 51 00 01    	mov    0x1005178,%edx
 1001f6f:	8b 4c 24 2c          	mov    0x2c(%esp),%ecx
 1001f73:	b8 20 51 00 01       	mov    $0x1005120,%eax
 1001f78:	89 cb                	mov    %ecx,%ebx
 1001f7a:	29 c3                	sub    %eax,%ebx
 1001f7c:	89 d8                	mov    %ebx,%eax
 1001f7e:	c1 f8 03             	sar    $0x3,%eax
 1001f81:	69 c0 39 8e e3 38    	imul   $0x38e38e39,%eax,%eax
 1001f87:	89 54 24 08          	mov    %edx,0x8(%esp)
 1001f8b:	89 44 24 04          	mov    %eax,0x4(%esp)
 1001f8f:	c7 04 24 20 3f 00 01 	movl   $0x1003f20,(%esp)
 1001f96:	e8 85 0e 00 00       	call   1002e20 <printf>
 1001f9b:	8b 44 24 2c          	mov    0x2c(%esp),%eax
 1001f9f:	eb 19                	jmp    1001fba <wnd_create+0x164>
 1001fa1:	83 44 24 2c 48       	addl   $0x48,0x2c(%esp)
 1001fa6:	b8 60 53 00 01       	mov    $0x1005360,%eax
 1001fab:	39 44 24 2c          	cmp    %eax,0x2c(%esp)
 1001faf:	0f 82 b2 fe ff ff    	jb     1001e67 <wnd_create+0x11>
 1001fb5:	b8 00 00 00 00       	mov    $0x0,%eax
 1001fba:	83 c4 38             	add    $0x38,%esp
 1001fbd:	5b                   	pop    %ebx
 1001fbe:	c3                   	ret    

01001fbf <wnd_in_area>:
 1001fbf:	83 ec 10             	sub    $0x10,%esp
 1001fc2:	a1 60 53 00 01       	mov    0x1005360,%eax
 1001fc7:	85 c0                	test   %eax,%eax
 1001fc9:	75 0a                	jne    1001fd5 <wnd_in_area+0x16>
 1001fcb:	b8 00 00 00 00       	mov    $0x0,%eax
 1001fd0:	e9 ce 00 00 00       	jmp    10020a3 <wnd_in_area+0xe4>
 1001fd5:	a1 60 53 00 01       	mov    0x1005360,%eax
 1001fda:	89 44 24 0c          	mov    %eax,0xc(%esp)
 1001fde:	8b 44 24 0c          	mov    0xc(%esp),%eax
 1001fe2:	8b 40 14             	mov    0x14(%eax),%eax
 1001fe5:	3b 44 24 14          	cmp    0x14(%esp),%eax
 1001fe9:	7f 41                	jg     100202c <wnd_in_area+0x6d>
 1001feb:	8b 44 24 0c          	mov    0xc(%esp),%eax
 1001fef:	8b 50 14             	mov    0x14(%eax),%edx
 1001ff2:	8b 44 24 0c          	mov    0xc(%esp),%eax
 1001ff6:	8b 40 1c             	mov    0x1c(%eax),%eax
 1001ff9:	8d 04 02             	lea    (%edx,%eax,1),%eax
 1001ffc:	3b 44 24 14          	cmp    0x14(%esp),%eax
 1002000:	7c 2a                	jl     100202c <wnd_in_area+0x6d>
 1002002:	8b 44 24 0c          	mov    0xc(%esp),%eax
 1002006:	8b 40 18             	mov    0x18(%eax),%eax
 1002009:	3b 44 24 18          	cmp    0x18(%esp),%eax
 100200d:	7f 1d                	jg     100202c <wnd_in_area+0x6d>
 100200f:	8b 44 24 0c          	mov    0xc(%esp),%eax
 1002013:	8b 50 18             	mov    0x18(%eax),%edx
 1002016:	8b 44 24 0c          	mov    0xc(%esp),%eax
 100201a:	8b 40 20             	mov    0x20(%eax),%eax
 100201d:	8d 04 02             	lea    (%edx,%eax,1),%eax
 1002020:	3b 44 24 18          	cmp    0x18(%esp),%eax
 1002024:	7c 06                	jl     100202c <wnd_in_area+0x6d>
 1002026:	8b 44 24 0c          	mov    0xc(%esp),%eax
 100202a:	eb 77                	jmp    10020a3 <wnd_in_area+0xe4>
 100202c:	a1 60 53 00 01       	mov    0x1005360,%eax
 1002031:	8b 40 30             	mov    0x30(%eax),%eax
 1002034:	89 44 24 0c          	mov    %eax,0xc(%esp)
 1002038:	eb 59                	jmp    1002093 <wnd_in_area+0xd4>
 100203a:	8b 44 24 0c          	mov    0xc(%esp),%eax
 100203e:	8b 40 14             	mov    0x14(%eax),%eax
 1002041:	3b 44 24 14          	cmp    0x14(%esp),%eax
 1002045:	7f 41                	jg     1002088 <wnd_in_area+0xc9>
 1002047:	8b 44 24 0c          	mov    0xc(%esp),%eax
 100204b:	8b 50 14             	mov    0x14(%eax),%edx
 100204e:	8b 44 24 0c          	mov    0xc(%esp),%eax
 1002052:	8b 40 1c             	mov    0x1c(%eax),%eax
 1002055:	8d 04 02             	lea    (%edx,%eax,1),%eax
 1002058:	3b 44 24 14          	cmp    0x14(%esp),%eax
 100205c:	7c 2a                	jl     1002088 <wnd_in_area+0xc9>
 100205e:	8b 44 24 0c          	mov    0xc(%esp),%eax
 1002062:	8b 40 18             	mov    0x18(%eax),%eax
 1002065:	3b 44 24 18          	cmp    0x18(%esp),%eax
 1002069:	7f 1d                	jg     1002088 <wnd_in_area+0xc9>
 100206b:	8b 44 24 0c          	mov    0xc(%esp),%eax
 100206f:	8b 50 18             	mov    0x18(%eax),%edx
 1002072:	8b 44 24 0c          	mov    0xc(%esp),%eax
 1002076:	8b 40 20             	mov    0x20(%eax),%eax
 1002079:	8d 04 02             	lea    (%edx,%eax,1),%eax
 100207c:	3b 44 24 18          	cmp    0x18(%esp),%eax
 1002080:	7c 06                	jl     1002088 <wnd_in_area+0xc9>
 1002082:	8b 44 24 0c          	mov    0xc(%esp),%eax
 1002086:	eb 1b                	jmp    10020a3 <wnd_in_area+0xe4>
 1002088:	8b 44 24 0c          	mov    0xc(%esp),%eax
 100208c:	8b 40 30             	mov    0x30(%eax),%eax
 100208f:	89 44 24 0c          	mov    %eax,0xc(%esp)
 1002093:	a1 60 53 00 01       	mov    0x1005360,%eax
 1002098:	39 44 24 0c          	cmp    %eax,0xc(%esp)
 100209c:	75 9c                	jne    100203a <wnd_in_area+0x7b>
 100209e:	b8 00 00 00 00       	mov    $0x0,%eax
 10020a3:	83 c4 10             	add    $0x10,%esp
 10020a6:	c3                   	ret    

010020a7 <wnd_set_top>:
 10020a7:	53                   	push   %ebx
 10020a8:	83 ec 28             	sub    $0x28,%esp
 10020ab:	83 7c 24 34 00       	cmpl   $0x0,0x34(%esp)
 10020b0:	0f 84 81 00 00 00    	je     1002137 <wnd_set_top+0x90>
 10020b6:	a1 60 53 00 01       	mov    0x1005360,%eax
 10020bb:	3b 44 24 34          	cmp    0x34(%esp),%eax
 10020bf:	74 79                	je     100213a <wnd_set_top+0x93>
 10020c1:	8b 44 24 34          	mov    0x34(%esp),%eax
 10020c5:	89 44 24 04          	mov    %eax,0x4(%esp)
 10020c9:	c7 04 24 60 53 00 01 	movl   $0x1005360,(%esp)
 10020d0:	e8 a7 fa ff ff       	call   1001b7c <wnd_list_del>
 10020d5:	8b 44 24 34          	mov    0x34(%esp),%eax
 10020d9:	89 44 24 04          	mov    %eax,0x4(%esp)
 10020dd:	c7 04 24 60 53 00 01 	movl   $0x1005360,(%esp)
 10020e4:	e8 e8 fa ff ff       	call   1001bd1 <wnd_list_add_first>
 10020e9:	8b 44 24 34          	mov    0x34(%esp),%eax
 10020ed:	8b 50 18             	mov    0x18(%eax),%edx
 10020f0:	8b 44 24 34          	mov    0x34(%esp),%eax
 10020f4:	8b 40 20             	mov    0x20(%eax),%eax
 10020f7:	8d 1c 02             	lea    (%edx,%eax,1),%ebx
 10020fa:	8b 44 24 34          	mov    0x34(%esp),%eax
 10020fe:	8b 50 14             	mov    0x14(%eax),%edx
 1002101:	8b 44 24 34          	mov    0x34(%esp),%eax
 1002105:	8b 40 1c             	mov    0x1c(%eax),%eax
 1002108:	8d 0c 02             	lea    (%edx,%eax,1),%ecx
 100210b:	8b 44 24 34          	mov    0x34(%esp),%eax
 100210f:	8b 50 18             	mov    0x18(%eax),%edx
 1002112:	8b 44 24 34          	mov    0x34(%esp),%eax
 1002116:	8b 40 14             	mov    0x14(%eax),%eax
 1002119:	89 5c 24 10          	mov    %ebx,0x10(%esp)
 100211d:	89 4c 24 0c          	mov    %ecx,0xc(%esp)
 1002121:	89 54 24 08          	mov    %edx,0x8(%esp)
 1002125:	89 44 24 04          	mov    %eax,0x4(%esp)
 1002129:	8b 44 24 30          	mov    0x30(%esp),%eax
 100212d:	89 04 24             	mov    %eax,(%esp)
 1002130:	e8 c7 ef ff ff       	call   10010fc <w_redraw>
 1002135:	eb 04                	jmp    100213b <wnd_set_top+0x94>
 1002137:	90                   	nop
 1002138:	eb 01                	jmp    100213b <wnd_set_top+0x94>
 100213a:	90                   	nop
 100213b:	83 c4 28             	add    $0x28,%esp
 100213e:	5b                   	pop    %ebx
 100213f:	c3                   	ret    

01002140 <wnd_reset_hwnd>:
 1002140:	83 ec 08             	sub    $0x8,%esp
 1002143:	8b 44 24 0c          	mov    0xc(%esp),%eax
 1002147:	8b 50 1c             	mov    0x1c(%eax),%edx
 100214a:	8b 44 24 0c          	mov    0xc(%esp),%eax
 100214e:	8b 40 18             	mov    0x18(%eax),%eax
 1002151:	89 54 24 04          	mov    %edx,0x4(%esp)
 1002155:	89 04 24             	mov    %eax,(%esp)
 1002158:	e8 62 fe ff ff       	call   1001fbf <wnd_in_area>
 100215d:	8b 54 24 0c          	mov    0xc(%esp),%edx
 1002161:	89 42 04             	mov    %eax,0x4(%edx)
 1002164:	83 c4 08             	add    $0x8,%esp
 1002167:	c3                   	ret    

01002168 <wnd_init>:
 1002168:	83 ec 2c             	sub    $0x2c,%esp
 100216b:	c7 44 24 1c 00 00 00 	movl   $0x0,0x1c(%esp)
 1002172:	00 
 1002173:	e9 e9 00 00 00       	jmp    1002261 <wnd_init+0xf9>
 1002178:	8b 44 24 1c          	mov    0x1c(%esp),%eax
 100217c:	05 00 11 00 00       	add    $0x1100,%eax
 1002181:	c7 44 24 04 00 00 10 	movl   $0x100000,0x4(%esp)
 1002188:	00 
 1002189:	89 04 24             	mov    %eax,(%esp)
 100218c:	e8 f8 0b 00 00       	call   1002d89 <shm_get>
 1002191:	85 c0                	test   %eax,%eax
 1002193:	74 18                	je     10021ad <wnd_init+0x45>
 1002195:	c7 04 24 50 3f 00 01 	movl   $0x1003f50,(%esp)
 100219c:	e8 7f 0c 00 00       	call   1002e20 <printf>
 10021a1:	c7 04 24 01 00 00 00 	movl   $0x1,(%esp)
 10021a8:	e8 5a 07 00 00       	call   1002907 <exit>
 10021ad:	8b 44 24 1c          	mov    0x1c(%esp),%eax
 10021b1:	05 00 02 00 00       	add    $0x200,%eax
 10021b6:	c1 e0 14             	shl    $0x14,%eax
 10021b9:	89 c1                	mov    %eax,%ecx
 10021bb:	8b 54 24 1c          	mov    0x1c(%esp),%edx
 10021bf:	89 d0                	mov    %edx,%eax
 10021c1:	c1 e0 03             	shl    $0x3,%eax
 10021c4:	01 d0                	add    %edx,%eax
 10021c6:	c1 e0 03             	shl    $0x3,%eax
 10021c9:	05 60 51 00 01       	add    $0x1005160,%eax
 10021ce:	89 48 04             	mov    %ecx,0x4(%eax)
 10021d1:	8b 54 24 1c          	mov    0x1c(%esp),%edx
 10021d5:	89 d0                	mov    %edx,%eax
 10021d7:	c1 e0 03             	shl    $0x3,%eax
 10021da:	01 d0                	add    %edx,%eax
 10021dc:	c1 e0 03             	shl    $0x3,%eax
 10021df:	05 60 51 00 01       	add    $0x1005160,%eax
 10021e4:	8b 48 04             	mov    0x4(%eax),%ecx
 10021e7:	8b 54 24 1c          	mov    0x1c(%esp),%edx
 10021eb:	89 d0                	mov    %edx,%eax
 10021ed:	c1 e0 03             	shl    $0x3,%eax
 10021f0:	01 d0                	add    %edx,%eax
 10021f2:	c1 e0 03             	shl    $0x3,%eax
 10021f5:	83 c0 30             	add    $0x30,%eax
 10021f8:	05 20 51 00 01       	add    $0x1005120,%eax
 10021fd:	83 c0 04             	add    $0x4,%eax
 1002200:	89 4c 24 04          	mov    %ecx,0x4(%esp)
 1002204:	89 04 24             	mov    %eax,(%esp)
 1002207:	e8 81 de ff ff       	call   100008d <draw_set_canvas>
 100220c:	8b 54 24 1c          	mov    0x1c(%esp),%edx
 1002210:	89 d0                	mov    %edx,%eax
 1002212:	c1 e0 03             	shl    $0x3,%eax
 1002215:	01 d0                	add    %edx,%eax
 1002217:	c1 e0 03             	shl    $0x3,%eax
 100221a:	05 60 51 00 01       	add    $0x1005160,%eax
 100221f:	8b 40 04             	mov    0x4(%eax),%eax
 1002222:	8b 54 24 1c          	mov    0x1c(%esp),%edx
 1002226:	81 c2 00 11 00 00    	add    $0x1100,%edx
 100222c:	c7 44 24 08 01 00 00 	movl   $0x1,0x8(%esp)
 1002233:	00 
 1002234:	89 44 24 04          	mov    %eax,0x4(%esp)
 1002238:	89 14 24             	mov    %edx,(%esp)
 100223b:	e8 c4 0a 00 00       	call   1002d04 <shm_at>
 1002240:	85 c0                	test   %eax,%eax
 1002242:	74 18                	je     100225c <wnd_init+0xf4>
 1002244:	c7 04 24 5f 3f 00 01 	movl   $0x1003f5f,(%esp)
 100224b:	e8 d0 0b 00 00       	call   1002e20 <printf>
 1002250:	c7 04 24 01 00 00 00 	movl   $0x1,(%esp)
 1002257:	e8 ab 06 00 00       	call   1002907 <exit>
 100225c:	83 44 24 1c 01       	addl   $0x1,0x1c(%esp)
 1002261:	83 7c 24 1c 07       	cmpl   $0x7,0x1c(%esp)
 1002266:	0f 8e 0c ff ff ff    	jle    1002178 <wnd_init+0x10>
 100226c:	8b 44 24 30          	mov    0x30(%esp),%eax
 1002270:	c7 00 20 51 00 01    	movl   $0x1005120,(%eax)
 1002276:	8b 44 24 30          	mov    0x30(%esp),%eax
 100227a:	c7 40 04 00 00 00 00 	movl   $0x0,0x4(%eax)
 1002281:	e8 12 f8 ff ff       	call   1001a98 <desktop_init>
 1002286:	b8 00 00 00 00       	mov    $0x0,%eax
 100228b:	83 c4 2c             	add    $0x2c,%esp
 100228e:	c3                   	ret    

0100228f <wnd_exit>:
 100228f:	83 ec 4c             	sub    $0x4c,%esp
 1002292:	c7 44 24 38 20 51 00 	movl   $0x1005120,0x38(%esp)
 1002299:	01 
 100229a:	eb 73                	jmp    100230f <wnd_exit+0x80>
 100229c:	8b 44 24 38          	mov    0x38(%esp),%eax
 10022a0:	8b 40 10             	mov    0x10(%eax),%eax
 10022a3:	83 f8 01             	cmp    $0x1,%eax
 10022a6:	75 62                	jne    100230a <wnd_exit+0x7b>
 10022a8:	8b 44 24 38          	mov    0x38(%esp),%eax
 10022ac:	89 04 24             	mov    %eax,(%esp)
 10022af:	e8 a1 ec ff ff       	call   1000f55 <send_um_exit>
 10022b4:	c7 44 24 08 01 00 00 	movl   $0x1,0x8(%esp)
 10022bb:	00 
 10022bc:	8d 44 24 14          	lea    0x14(%esp),%eax
 10022c0:	89 44 24 04          	mov    %eax,0x4(%esp)
 10022c4:	c7 04 24 ff ff ff ff 	movl   $0xffffffff,(%esp)
 10022cb:	e8 83 09 00 00       	call   1002c53 <recv>
 10022d0:	8b 44 24 14          	mov    0x14(%esp),%eax
 10022d4:	83 e0 fe             	and    $0xfffffffe,%eax
 10022d7:	3d d6 07 00 00       	cmp    $0x7d6,%eax
 10022dc:	75 2c                	jne    100230a <wnd_exit+0x7b>
 10022de:	8b 44 24 1c          	mov    0x1c(%esp),%eax
 10022e2:	89 44 24 04          	mov    %eax,0x4(%esp)
 10022e6:	8b 44 24 50          	mov    0x50(%esp),%eax
 10022ea:	89 04 24             	mov    %eax,(%esp)
 10022ed:	e8 be fa ff ff       	call   1001db0 <wnd_destroy>
 10022f2:	89 44 24 34          	mov    %eax,0x34(%esp)
 10022f6:	8b 44 24 18          	mov    0x18(%esp),%eax
 10022fa:	8b 54 24 34          	mov    0x34(%esp),%edx
 10022fe:	89 54 24 04          	mov    %edx,0x4(%esp)
 1002302:	89 04 24             	mov    %eax,(%esp)
 1002305:	e8 ed eb ff ff       	call   1000ef7 <send_um_reply>
 100230a:	83 44 24 38 48       	addl   $0x48,0x38(%esp)
 100230f:	b8 60 53 00 01       	mov    $0x1005360,%eax
 1002314:	39 44 24 38          	cmp    %eax,0x38(%esp)
 1002318:	72 82                	jb     100229c <wnd_exit+0xd>
 100231a:	c7 44 24 3c 00 00 00 	movl   $0x0,0x3c(%esp)
 1002321:	00 
 1002322:	eb 41                	jmp    1002365 <wnd_exit+0xd6>
 1002324:	8b 54 24 3c          	mov    0x3c(%esp),%edx
 1002328:	89 d0                	mov    %edx,%eax
 100232a:	c1 e0 03             	shl    $0x3,%eax
 100232d:	01 d0                	add    %edx,%eax
 100232f:	c1 e0 03             	shl    $0x3,%eax
 1002332:	05 60 51 00 01       	add    $0x1005160,%eax
 1002337:	8b 40 04             	mov    0x4(%eax),%eax
 100233a:	8b 54 24 3c          	mov    0x3c(%esp),%edx
 100233e:	81 c2 00 11 00 00    	add    $0x1100,%edx
 1002344:	89 44 24 04          	mov    %eax,0x4(%esp)
 1002348:	89 14 24             	mov    %edx,(%esp)
 100234b:	e8 f5 09 00 00       	call   1002d45 <shm_dt>
 1002350:	85 c0                	test   %eax,%eax
 1002352:	74 0c                	je     1002360 <wnd_exit+0xd1>
 1002354:	c7 04 24 6d 3f 00 01 	movl   $0x1003f6d,(%esp)
 100235b:	e8 c0 0a 00 00       	call   1002e20 <printf>
 1002360:	83 44 24 3c 01       	addl   $0x1,0x3c(%esp)
 1002365:	83 7c 24 3c 07       	cmpl   $0x7,0x3c(%esp)
 100236a:	7e b8                	jle    1002324 <wnd_exit+0x95>
 100236c:	b8 00 00 00 00       	mov    $0x0,%eax
 1002371:	83 c4 4c             	add    $0x4c,%esp
 1002374:	c3                   	ret    
 1002375:	90                   	nop
 1002376:	90                   	nop
 1002377:	90                   	nop

01002378 <strcpy>:
 1002378:	55                   	push   %ebp
 1002379:	89 e5                	mov    %esp,%ebp
 100237b:	57                   	push   %edi
 100237c:	56                   	push   %esi
 100237d:	8b 45 0c             	mov    0xc(%ebp),%eax
 1002380:	8b 55 08             	mov    0x8(%ebp),%edx
 1002383:	89 c6                	mov    %eax,%esi
 1002385:	89 d7                	mov    %edx,%edi
 1002387:	fc                   	cld    
 1002388:	ac                   	lods   %ds:(%esi),%al
 1002389:	aa                   	stos   %al,%es:(%edi)
 100238a:	84 c0                	test   %al,%al
 100238c:	75 fa                	jne    1002388 <strcpy+0x10>
 100238e:	8b 45 08             	mov    0x8(%ebp),%eax
 1002391:	5e                   	pop    %esi
 1002392:	5f                   	pop    %edi
 1002393:	5d                   	pop    %ebp
 1002394:	c3                   	ret    

01002395 <strncpy>:
 1002395:	55                   	push   %ebp
 1002396:	89 e5                	mov    %esp,%ebp
 1002398:	57                   	push   %edi
 1002399:	56                   	push   %esi
 100239a:	8b 45 0c             	mov    0xc(%ebp),%eax
 100239d:	8b 55 08             	mov    0x8(%ebp),%edx
 10023a0:	8b 4d 10             	mov    0x10(%ebp),%ecx
 10023a3:	89 c6                	mov    %eax,%esi
 10023a5:	89 d7                	mov    %edx,%edi
 10023a7:	fc                   	cld    
 10023a8:	49                   	dec    %ecx
 10023a9:	78 08                	js     10023b3 <strncpy+0x1e>
 10023ab:	ac                   	lods   %ds:(%esi),%al
 10023ac:	aa                   	stos   %al,%es:(%edi)
 10023ad:	84 c0                	test   %al,%al
 10023af:	75 f7                	jne    10023a8 <strncpy+0x13>
 10023b1:	f3 aa                	rep stos %al,%es:(%edi)
 10023b3:	8b 45 08             	mov    0x8(%ebp),%eax
 10023b6:	5e                   	pop    %esi
 10023b7:	5f                   	pop    %edi
 10023b8:	5d                   	pop    %ebp
 10023b9:	c3                   	ret    

010023ba <strcat>:
 10023ba:	55                   	push   %ebp
 10023bb:	89 e5                	mov    %esp,%ebp
 10023bd:	57                   	push   %edi
 10023be:	56                   	push   %esi
 10023bf:	53                   	push   %ebx
 10023c0:	8b 55 0c             	mov    0xc(%ebp),%edx
 10023c3:	8b 5d 08             	mov    0x8(%ebp),%ebx
 10023c6:	b8 00 00 00 00       	mov    $0x0,%eax
 10023cb:	b9 ff ff ff ff       	mov    $0xffffffff,%ecx
 10023d0:	89 d6                	mov    %edx,%esi
 10023d2:	89 df                	mov    %ebx,%edi
 10023d4:	fc                   	cld    
 10023d5:	f2 ae                	repnz scas %es:(%edi),%al
 10023d7:	4f                   	dec    %edi
 10023d8:	ac                   	lods   %ds:(%esi),%al
 10023d9:	aa                   	stos   %al,%es:(%edi)
 10023da:	84 c0                	test   %al,%al
 10023dc:	75 fa                	jne    10023d8 <strcat+0x1e>
 10023de:	8b 45 08             	mov    0x8(%ebp),%eax
 10023e1:	5b                   	pop    %ebx
 10023e2:	5e                   	pop    %esi
 10023e3:	5f                   	pop    %edi
 10023e4:	5d                   	pop    %ebp
 10023e5:	c3                   	ret    

010023e6 <strncat>:
 10023e6:	55                   	push   %ebp
 10023e7:	89 e5                	mov    %esp,%ebp
 10023e9:	57                   	push   %edi
 10023ea:	56                   	push   %esi
 10023eb:	53                   	push   %ebx
 10023ec:	8b 55 0c             	mov    0xc(%ebp),%edx
 10023ef:	8b 5d 08             	mov    0x8(%ebp),%ebx
 10023f2:	b8 00 00 00 00       	mov    $0x0,%eax
 10023f7:	b9 ff ff ff ff       	mov    $0xffffffff,%ecx
 10023fc:	89 d6                	mov    %edx,%esi
 10023fe:	89 df                	mov    %ebx,%edi
 1002400:	fc                   	cld    
 1002401:	f2 ae                	repnz scas %es:(%edi),%al
 1002403:	4f                   	dec    %edi
 1002404:	8b 4d 10             	mov    0x10(%ebp),%ecx
 1002407:	49                   	dec    %ecx
 1002408:	78 06                	js     1002410 <strncat+0x2a>
 100240a:	ac                   	lods   %ds:(%esi),%al
 100240b:	aa                   	stos   %al,%es:(%edi)
 100240c:	84 c0                	test   %al,%al
 100240e:	75 f7                	jne    1002407 <strncat+0x21>
 1002410:	31 c0                	xor    %eax,%eax
 1002412:	aa                   	stos   %al,%es:(%edi)
 1002413:	8b 45 08             	mov    0x8(%ebp),%eax
 1002416:	5b                   	pop    %ebx
 1002417:	5e                   	pop    %esi
 1002418:	5f                   	pop    %edi
 1002419:	5d                   	pop    %ebp
 100241a:	c3                   	ret    

0100241b <strcmp>:
 100241b:	55                   	push   %ebp
 100241c:	89 e5                	mov    %esp,%ebp
 100241e:	57                   	push   %edi
 100241f:	56                   	push   %esi
 1002420:	8b 45 08             	mov    0x8(%ebp),%eax
 1002423:	8b 55 0c             	mov    0xc(%ebp),%edx
 1002426:	89 c7                	mov    %eax,%edi
 1002428:	89 d6                	mov    %edx,%esi
 100242a:	fc                   	cld    
 100242b:	ac                   	lods   %ds:(%esi),%al
 100242c:	ae                   	scas   %es:(%edi),%al
 100242d:	75 08                	jne    1002437 <strcmp+0x1c>
 100242f:	84 c0                	test   %al,%al
 1002431:	75 f8                	jne    100242b <strcmp+0x10>
 1002433:	31 c0                	xor    %eax,%eax
 1002435:	eb 09                	jmp    1002440 <strcmp+0x25>
 1002437:	b8 01 00 00 00       	mov    $0x1,%eax
 100243c:	7c 02                	jl     1002440 <strcmp+0x25>
 100243e:	f7 d8                	neg    %eax
 1002440:	5e                   	pop    %esi
 1002441:	5f                   	pop    %edi
 1002442:	5d                   	pop    %ebp
 1002443:	c3                   	ret    

01002444 <strncmp>:
 1002444:	55                   	push   %ebp
 1002445:	89 e5                	mov    %esp,%ebp
 1002447:	57                   	push   %edi
 1002448:	56                   	push   %esi
 1002449:	8b 45 08             	mov    0x8(%ebp),%eax
 100244c:	8b 55 0c             	mov    0xc(%ebp),%edx
 100244f:	8b 4d 10             	mov    0x10(%ebp),%ecx
 1002452:	89 c7                	mov    %eax,%edi
 1002454:	89 d6                	mov    %edx,%esi
 1002456:	fc                   	cld    
 1002457:	49                   	dec    %ecx
 1002458:	78 08                	js     1002462 <strncmp+0x1e>
 100245a:	ac                   	lods   %ds:(%esi),%al
 100245b:	ae                   	scas   %es:(%edi),%al
 100245c:	75 08                	jne    1002466 <strncmp+0x22>
 100245e:	84 c0                	test   %al,%al
 1002460:	75 f5                	jne    1002457 <strncmp+0x13>
 1002462:	31 c0                	xor    %eax,%eax
 1002464:	eb 09                	jmp    100246f <strncmp+0x2b>
 1002466:	b8 01 00 00 00       	mov    $0x1,%eax
 100246b:	7c 02                	jl     100246f <strncmp+0x2b>
 100246d:	f7 d8                	neg    %eax
 100246f:	5e                   	pop    %esi
 1002470:	5f                   	pop    %edi
 1002471:	5d                   	pop    %ebp
 1002472:	c3                   	ret    

01002473 <strchr>:
 1002473:	55                   	push   %ebp
 1002474:	89 e5                	mov    %esp,%ebp
 1002476:	56                   	push   %esi
 1002477:	83 ec 04             	sub    $0x4,%esp
 100247a:	8b 45 0c             	mov    0xc(%ebp),%eax
 100247d:	88 45 f8             	mov    %al,-0x8(%ebp)
 1002480:	8b 55 08             	mov    0x8(%ebp),%edx
 1002483:	0f b6 45 f8          	movzbl -0x8(%ebp),%eax
 1002487:	89 d6                	mov    %edx,%esi
 1002489:	fc                   	cld    
 100248a:	88 c4                	mov    %al,%ah
 100248c:	ac                   	lods   %ds:(%esi),%al
 100248d:	38 e0                	cmp    %ah,%al
 100248f:	74 09                	je     100249a <strchr+0x27>
 1002491:	84 c0                	test   %al,%al
 1002493:	75 f7                	jne    100248c <strchr+0x19>
 1002495:	be 01 00 00 00       	mov    $0x1,%esi
 100249a:	89 f0                	mov    %esi,%eax
 100249c:	48                   	dec    %eax
 100249d:	83 c4 04             	add    $0x4,%esp
 10024a0:	5e                   	pop    %esi
 10024a1:	5d                   	pop    %ebp
 10024a2:	c3                   	ret    

010024a3 <strrchr>:
 10024a3:	55                   	push   %ebp
 10024a4:	89 e5                	mov    %esp,%ebp
 10024a6:	56                   	push   %esi
 10024a7:	83 ec 04             	sub    $0x4,%esp
 10024aa:	8b 45 0c             	mov    0xc(%ebp),%eax
 10024ad:	88 45 f8             	mov    %al,-0x8(%ebp)
 10024b0:	ba 00 00 00 00       	mov    $0x0,%edx
 10024b5:	8b 4d 08             	mov    0x8(%ebp),%ecx
 10024b8:	0f b6 45 f8          	movzbl -0x8(%ebp),%eax
 10024bc:	89 ce                	mov    %ecx,%esi
 10024be:	fc                   	cld    
 10024bf:	88 c4                	mov    %al,%ah
 10024c1:	ac                   	lods   %ds:(%esi),%al
 10024c2:	38 e0                	cmp    %ah,%al
 10024c4:	75 03                	jne    10024c9 <strrchr+0x26>
 10024c6:	89 f2                	mov    %esi,%edx
 10024c8:	4a                   	dec    %edx
 10024c9:	84 c0                	test   %al,%al
 10024cb:	75 f4                	jne    10024c1 <strrchr+0x1e>
 10024cd:	89 d0                	mov    %edx,%eax
 10024cf:	83 c4 04             	add    $0x4,%esp
 10024d2:	5e                   	pop    %esi
 10024d3:	5d                   	pop    %ebp
 10024d4:	c3                   	ret    

010024d5 <strspn>:
 10024d5:	55                   	push   %ebp
 10024d6:	89 e5                	mov    %esp,%ebp
 10024d8:	56                   	push   %esi
 10024d9:	b8 00 00 00 00       	mov    $0x0,%eax
 10024de:	ba ff ff ff ff       	mov    $0xffffffff,%edx
 10024e3:	8b 4d 08             	mov    0x8(%ebp),%ecx
 10024e6:	89 ce                	mov    %ecx,%esi
 10024e8:	89 d1                	mov    %edx,%ecx
 10024ea:	fc                   	cld    
 10024eb:	8b 7d 0c             	mov    0xc(%ebp),%edi
 10024ee:	f2 ae                	repnz scas %es:(%edi),%al
 10024f0:	f7 d1                	not    %ecx
 10024f2:	49                   	dec    %ecx
 10024f3:	89 ca                	mov    %ecx,%edx
 10024f5:	ac                   	lods   %ds:(%esi),%al
 10024f6:	84 c0                	test   %al,%al
 10024f8:	74 09                	je     1002503 <strspn+0x2e>
 10024fa:	8b 7d 0c             	mov    0xc(%ebp),%edi
 10024fd:	89 d1                	mov    %edx,%ecx
 10024ff:	f2 ae                	repnz scas %es:(%edi),%al
 1002501:	74 f2                	je     10024f5 <strspn+0x20>
 1002503:	4e                   	dec    %esi
 1002504:	89 f0                	mov    %esi,%eax
 1002506:	89 c2                	mov    %eax,%edx
 1002508:	8b 45 08             	mov    0x8(%ebp),%eax
 100250b:	89 d1                	mov    %edx,%ecx
 100250d:	29 c1                	sub    %eax,%ecx
 100250f:	89 c8                	mov    %ecx,%eax
 1002511:	5e                   	pop    %esi
 1002512:	5d                   	pop    %ebp
 1002513:	c3                   	ret    

01002514 <strcspn>:
 1002514:	55                   	push   %ebp
 1002515:	89 e5                	mov    %esp,%ebp
 1002517:	56                   	push   %esi
 1002518:	b8 00 00 00 00       	mov    $0x0,%eax
 100251d:	ba ff ff ff ff       	mov    $0xffffffff,%edx
 1002522:	8b 4d 08             	mov    0x8(%ebp),%ecx
 1002525:	89 ce                	mov    %ecx,%esi
 1002527:	89 d1                	mov    %edx,%ecx
 1002529:	fc                   	cld    
 100252a:	8b 7d 0c             	mov    0xc(%ebp),%edi
 100252d:	f2 ae                	repnz scas %es:(%edi),%al
 100252f:	f7 d1                	not    %ecx
 1002531:	49                   	dec    %ecx
 1002532:	89 ca                	mov    %ecx,%edx
 1002534:	ac                   	lods   %ds:(%esi),%al
 1002535:	84 c0                	test   %al,%al
 1002537:	74 09                	je     1002542 <strcspn+0x2e>
 1002539:	8b 7d 0c             	mov    0xc(%ebp),%edi
 100253c:	89 d1                	mov    %edx,%ecx
 100253e:	f2 ae                	repnz scas %es:(%edi),%al
 1002540:	75 f2                	jne    1002534 <strcspn+0x20>
 1002542:	4e                   	dec    %esi
 1002543:	89 f0                	mov    %esi,%eax
 1002545:	89 c2                	mov    %eax,%edx
 1002547:	8b 45 08             	mov    0x8(%ebp),%eax
 100254a:	89 d1                	mov    %edx,%ecx
 100254c:	29 c1                	sub    %eax,%ecx
 100254e:	89 c8                	mov    %ecx,%eax
 1002550:	5e                   	pop    %esi
 1002551:	5d                   	pop    %ebp
 1002552:	c3                   	ret    

01002553 <strpbrk>:
 1002553:	55                   	push   %ebp
 1002554:	89 e5                	mov    %esp,%ebp
 1002556:	56                   	push   %esi
 1002557:	b8 00 00 00 00       	mov    $0x0,%eax
 100255c:	ba ff ff ff ff       	mov    $0xffffffff,%edx
 1002561:	8b 4d 08             	mov    0x8(%ebp),%ecx
 1002564:	89 ce                	mov    %ecx,%esi
 1002566:	89 d1                	mov    %edx,%ecx
 1002568:	fc                   	cld    
 1002569:	8b 7d 0c             	mov    0xc(%ebp),%edi
 100256c:	f2 ae                	repnz scas %es:(%edi),%al
 100256e:	f7 d1                	not    %ecx
 1002570:	49                   	dec    %ecx
 1002571:	89 ca                	mov    %ecx,%edx
 1002573:	ac                   	lods   %ds:(%esi),%al
 1002574:	84 c0                	test   %al,%al
 1002576:	74 0c                	je     1002584 <strpbrk+0x31>
 1002578:	8b 7d 0c             	mov    0xc(%ebp),%edi
 100257b:	89 d1                	mov    %edx,%ecx
 100257d:	f2 ae                	repnz scas %es:(%edi),%al
 100257f:	75 f2                	jne    1002573 <strpbrk+0x20>
 1002581:	4e                   	dec    %esi
 1002582:	eb 02                	jmp    1002586 <strpbrk+0x33>
 1002584:	31 f6                	xor    %esi,%esi
 1002586:	89 f0                	mov    %esi,%eax
 1002588:	5e                   	pop    %esi
 1002589:	5d                   	pop    %ebp
 100258a:	c3                   	ret    

0100258b <strstr>:
 100258b:	55                   	push   %ebp
 100258c:	89 e5                	mov    %esp,%ebp
 100258e:	56                   	push   %esi
 100258f:	53                   	push   %ebx
 1002590:	b8 00 00 00 00       	mov    $0x0,%eax
 1002595:	ba ff ff ff ff       	mov    $0xffffffff,%edx
 100259a:	8b 5d 08             	mov    0x8(%ebp),%ebx
 100259d:	89 d1                	mov    %edx,%ecx
 100259f:	89 de                	mov    %ebx,%esi
 10025a1:	fc                   	cld    
 10025a2:	8b 7d 0c             	mov    0xc(%ebp),%edi
 10025a5:	f2 ae                	repnz scas %es:(%edi),%al
 10025a7:	f7 d1                	not    %ecx
 10025a9:	49                   	dec    %ecx
 10025aa:	89 ca                	mov    %ecx,%edx
 10025ac:	8b 7d 0c             	mov    0xc(%ebp),%edi
 10025af:	89 f0                	mov    %esi,%eax
 10025b1:	89 d1                	mov    %edx,%ecx
 10025b3:	f3 a6                	repz cmpsb %es:(%edi),%ds:(%esi)
 10025b5:	74 0a                	je     10025c1 <strstr+0x36>
 10025b7:	96                   	xchg   %eax,%esi
 10025b8:	46                   	inc    %esi
 10025b9:	80 78 ff 00          	cmpb   $0x0,-0x1(%eax)
 10025bd:	75 ed                	jne    10025ac <strstr+0x21>
 10025bf:	31 c0                	xor    %eax,%eax
 10025c1:	5b                   	pop    %ebx
 10025c2:	5e                   	pop    %esi
 10025c3:	5d                   	pop    %ebp
 10025c4:	c3                   	ret    

010025c5 <strlen>:
 10025c5:	55                   	push   %ebp
 10025c6:	89 e5                	mov    %esp,%ebp
 10025c8:	57                   	push   %edi
 10025c9:	8b 55 08             	mov    0x8(%ebp),%edx
 10025cc:	b8 00 00 00 00       	mov    $0x0,%eax
 10025d1:	b9 ff ff ff ff       	mov    $0xffffffff,%ecx
 10025d6:	89 d7                	mov    %edx,%edi
 10025d8:	fc                   	cld    
 10025d9:	f2 ae                	repnz scas %es:(%edi),%al
 10025db:	f7 d1                	not    %ecx
 10025dd:	49                   	dec    %ecx
 10025de:	89 c8                	mov    %ecx,%eax
 10025e0:	5f                   	pop    %edi
 10025e1:	5d                   	pop    %ebp
 10025e2:	c3                   	ret    

010025e3 <memcpy>:
 10025e3:	55                   	push   %ebp
 10025e4:	89 e5                	mov    %esp,%ebp
 10025e6:	57                   	push   %edi
 10025e7:	56                   	push   %esi
 10025e8:	53                   	push   %ebx
 10025e9:	8b 45 10             	mov    0x10(%ebp),%eax
 10025ec:	8b 55 0c             	mov    0xc(%ebp),%edx
 10025ef:	8b 5d 08             	mov    0x8(%ebp),%ebx
 10025f2:	89 c1                	mov    %eax,%ecx
 10025f4:	89 d6                	mov    %edx,%esi
 10025f6:	89 df                	mov    %ebx,%edi
 10025f8:	fc                   	cld    
 10025f9:	f3 a4                	rep movsb %ds:(%esi),%es:(%edi)
 10025fb:	8b 45 08             	mov    0x8(%ebp),%eax
 10025fe:	5b                   	pop    %ebx
 10025ff:	5e                   	pop    %esi
 1002600:	5f                   	pop    %edi
 1002601:	5d                   	pop    %ebp
 1002602:	c3                   	ret    

01002603 <memmove>:
 1002603:	55                   	push   %ebp
 1002604:	89 e5                	mov    %esp,%ebp
 1002606:	57                   	push   %edi
 1002607:	56                   	push   %esi
 1002608:	53                   	push   %ebx
 1002609:	8b 45 08             	mov    0x8(%ebp),%eax
 100260c:	3b 45 0c             	cmp    0xc(%ebp),%eax
 100260f:	73 14                	jae    1002625 <memmove+0x22>
 1002611:	8b 45 10             	mov    0x10(%ebp),%eax
 1002614:	8b 55 0c             	mov    0xc(%ebp),%edx
 1002617:	8b 5d 08             	mov    0x8(%ebp),%ebx
 100261a:	89 c1                	mov    %eax,%ecx
 100261c:	89 d6                	mov    %edx,%esi
 100261e:	89 df                	mov    %ebx,%edi
 1002620:	fc                   	cld    
 1002621:	f3 a4                	rep movsb %ds:(%esi),%es:(%edi)
 1002623:	eb 24                	jmp    1002649 <memmove+0x46>
 1002625:	8b 45 0c             	mov    0xc(%ebp),%eax
 1002628:	8b 55 10             	mov    0x10(%ebp),%edx
 100262b:	83 ea 01             	sub    $0x1,%edx
 100262e:	8d 14 10             	lea    (%eax,%edx,1),%edx
 1002631:	8b 45 08             	mov    0x8(%ebp),%eax
 1002634:	8b 4d 10             	mov    0x10(%ebp),%ecx
 1002637:	83 e9 01             	sub    $0x1,%ecx
 100263a:	8d 1c 08             	lea    (%eax,%ecx,1),%ebx
 100263d:	8b 45 10             	mov    0x10(%ebp),%eax
 1002640:	89 c1                	mov    %eax,%ecx
 1002642:	89 d6                	mov    %edx,%esi
 1002644:	89 df                	mov    %ebx,%edi
 1002646:	fd                   	std    
 1002647:	f3 a4                	rep movsb %ds:(%esi),%es:(%edi)
 1002649:	8b 45 08             	mov    0x8(%ebp),%eax
 100264c:	5b                   	pop    %ebx
 100264d:	5e                   	pop    %esi
 100264e:	5f                   	pop    %edi
 100264f:	5d                   	pop    %ebp
 1002650:	c3                   	ret    

01002651 <memcmp>:
 1002651:	55                   	push   %ebp
 1002652:	89 e5                	mov    %esp,%ebp
 1002654:	57                   	push   %edi
 1002655:	56                   	push   %esi
 1002656:	53                   	push   %ebx
 1002657:	b8 00 00 00 00       	mov    $0x0,%eax
 100265c:	8b 55 08             	mov    0x8(%ebp),%edx
 100265f:	8b 5d 0c             	mov    0xc(%ebp),%ebx
 1002662:	8b 4d 10             	mov    0x10(%ebp),%ecx
 1002665:	89 d7                	mov    %edx,%edi
 1002667:	89 de                	mov    %ebx,%esi
 1002669:	fc                   	cld    
 100266a:	f3 a6                	repz cmpsb %es:(%edi),%ds:(%esi)
 100266c:	74 09                	je     1002677 <memcmp+0x26>
 100266e:	b8 01 00 00 00       	mov    $0x1,%eax
 1002673:	7c 02                	jl     1002677 <memcmp+0x26>
 1002675:	f7 d8                	neg    %eax
 1002677:	5b                   	pop    %ebx
 1002678:	5e                   	pop    %esi
 1002679:	5f                   	pop    %edi
 100267a:	5d                   	pop    %ebp
 100267b:	c3                   	ret    

0100267c <memset>:
 100267c:	55                   	push   %ebp
 100267d:	89 e5                	mov    %esp,%ebp
 100267f:	57                   	push   %edi
 1002680:	83 ec 04             	sub    $0x4,%esp
 1002683:	8b 45 0c             	mov    0xc(%ebp),%eax
 1002686:	88 45 f8             	mov    %al,-0x8(%ebp)
 1002689:	0f b6 45 f8          	movzbl -0x8(%ebp),%eax
 100268d:	8b 55 08             	mov    0x8(%ebp),%edx
 1002690:	8b 4d 10             	mov    0x10(%ebp),%ecx
 1002693:	89 d7                	mov    %edx,%edi
 1002695:	fc                   	cld    
 1002696:	f3 aa                	rep stos %al,%es:(%edi)
 1002698:	8b 45 08             	mov    0x8(%ebp),%eax
 100269b:	83 c4 04             	add    $0x4,%esp
 100269e:	5f                   	pop    %edi
 100269f:	5d                   	pop    %ebp
 10026a0:	c3                   	ret    

010026a1 <clock>:
 10026a1:	55                   	push   %ebp
 10026a2:	89 e5                	mov    %esp,%ebp
 10026a4:	53                   	push   %ebx
 10026a5:	83 ec 14             	sub    $0x14,%esp
 10026a8:	c7 45 e8 0b 00 00 00 	movl   $0xb,-0x18(%ebp)
 10026af:	8b 45 e8             	mov    -0x18(%ebp),%eax
 10026b2:	cd 80                	int    $0x80
 10026b4:	89 c3                	mov    %eax,%ebx
 10026b6:	89 5d f8             	mov    %ebx,-0x8(%ebp)
 10026b9:	83 7d f8 00          	cmpl   $0x0,-0x8(%ebp)
 10026bd:	79 11                	jns    10026d0 <clock+0x2f>
 10026bf:	8b 45 f8             	mov    -0x8(%ebp),%eax
 10026c2:	f7 d8                	neg    %eax
 10026c4:	a3 32 00 00 01       	mov    %eax,0x1000032
 10026c9:	b8 ff ff ff ff       	mov    $0xffffffff,%eax
 10026ce:	eb 03                	jmp    10026d3 <clock+0x32>
 10026d0:	8b 45 f8             	mov    -0x8(%ebp),%eax
 10026d3:	83 c4 14             	add    $0x14,%esp
 10026d6:	5b                   	pop    %ebx
 10026d7:	5d                   	pop    %ebp
 10026d8:	c3                   	ret    

010026d9 <rand>:
 10026d9:	55                   	push   %ebp
 10026da:	89 e5                	mov    %esp,%ebp
 10026dc:	53                   	push   %ebx
 10026dd:	a1 68 53 00 01       	mov    0x1005368,%eax
 10026e2:	8b 15 6c 53 00 01    	mov    0x100536c,%edx
 10026e8:	69 ca 2d 7f 95 4c    	imul   $0x4c957f2d,%edx,%ecx
 10026ee:	69 d8 2d f4 51 58    	imul   $0x5851f42d,%eax,%ebx
 10026f4:	01 d9                	add    %ebx,%ecx
 10026f6:	bb 2d 7f 95 4c       	mov    $0x4c957f2d,%ebx
 10026fb:	f7 e3                	mul    %ebx
 10026fd:	01 d1                	add    %edx,%ecx
 10026ff:	89 ca                	mov    %ecx,%edx
 1002701:	83 c0 01             	add    $0x1,%eax
 1002704:	83 d2 00             	adc    $0x0,%edx
 1002707:	a3 68 53 00 01       	mov    %eax,0x1005368
 100270c:	89 15 6c 53 00 01    	mov    %edx,0x100536c
 1002712:	a1 68 53 00 01       	mov    0x1005368,%eax
 1002717:	8b 15 6c 53 00 01    	mov    0x100536c,%edx
 100271d:	89 d0                	mov    %edx,%eax
 100271f:	31 d2                	xor    %edx,%edx
 1002721:	25 ff 7f 00 00       	and    $0x7fff,%eax
 1002726:	5b                   	pop    %ebx
 1002727:	5d                   	pop    %ebp
 1002728:	c3                   	ret    

01002729 <srand>:
 1002729:	55                   	push   %ebp
 100272a:	89 e5                	mov    %esp,%ebp
 100272c:	8b 45 08             	mov    0x8(%ebp),%eax
 100272f:	ba 00 00 00 00       	mov    $0x0,%edx
 1002734:	a3 68 53 00 01       	mov    %eax,0x1005368
 1002739:	89 15 6c 53 00 01    	mov    %edx,0x100536c
 100273f:	5d                   	pop    %ebp
 1002740:	c3                   	ret    

01002741 <freopen>:
 1002741:	55                   	push   %ebp
 1002742:	89 e5                	mov    %esp,%ebp
 1002744:	53                   	push   %ebx
 1002745:	83 ec 20             	sub    $0x20,%esp
 1002748:	c7 45 f8 ff ff ff ff 	movl   $0xffffffff,-0x8(%ebp)
 100274f:	c7 44 24 04 7b 3f 00 	movl   $0x1003f7b,0x4(%esp)
 1002756:	01 
 1002757:	8b 45 08             	mov    0x8(%ebp),%eax
 100275a:	89 04 24             	mov    %eax,(%esp)
 100275d:	e8 b9 fc ff ff       	call   100241b <strcmp>
 1002762:	85 c0                	test   %eax,%eax
 1002764:	75 09                	jne    100276f <freopen+0x2e>
 1002766:	c7 45 f8 00 00 00 00 	movl   $0x0,-0x8(%ebp)
 100276d:	eb 5e                	jmp    10027cd <freopen+0x8c>
 100276f:	c7 44 24 04 81 3f 00 	movl   $0x1003f81,0x4(%esp)
 1002776:	01 
 1002777:	8b 45 08             	mov    0x8(%ebp),%eax
 100277a:	89 04 24             	mov    %eax,(%esp)
 100277d:	e8 99 fc ff ff       	call   100241b <strcmp>
 1002782:	85 c0                	test   %eax,%eax
 1002784:	75 09                	jne    100278f <freopen+0x4e>
 1002786:	c7 45 f8 01 00 00 00 	movl   $0x1,-0x8(%ebp)
 100278d:	eb 3e                	jmp    10027cd <freopen+0x8c>
 100278f:	c7 44 24 04 87 3f 00 	movl   $0x1003f87,0x4(%esp)
 1002796:	01 
 1002797:	8b 45 08             	mov    0x8(%ebp),%eax
 100279a:	89 04 24             	mov    %eax,(%esp)
 100279d:	e8 79 fc ff ff       	call   100241b <strcmp>
 10027a2:	85 c0                	test   %eax,%eax
 10027a4:	75 09                	jne    10027af <freopen+0x6e>
 10027a6:	c7 45 f8 02 00 00 00 	movl   $0x2,-0x8(%ebp)
 10027ad:	eb 1e                	jmp    10027cd <freopen+0x8c>
 10027af:	c7 44 24 04 8d 3f 00 	movl   $0x1003f8d,0x4(%esp)
 10027b6:	01 
 10027b7:	8b 45 08             	mov    0x8(%ebp),%eax
 10027ba:	89 04 24             	mov    %eax,(%esp)
 10027bd:	e8 59 fc ff ff       	call   100241b <strcmp>
 10027c2:	85 c0                	test   %eax,%eax
 10027c4:	75 07                	jne    10027cd <freopen+0x8c>
 10027c6:	c7 45 f8 03 00 00 00 	movl   $0x3,-0x8(%ebp)
 10027cd:	83 7d f8 ff          	cmpl   $0xffffffff,-0x8(%ebp)
 10027d1:	75 07                	jne    10027da <freopen+0x99>
 10027d3:	b8 00 00 00 00       	mov    $0x0,%eax
 10027d8:	eb 2f                	jmp    1002809 <freopen+0xc8>
 10027da:	c7 45 e4 01 00 00 00 	movl   $0x1,-0x1c(%ebp)
 10027e1:	8b 55 f8             	mov    -0x8(%ebp),%edx
 10027e4:	8b 45 e4             	mov    -0x1c(%ebp),%eax
 10027e7:	89 d3                	mov    %edx,%ebx
 10027e9:	cd 80                	int    $0x80
 10027eb:	89 45 e8             	mov    %eax,-0x18(%ebp)
 10027ee:	8b 45 e8             	mov    -0x18(%ebp),%eax
 10027f1:	89 45 f4             	mov    %eax,-0xc(%ebp)
 10027f4:	83 7d f4 00          	cmpl   $0x0,-0xc(%ebp)
 10027f8:	79 0a                	jns    1002804 <freopen+0xc3>
 10027fa:	8b 45 f4             	mov    -0xc(%ebp),%eax
 10027fd:	f7 d8                	neg    %eax
 10027ff:	a3 32 00 00 01       	mov    %eax,0x1000032
 1002804:	b8 01 00 00 00       	mov    $0x1,%eax
 1002809:	83 c4 20             	add    $0x20,%esp
 100280c:	5b                   	pop    %ebx
 100280d:	5d                   	pop    %ebp
 100280e:	c3                   	ret    

0100280f <gettime>:
 100280f:	55                   	push   %ebp
 1002810:	89 e5                	mov    %esp,%ebp
 1002812:	53                   	push   %ebx
 1002813:	83 ec 14             	sub    $0x14,%esp
 1002816:	c7 45 e8 11 00 00 00 	movl   $0x11,-0x18(%ebp)
 100281d:	8b 45 e8             	mov    -0x18(%ebp),%eax
 1002820:	cd 80                	int    $0x80
 1002822:	89 c3                	mov    %eax,%ebx
 1002824:	89 5d f8             	mov    %ebx,-0x8(%ebp)
 1002827:	83 7d f8 00          	cmpl   $0x0,-0x8(%ebp)
 100282b:	79 11                	jns    100283e <gettime+0x2f>
 100282d:	8b 45 f8             	mov    -0x8(%ebp),%eax
 1002830:	f7 d8                	neg    %eax
 1002832:	a3 32 00 00 01       	mov    %eax,0x1000032
 1002837:	b8 ff ff ff ff       	mov    $0xffffffff,%eax
 100283c:	eb 03                	jmp    1002841 <gettime+0x32>
 100283e:	8b 45 f8             	mov    -0x8(%ebp),%eax
 1002841:	83 c4 14             	add    $0x14,%esp
 1002844:	5b                   	pop    %ebx
 1002845:	5d                   	pop    %ebp
 1002846:	c3                   	ret    

01002847 <tty_read>:
 1002847:	55                   	push   %ebp
 1002848:	89 e5                	mov    %esp,%ebp
 100284a:	53                   	push   %ebx
 100284b:	83 ec 18             	sub    $0x18,%esp
 100284e:	c7 45 e4 03 00 00 00 	movl   $0x3,-0x1c(%ebp)
 1002855:	8b 55 08             	mov    0x8(%ebp),%edx
 1002858:	8b 4d 0c             	mov    0xc(%ebp),%ecx
 100285b:	8b 45 e4             	mov    -0x1c(%ebp),%eax
 100285e:	89 d3                	mov    %edx,%ebx
 1002860:	cd 80                	int    $0x80
 1002862:	89 45 e8             	mov    %eax,-0x18(%ebp)
 1002865:	8b 45 e8             	mov    -0x18(%ebp),%eax
 1002868:	89 45 f8             	mov    %eax,-0x8(%ebp)
 100286b:	83 7d f8 00          	cmpl   $0x0,-0x8(%ebp)
 100286f:	79 11                	jns    1002882 <tty_read+0x3b>
 1002871:	8b 45 f8             	mov    -0x8(%ebp),%eax
 1002874:	f7 d8                	neg    %eax
 1002876:	a3 32 00 00 01       	mov    %eax,0x1000032
 100287b:	b8 ff ff ff ff       	mov    $0xffffffff,%eax
 1002880:	eb 03                	jmp    1002885 <tty_read+0x3e>
 1002882:	8b 45 f8             	mov    -0x8(%ebp),%eax
 1002885:	83 c4 18             	add    $0x18,%esp
 1002888:	5b                   	pop    %ebx
 1002889:	5d                   	pop    %ebp
 100288a:	c3                   	ret    

0100288b <tty_write>:
 100288b:	55                   	push   %ebp
 100288c:	89 e5                	mov    %esp,%ebp
 100288e:	53                   	push   %ebx
 100288f:	83 ec 18             	sub    $0x18,%esp
 1002892:	c7 45 e4 04 00 00 00 	movl   $0x4,-0x1c(%ebp)
 1002899:	8b 55 08             	mov    0x8(%ebp),%edx
 100289c:	8b 4d 0c             	mov    0xc(%ebp),%ecx
 100289f:	8b 45 e4             	mov    -0x1c(%ebp),%eax
 10028a2:	89 d3                	mov    %edx,%ebx
 10028a4:	cd 80                	int    $0x80
 10028a6:	89 45 e8             	mov    %eax,-0x18(%ebp)
 10028a9:	8b 45 e8             	mov    -0x18(%ebp),%eax
 10028ac:	89 45 f8             	mov    %eax,-0x8(%ebp)
 10028af:	83 7d f8 00          	cmpl   $0x0,-0x8(%ebp)
 10028b3:	79 11                	jns    10028c6 <tty_write+0x3b>
 10028b5:	8b 45 f8             	mov    -0x8(%ebp),%eax
 10028b8:	f7 d8                	neg    %eax
 10028ba:	a3 32 00 00 01       	mov    %eax,0x1000032
 10028bf:	b8 ff ff ff ff       	mov    $0xffffffff,%eax
 10028c4:	eb 03                	jmp    10028c9 <tty_write+0x3e>
 10028c6:	8b 45 f8             	mov    -0x8(%ebp),%eax
 10028c9:	83 c4 18             	add    $0x18,%esp
 10028cc:	5b                   	pop    %ebx
 10028cd:	5d                   	pop    %ebp
 10028ce:	c3                   	ret    

010028cf <fork>:
 10028cf:	55                   	push   %ebp
 10028d0:	89 e5                	mov    %esp,%ebp
 10028d2:	53                   	push   %ebx
 10028d3:	83 ec 14             	sub    $0x14,%esp
 10028d6:	c7 45 e8 08 00 00 00 	movl   $0x8,-0x18(%ebp)
 10028dd:	8b 45 e8             	mov    -0x18(%ebp),%eax
 10028e0:	cd 80                	int    $0x80
 10028e2:	89 c3                	mov    %eax,%ebx
 10028e4:	89 5d f8             	mov    %ebx,-0x8(%ebp)
 10028e7:	83 7d f8 00          	cmpl   $0x0,-0x8(%ebp)
 10028eb:	79 11                	jns    10028fe <fork+0x2f>
 10028ed:	8b 45 f8             	mov    -0x8(%ebp),%eax
 10028f0:	f7 d8                	neg    %eax
 10028f2:	a3 32 00 00 01       	mov    %eax,0x1000032
 10028f7:	b8 ff ff ff ff       	mov    $0xffffffff,%eax
 10028fc:	eb 03                	jmp    1002901 <fork+0x32>
 10028fe:	8b 45 f8             	mov    -0x8(%ebp),%eax
 1002901:	83 c4 14             	add    $0x14,%esp
 1002904:	5b                   	pop    %ebx
 1002905:	5d                   	pop    %ebp
 1002906:	c3                   	ret    

01002907 <exit>:
 1002907:	55                   	push   %ebp
 1002908:	89 e5                	mov    %esp,%ebp
 100290a:	53                   	push   %ebx
 100290b:	83 ec 18             	sub    $0x18,%esp
 100290e:	c7 45 e4 09 00 00 00 	movl   $0x9,-0x1c(%ebp)
 1002915:	8b 55 08             	mov    0x8(%ebp),%edx
 1002918:	8b 45 e4             	mov    -0x1c(%ebp),%eax
 100291b:	89 d3                	mov    %edx,%ebx
 100291d:	cd 80                	int    $0x80
 100291f:	89 45 e8             	mov    %eax,-0x18(%ebp)
 1002922:	8b 45 e8             	mov    -0x18(%ebp),%eax
 1002925:	89 45 f8             	mov    %eax,-0x8(%ebp)
 1002928:	83 7d f8 00          	cmpl   $0x0,-0x8(%ebp)
 100292c:	79 0a                	jns    1002938 <exit+0x31>
 100292e:	8b 45 f8             	mov    -0x8(%ebp),%eax
 1002931:	f7 d8                	neg    %eax
 1002933:	a3 32 00 00 01       	mov    %eax,0x1000032
 1002938:	83 c4 18             	add    $0x18,%esp
 100293b:	5b                   	pop    %ebx
 100293c:	5d                   	pop    %ebp
 100293d:	c3                   	ret    

0100293e <waitpid>:
 100293e:	55                   	push   %ebp
 100293f:	89 e5                	mov    %esp,%ebp
 1002941:	53                   	push   %ebx
 1002942:	83 ec 14             	sub    $0x14,%esp
 1002945:	c7 45 e8 0d 00 00 00 	movl   $0xd,-0x18(%ebp)
 100294c:	8b 5d 08             	mov    0x8(%ebp),%ebx
 100294f:	8b 4d 0c             	mov    0xc(%ebp),%ecx
 1002952:	8b 55 10             	mov    0x10(%ebp),%edx
 1002955:	8b 45 e8             	mov    -0x18(%ebp),%eax
 1002958:	cd 80                	int    $0x80
 100295a:	89 c3                	mov    %eax,%ebx
 100295c:	89 5d f8             	mov    %ebx,-0x8(%ebp)
 100295f:	83 7d f8 00          	cmpl   $0x0,-0x8(%ebp)
 1002963:	79 11                	jns    1002976 <waitpid+0x38>
 1002965:	8b 45 f8             	mov    -0x8(%ebp),%eax
 1002968:	f7 d8                	neg    %eax
 100296a:	a3 32 00 00 01       	mov    %eax,0x1000032
 100296f:	b8 ff ff ff ff       	mov    $0xffffffff,%eax
 1002974:	eb 03                	jmp    1002979 <waitpid+0x3b>
 1002976:	8b 45 f8             	mov    -0x8(%ebp),%eax
 1002979:	83 c4 14             	add    $0x14,%esp
 100297c:	5b                   	pop    %ebx
 100297d:	5d                   	pop    %ebp
 100297e:	c3                   	ret    

0100297f <exec>:
 100297f:	55                   	push   %ebp
 1002980:	89 e5                	mov    %esp,%ebp
 1002982:	53                   	push   %ebx
 1002983:	83 ec 18             	sub    $0x18,%esp
 1002986:	c7 45 e4 0e 00 00 00 	movl   $0xe,-0x1c(%ebp)
 100298d:	8b 55 08             	mov    0x8(%ebp),%edx
 1002990:	8b 45 e4             	mov    -0x1c(%ebp),%eax
 1002993:	89 d3                	mov    %edx,%ebx
 1002995:	cd 80                	int    $0x80
 1002997:	89 45 e8             	mov    %eax,-0x18(%ebp)
 100299a:	8b 45 e8             	mov    -0x18(%ebp),%eax
 100299d:	89 45 f8             	mov    %eax,-0x8(%ebp)
 10029a0:	83 7d f8 00          	cmpl   $0x0,-0x8(%ebp)
 10029a4:	79 11                	jns    10029b7 <exec+0x38>
 10029a6:	8b 45 f8             	mov    -0x8(%ebp),%eax
 10029a9:	f7 d8                	neg    %eax
 10029ab:	a3 32 00 00 01       	mov    %eax,0x1000032
 10029b0:	b8 ff ff ff ff       	mov    $0xffffffff,%eax
 10029b5:	eb 03                	jmp    10029ba <exec+0x3b>
 10029b7:	8b 45 f8             	mov    -0x8(%ebp),%eax
 10029ba:	83 c4 18             	add    $0x18,%esp
 10029bd:	5b                   	pop    %ebx
 10029be:	5d                   	pop    %ebp
 10029bf:	c3                   	ret    

010029c0 <getline>:
 10029c0:	55                   	push   %ebp
 10029c1:	89 e5                	mov    %esp,%ebp
 10029c3:	83 ec 28             	sub    $0x28,%esp
 10029c6:	c6 45 ef 00          	movb   $0x0,-0x11(%ebp)
 10029ca:	c6 45 ee 00          	movb   $0x0,-0x12(%ebp)
 10029ce:	c7 45 f4 00 00 00 00 	movl   $0x0,-0xc(%ebp)
 10029d5:	c7 44 24 04 01 00 00 	movl   $0x1,0x4(%esp)
 10029dc:	00 
 10029dd:	8d 45 ee             	lea    -0x12(%ebp),%eax
 10029e0:	89 04 24             	mov    %eax,(%esp)
 10029e3:	e8 5f fe ff ff       	call   1002847 <tty_read>
 10029e8:	89 45 f0             	mov    %eax,-0x10(%ebp)
 10029eb:	83 7d f0 00          	cmpl   $0x0,-0x10(%ebp)
 10029ef:	74 0c                	je     10029fd <getline+0x3d>
 10029f1:	c7 04 24 93 3f 00 01 	movl   $0x1003f93,(%esp)
 10029f8:	e8 5e 00 00 00       	call   1002a5b <uprint>
 10029fd:	83 7d f0 00          	cmpl   $0x0,-0x10(%ebp)
 1002a01:	75 48                	jne    1002a4b <getline+0x8b>
 1002a03:	0f b6 45 ee          	movzbl -0x12(%ebp),%eax
 1002a07:	3c 08                	cmp    $0x8,%al
 1002a09:	75 21                	jne    1002a2c <getline+0x6c>
 1002a0b:	83 7d f4 00          	cmpl   $0x0,-0xc(%ebp)
 1002a0f:	74 39                	je     1002a4a <getline+0x8a>
 1002a11:	83 6d f4 01          	subl   $0x1,-0xc(%ebp)
 1002a15:	83 6d 08 01          	subl   $0x1,0x8(%ebp)
 1002a19:	8b 45 08             	mov    0x8(%ebp),%eax
 1002a1c:	c6 00 00             	movb   $0x0,(%eax)
 1002a1f:	8d 45 ee             	lea    -0x12(%ebp),%eax
 1002a22:	89 04 24             	mov    %eax,(%esp)
 1002a25:	e8 31 00 00 00       	call   1002a5b <uprint>
 1002a2a:	eb 1f                	jmp    1002a4b <getline+0x8b>
 1002a2c:	83 45 f4 01          	addl   $0x1,-0xc(%ebp)
 1002a30:	8d 45 ee             	lea    -0x12(%ebp),%eax
 1002a33:	89 04 24             	mov    %eax,(%esp)
 1002a36:	e8 20 00 00 00       	call   1002a5b <uprint>
 1002a3b:	0f b6 55 ee          	movzbl -0x12(%ebp),%edx
 1002a3f:	8b 45 08             	mov    0x8(%ebp),%eax
 1002a42:	88 10                	mov    %dl,(%eax)
 1002a44:	83 45 08 01          	addl   $0x1,0x8(%ebp)
 1002a48:	eb 01                	jmp    1002a4b <getline+0x8b>
 1002a4a:	90                   	nop
 1002a4b:	0f b6 45 ee          	movzbl -0x12(%ebp),%eax
 1002a4f:	3c 0a                	cmp    $0xa,%al
 1002a51:	75 82                	jne    10029d5 <getline+0x15>
 1002a53:	8b 45 08             	mov    0x8(%ebp),%eax
 1002a56:	c6 00 00             	movb   $0x0,(%eax)
 1002a59:	c9                   	leave  
 1002a5a:	c3                   	ret    

01002a5b <uprint>:
 1002a5b:	55                   	push   %ebp
 1002a5c:	89 e5                	mov    %esp,%ebp
 1002a5e:	83 ec 18             	sub    $0x18,%esp
 1002a61:	8b 45 08             	mov    0x8(%ebp),%eax
 1002a64:	89 04 24             	mov    %eax,(%esp)
 1002a67:	e8 59 fb ff ff       	call   10025c5 <strlen>
 1002a6c:	89 45 fc             	mov    %eax,-0x4(%ebp)
 1002a6f:	8b 45 fc             	mov    -0x4(%ebp),%eax
 1002a72:	89 44 24 04          	mov    %eax,0x4(%esp)
 1002a76:	8b 45 08             	mov    0x8(%ebp),%eax
 1002a79:	89 04 24             	mov    %eax,(%esp)
 1002a7c:	e8 0a fe ff ff       	call   100288b <tty_write>
 1002a81:	c9                   	leave  
 1002a82:	c3                   	ret    

01002a83 <set_tty_attr>:
 1002a83:	55                   	push   %ebp
 1002a84:	89 e5                	mov    %esp,%ebp
 1002a86:	53                   	push   %ebx
 1002a87:	83 ec 18             	sub    $0x18,%esp
 1002a8a:	c7 45 e4 06 00 00 00 	movl   $0x6,-0x1c(%ebp)
 1002a91:	8b 55 08             	mov    0x8(%ebp),%edx
 1002a94:	8b 45 e4             	mov    -0x1c(%ebp),%eax
 1002a97:	89 d3                	mov    %edx,%ebx
 1002a99:	cd 80                	int    $0x80
 1002a9b:	89 45 e8             	mov    %eax,-0x18(%ebp)
 1002a9e:	8b 45 e8             	mov    -0x18(%ebp),%eax
 1002aa1:	89 45 f8             	mov    %eax,-0x8(%ebp)
 1002aa4:	83 7d f8 00          	cmpl   $0x0,-0x8(%ebp)
 1002aa8:	79 11                	jns    1002abb <set_tty_attr+0x38>
 1002aaa:	8b 45 f8             	mov    -0x8(%ebp),%eax
 1002aad:	f7 d8                	neg    %eax
 1002aaf:	a3 32 00 00 01       	mov    %eax,0x1000032
 1002ab4:	b8 ff ff ff ff       	mov    $0xffffffff,%eax
 1002ab9:	eb 03                	jmp    1002abe <set_tty_attr+0x3b>
 1002abb:	8b 45 f8             	mov    -0x8(%ebp),%eax
 1002abe:	83 c4 18             	add    $0x18,%esp
 1002ac1:	5b                   	pop    %ebx
 1002ac2:	5d                   	pop    %ebp
 1002ac3:	c3                   	ret    

01002ac4 <tty_goxy>:
 1002ac4:	55                   	push   %ebp
 1002ac5:	89 e5                	mov    %esp,%ebp
 1002ac7:	53                   	push   %ebx
 1002ac8:	83 ec 18             	sub    $0x18,%esp
 1002acb:	c7 45 e4 05 00 00 00 	movl   $0x5,-0x1c(%ebp)
 1002ad2:	8b 55 08             	mov    0x8(%ebp),%edx
 1002ad5:	8b 4d 0c             	mov    0xc(%ebp),%ecx
 1002ad8:	8b 45 e4             	mov    -0x1c(%ebp),%eax
 1002adb:	89 d3                	mov    %edx,%ebx
 1002add:	cd 80                	int    $0x80
 1002adf:	89 45 e8             	mov    %eax,-0x18(%ebp)
 1002ae2:	8b 45 e8             	mov    -0x18(%ebp),%eax
 1002ae5:	89 45 f8             	mov    %eax,-0x8(%ebp)
 1002ae8:	83 7d f8 00          	cmpl   $0x0,-0x8(%ebp)
 1002aec:	79 11                	jns    1002aff <tty_goxy+0x3b>
 1002aee:	8b 45 f8             	mov    -0x8(%ebp),%eax
 1002af1:	f7 d8                	neg    %eax
 1002af3:	a3 32 00 00 01       	mov    %eax,0x1000032
 1002af8:	b8 ff ff ff ff       	mov    $0xffffffff,%eax
 1002afd:	eb 03                	jmp    1002b02 <tty_goxy+0x3e>
 1002aff:	8b 45 f8             	mov    -0x8(%ebp),%eax
 1002b02:	83 c4 18             	add    $0x18,%esp
 1002b05:	5b                   	pop    %ebx
 1002b06:	5d                   	pop    %ebp
 1002b07:	c3                   	ret    

01002b08 <get_graph_info>:
 1002b08:	55                   	push   %ebp
 1002b09:	89 e5                	mov    %esp,%ebp
 1002b0b:	53                   	push   %ebx
 1002b0c:	83 ec 18             	sub    $0x18,%esp
 1002b0f:	c7 45 e4 12 00 00 00 	movl   $0x12,-0x1c(%ebp)
 1002b16:	8b 55 08             	mov    0x8(%ebp),%edx
 1002b19:	8b 45 e4             	mov    -0x1c(%ebp),%eax
 1002b1c:	89 d3                	mov    %edx,%ebx
 1002b1e:	cd 80                	int    $0x80
 1002b20:	89 45 e8             	mov    %eax,-0x18(%ebp)
 1002b23:	8b 45 e8             	mov    -0x18(%ebp),%eax
 1002b26:	89 45 f8             	mov    %eax,-0x8(%ebp)
 1002b29:	83 7d f8 00          	cmpl   $0x0,-0x8(%ebp)
 1002b2d:	79 11                	jns    1002b40 <get_graph_info+0x38>
 1002b2f:	8b 45 f8             	mov    -0x8(%ebp),%eax
 1002b32:	f7 d8                	neg    %eax
 1002b34:	a3 32 00 00 01       	mov    %eax,0x1000032
 1002b39:	b8 ff ff ff ff       	mov    $0xffffffff,%eax
 1002b3e:	eb 03                	jmp    1002b43 <get_graph_info+0x3b>
 1002b40:	8b 45 f8             	mov    -0x8(%ebp),%eax
 1002b43:	83 c4 18             	add    $0x18,%esp
 1002b46:	5b                   	pop    %ebx
 1002b47:	5d                   	pop    %ebp
 1002b48:	c3                   	ret    

01002b49 <tty_switch>:
 1002b49:	55                   	push   %ebp
 1002b4a:	89 e5                	mov    %esp,%ebp
 1002b4c:	53                   	push   %ebx
 1002b4d:	83 ec 18             	sub    $0x18,%esp
 1002b50:	c7 45 e4 02 00 00 00 	movl   $0x2,-0x1c(%ebp)
 1002b57:	8b 55 08             	mov    0x8(%ebp),%edx
 1002b5a:	8b 45 e4             	mov    -0x1c(%ebp),%eax
 1002b5d:	89 d3                	mov    %edx,%ebx
 1002b5f:	cd 80                	int    $0x80
 1002b61:	89 45 e8             	mov    %eax,-0x18(%ebp)
 1002b64:	8b 45 e8             	mov    -0x18(%ebp),%eax
 1002b67:	89 45 f8             	mov    %eax,-0x8(%ebp)
 1002b6a:	83 7d f8 00          	cmpl   $0x0,-0x8(%ebp)
 1002b6e:	79 11                	jns    1002b81 <tty_switch+0x38>
 1002b70:	8b 45 f8             	mov    -0x8(%ebp),%eax
 1002b73:	f7 d8                	neg    %eax
 1002b75:	a3 32 00 00 01       	mov    %eax,0x1000032
 1002b7a:	b8 ff ff ff ff       	mov    $0xffffffff,%eax
 1002b7f:	eb 03                	jmp    1002b84 <tty_switch+0x3b>
 1002b81:	8b 45 f8             	mov    -0x8(%ebp),%eax
 1002b84:	83 c4 18             	add    $0x18,%esp
 1002b87:	5b                   	pop    %ebx
 1002b88:	5d                   	pop    %ebp
 1002b89:	c3                   	ret    

01002b8a <get_module_size>:
 1002b8a:	55                   	push   %ebp
 1002b8b:	89 e5                	mov    %esp,%ebp
 1002b8d:	53                   	push   %ebx
 1002b8e:	83 ec 18             	sub    $0x18,%esp
 1002b91:	c7 45 e4 10 00 00 00 	movl   $0x10,-0x1c(%ebp)
 1002b98:	8b 55 08             	mov    0x8(%ebp),%edx
 1002b9b:	8b 45 e4             	mov    -0x1c(%ebp),%eax
 1002b9e:	89 d3                	mov    %edx,%ebx
 1002ba0:	cd 80                	int    $0x80
 1002ba2:	89 45 e8             	mov    %eax,-0x18(%ebp)
 1002ba5:	8b 45 e8             	mov    -0x18(%ebp),%eax
 1002ba8:	89 45 f8             	mov    %eax,-0x8(%ebp)
 1002bab:	83 7d f8 00          	cmpl   $0x0,-0x8(%ebp)
 1002baf:	79 11                	jns    1002bc2 <get_module_size+0x38>
 1002bb1:	8b 45 f8             	mov    -0x8(%ebp),%eax
 1002bb4:	f7 d8                	neg    %eax
 1002bb6:	a3 32 00 00 01       	mov    %eax,0x1000032
 1002bbb:	b8 ff ff ff ff       	mov    $0xffffffff,%eax
 1002bc0:	eb 03                	jmp    1002bc5 <get_module_size+0x3b>
 1002bc2:	8b 45 f8             	mov    -0x8(%ebp),%eax
 1002bc5:	83 c4 18             	add    $0x18,%esp
 1002bc8:	5b                   	pop    %ebx
 1002bc9:	5d                   	pop    %ebp
 1002bca:	c3                   	ret    

01002bcb <get_module>:
 1002bcb:	55                   	push   %ebp
 1002bcc:	89 e5                	mov    %esp,%ebp
 1002bce:	53                   	push   %ebx
 1002bcf:	83 ec 18             	sub    $0x18,%esp
 1002bd2:	c7 45 e4 0f 00 00 00 	movl   $0xf,-0x1c(%ebp)
 1002bd9:	8b 55 08             	mov    0x8(%ebp),%edx
 1002bdc:	8b 4d 0c             	mov    0xc(%ebp),%ecx
 1002bdf:	8b 45 e4             	mov    -0x1c(%ebp),%eax
 1002be2:	89 d3                	mov    %edx,%ebx
 1002be4:	cd 80                	int    $0x80
 1002be6:	89 45 e8             	mov    %eax,-0x18(%ebp)
 1002be9:	8b 45 e8             	mov    -0x18(%ebp),%eax
 1002bec:	89 45 f8             	mov    %eax,-0x8(%ebp)
 1002bef:	83 7d f8 00          	cmpl   $0x0,-0x8(%ebp)
 1002bf3:	79 11                	jns    1002c06 <get_module+0x3b>
 1002bf5:	8b 45 f8             	mov    -0x8(%ebp),%eax
 1002bf8:	f7 d8                	neg    %eax
 1002bfa:	a3 32 00 00 01       	mov    %eax,0x1000032
 1002bff:	b8 ff ff ff ff       	mov    $0xffffffff,%eax
 1002c04:	eb 03                	jmp    1002c09 <get_module+0x3e>
 1002c06:	8b 45 f8             	mov    -0x8(%ebp),%eax
 1002c09:	83 c4 18             	add    $0x18,%esp
 1002c0c:	5b                   	pop    %ebx
 1002c0d:	5d                   	pop    %ebp
 1002c0e:	c3                   	ret    

01002c0f <send>:
 1002c0f:	55                   	push   %ebp
 1002c10:	89 e5                	mov    %esp,%ebp
 1002c12:	53                   	push   %ebx
 1002c13:	83 ec 18             	sub    $0x18,%esp
 1002c16:	c7 45 e4 14 00 00 00 	movl   $0x14,-0x1c(%ebp)
 1002c1d:	8b 55 08             	mov    0x8(%ebp),%edx
 1002c20:	8b 4d 0c             	mov    0xc(%ebp),%ecx
 1002c23:	8b 45 e4             	mov    -0x1c(%ebp),%eax
 1002c26:	89 d3                	mov    %edx,%ebx
 1002c28:	cd 80                	int    $0x80
 1002c2a:	89 45 e8             	mov    %eax,-0x18(%ebp)
 1002c2d:	8b 45 e8             	mov    -0x18(%ebp),%eax
 1002c30:	89 45 f8             	mov    %eax,-0x8(%ebp)
 1002c33:	83 7d f8 00          	cmpl   $0x0,-0x8(%ebp)
 1002c37:	79 11                	jns    1002c4a <send+0x3b>
 1002c39:	8b 45 f8             	mov    -0x8(%ebp),%eax
 1002c3c:	f7 d8                	neg    %eax
 1002c3e:	a3 32 00 00 01       	mov    %eax,0x1000032
 1002c43:	b8 ff ff ff ff       	mov    $0xffffffff,%eax
 1002c48:	eb 03                	jmp    1002c4d <send+0x3e>
 1002c4a:	8b 45 f8             	mov    -0x8(%ebp),%eax
 1002c4d:	83 c4 18             	add    $0x18,%esp
 1002c50:	5b                   	pop    %ebx
 1002c51:	5d                   	pop    %ebp
 1002c52:	c3                   	ret    

01002c53 <recv>:
 1002c53:	55                   	push   %ebp
 1002c54:	89 e5                	mov    %esp,%ebp
 1002c56:	53                   	push   %ebx
 1002c57:	83 ec 14             	sub    $0x14,%esp
 1002c5a:	c7 45 e8 15 00 00 00 	movl   $0x15,-0x18(%ebp)
 1002c61:	8b 5d 08             	mov    0x8(%ebp),%ebx
 1002c64:	8b 4d 0c             	mov    0xc(%ebp),%ecx
 1002c67:	8b 55 10             	mov    0x10(%ebp),%edx
 1002c6a:	8b 45 e8             	mov    -0x18(%ebp),%eax
 1002c6d:	cd 80                	int    $0x80
 1002c6f:	89 c3                	mov    %eax,%ebx
 1002c71:	89 5d f8             	mov    %ebx,-0x8(%ebp)
 1002c74:	83 7d f8 00          	cmpl   $0x0,-0x8(%ebp)
 1002c78:	79 11                	jns    1002c8b <recv+0x38>
 1002c7a:	8b 45 f8             	mov    -0x8(%ebp),%eax
 1002c7d:	f7 d8                	neg    %eax
 1002c7f:	a3 32 00 00 01       	mov    %eax,0x1000032
 1002c84:	b8 ff ff ff ff       	mov    $0xffffffff,%eax
 1002c89:	eb 03                	jmp    1002c8e <recv+0x3b>
 1002c8b:	8b 45 f8             	mov    -0x8(%ebp),%eax
 1002c8e:	83 c4 14             	add    $0x14,%esp
 1002c91:	5b                   	pop    %ebx
 1002c92:	5d                   	pop    %ebp
 1002c93:	c3                   	ret    

01002c94 <getpid>:
 1002c94:	55                   	push   %ebp
 1002c95:	89 e5                	mov    %esp,%ebp
 1002c97:	53                   	push   %ebx
 1002c98:	83 ec 14             	sub    $0x14,%esp
 1002c9b:	c7 45 e8 16 00 00 00 	movl   $0x16,-0x18(%ebp)
 1002ca2:	8b 45 e8             	mov    -0x18(%ebp),%eax
 1002ca5:	cd 80                	int    $0x80
 1002ca7:	89 c3                	mov    %eax,%ebx
 1002ca9:	89 5d f8             	mov    %ebx,-0x8(%ebp)
 1002cac:	83 7d f8 00          	cmpl   $0x0,-0x8(%ebp)
 1002cb0:	79 11                	jns    1002cc3 <getpid+0x2f>
 1002cb2:	8b 45 f8             	mov    -0x8(%ebp),%eax
 1002cb5:	f7 d8                	neg    %eax
 1002cb7:	a3 32 00 00 01       	mov    %eax,0x1000032
 1002cbc:	b8 ff ff ff ff       	mov    $0xffffffff,%eax
 1002cc1:	eb 03                	jmp    1002cc6 <getpid+0x32>
 1002cc3:	8b 45 f8             	mov    -0x8(%ebp),%eax
 1002cc6:	83 c4 14             	add    $0x14,%esp
 1002cc9:	5b                   	pop    %ebx
 1002cca:	5d                   	pop    %ebp
 1002ccb:	c3                   	ret    

01002ccc <getppid>:
 1002ccc:	55                   	push   %ebp
 1002ccd:	89 e5                	mov    %esp,%ebp
 1002ccf:	53                   	push   %ebx
 1002cd0:	83 ec 14             	sub    $0x14,%esp
 1002cd3:	c7 45 e8 17 00 00 00 	movl   $0x17,-0x18(%ebp)
 1002cda:	8b 45 e8             	mov    -0x18(%ebp),%eax
 1002cdd:	cd 80                	int    $0x80
 1002cdf:	89 c3                	mov    %eax,%ebx
 1002ce1:	89 5d f8             	mov    %ebx,-0x8(%ebp)
 1002ce4:	83 7d f8 00          	cmpl   $0x0,-0x8(%ebp)
 1002ce8:	79 11                	jns    1002cfb <getppid+0x2f>
 1002cea:	8b 45 f8             	mov    -0x8(%ebp),%eax
 1002ced:	f7 d8                	neg    %eax
 1002cef:	a3 32 00 00 01       	mov    %eax,0x1000032
 1002cf4:	b8 ff ff ff ff       	mov    $0xffffffff,%eax
 1002cf9:	eb 03                	jmp    1002cfe <getppid+0x32>
 1002cfb:	8b 45 f8             	mov    -0x8(%ebp),%eax
 1002cfe:	83 c4 14             	add    $0x14,%esp
 1002d01:	5b                   	pop    %ebx
 1002d02:	5d                   	pop    %ebp
 1002d03:	c3                   	ret    

01002d04 <shm_at>:
 1002d04:	55                   	push   %ebp
 1002d05:	89 e5                	mov    %esp,%ebp
 1002d07:	53                   	push   %ebx
 1002d08:	83 ec 14             	sub    $0x14,%esp
 1002d0b:	c7 45 e8 19 00 00 00 	movl   $0x19,-0x18(%ebp)
 1002d12:	8b 5d 08             	mov    0x8(%ebp),%ebx
 1002d15:	8b 4d 0c             	mov    0xc(%ebp),%ecx
 1002d18:	8b 55 10             	mov    0x10(%ebp),%edx
 1002d1b:	8b 45 e8             	mov    -0x18(%ebp),%eax
 1002d1e:	cd 80                	int    $0x80
 1002d20:	89 c3                	mov    %eax,%ebx
 1002d22:	89 5d f8             	mov    %ebx,-0x8(%ebp)
 1002d25:	83 7d f8 00          	cmpl   $0x0,-0x8(%ebp)
 1002d29:	79 11                	jns    1002d3c <shm_at+0x38>
 1002d2b:	8b 45 f8             	mov    -0x8(%ebp),%eax
 1002d2e:	f7 d8                	neg    %eax
 1002d30:	a3 32 00 00 01       	mov    %eax,0x1000032
 1002d35:	b8 ff ff ff ff       	mov    $0xffffffff,%eax
 1002d3a:	eb 03                	jmp    1002d3f <shm_at+0x3b>
 1002d3c:	8b 45 f8             	mov    -0x8(%ebp),%eax
 1002d3f:	83 c4 14             	add    $0x14,%esp
 1002d42:	5b                   	pop    %ebx
 1002d43:	5d                   	pop    %ebp
 1002d44:	c3                   	ret    

01002d45 <shm_dt>:
 1002d45:	55                   	push   %ebp
 1002d46:	89 e5                	mov    %esp,%ebp
 1002d48:	53                   	push   %ebx
 1002d49:	83 ec 18             	sub    $0x18,%esp
 1002d4c:	c7 45 e4 1a 00 00 00 	movl   $0x1a,-0x1c(%ebp)
 1002d53:	8b 55 08             	mov    0x8(%ebp),%edx
 1002d56:	8b 4d 0c             	mov    0xc(%ebp),%ecx
 1002d59:	8b 45 e4             	mov    -0x1c(%ebp),%eax
 1002d5c:	89 d3                	mov    %edx,%ebx
 1002d5e:	cd 80                	int    $0x80
 1002d60:	89 45 e8             	mov    %eax,-0x18(%ebp)
 1002d63:	8b 45 e8             	mov    -0x18(%ebp),%eax
 1002d66:	89 45 f8             	mov    %eax,-0x8(%ebp)
 1002d69:	83 7d f8 00          	cmpl   $0x0,-0x8(%ebp)
 1002d6d:	79 11                	jns    1002d80 <shm_dt+0x3b>
 1002d6f:	8b 45 f8             	mov    -0x8(%ebp),%eax
 1002d72:	f7 d8                	neg    %eax
 1002d74:	a3 32 00 00 01       	mov    %eax,0x1000032
 1002d79:	b8 ff ff ff ff       	mov    $0xffffffff,%eax
 1002d7e:	eb 03                	jmp    1002d83 <shm_dt+0x3e>
 1002d80:	8b 45 f8             	mov    -0x8(%ebp),%eax
 1002d83:	83 c4 18             	add    $0x18,%esp
 1002d86:	5b                   	pop    %ebx
 1002d87:	5d                   	pop    %ebp
 1002d88:	c3                   	ret    

01002d89 <shm_get>:
 1002d89:	55                   	push   %ebp
 1002d8a:	89 e5                	mov    %esp,%ebp
 1002d8c:	53                   	push   %ebx
 1002d8d:	83 ec 18             	sub    $0x18,%esp
 1002d90:	c7 45 e4 18 00 00 00 	movl   $0x18,-0x1c(%ebp)
 1002d97:	8b 55 08             	mov    0x8(%ebp),%edx
 1002d9a:	8b 4d 0c             	mov    0xc(%ebp),%ecx
 1002d9d:	8b 45 e4             	mov    -0x1c(%ebp),%eax
 1002da0:	89 d3                	mov    %edx,%ebx
 1002da2:	cd 80                	int    $0x80
 1002da4:	89 45 e8             	mov    %eax,-0x18(%ebp)
 1002da7:	8b 45 e8             	mov    -0x18(%ebp),%eax
 1002daa:	89 45 f8             	mov    %eax,-0x8(%ebp)
 1002dad:	83 7d f8 00          	cmpl   $0x0,-0x8(%ebp)
 1002db1:	79 11                	jns    1002dc4 <shm_get+0x3b>
 1002db3:	8b 45 f8             	mov    -0x8(%ebp),%eax
 1002db6:	f7 d8                	neg    %eax
 1002db8:	a3 32 00 00 01       	mov    %eax,0x1000032
 1002dbd:	b8 ff ff ff ff       	mov    $0xffffffff,%eax
 1002dc2:	eb 03                	jmp    1002dc7 <shm_get+0x3e>
 1002dc4:	8b 45 f8             	mov    -0x8(%ebp),%eax
 1002dc7:	83 c4 18             	add    $0x18,%esp
 1002dca:	5b                   	pop    %ebx
 1002dcb:	5d                   	pop    %ebp
 1002dcc:	c3                   	ret    

01002dcd <shm_free>:
 1002dcd:	55                   	push   %ebp
 1002dce:	89 e5                	mov    %esp,%ebp
 1002dd0:	53                   	push   %ebx
 1002dd1:	83 ec 18             	sub    $0x18,%esp
 1002dd4:	c7 45 e4 1b 00 00 00 	movl   $0x1b,-0x1c(%ebp)
 1002ddb:	8b 55 08             	mov    0x8(%ebp),%edx
 1002dde:	8b 45 e4             	mov    -0x1c(%ebp),%eax
 1002de1:	89 d3                	mov    %edx,%ebx
 1002de3:	cd 80                	int    $0x80
 1002de5:	89 45 e8             	mov    %eax,-0x18(%ebp)
 1002de8:	8b 45 e8             	mov    -0x18(%ebp),%eax
 1002deb:	89 45 f8             	mov    %eax,-0x8(%ebp)
 1002dee:	83 7d f8 00          	cmpl   $0x0,-0x8(%ebp)
 1002df2:	79 11                	jns    1002e05 <shm_free+0x38>
 1002df4:	8b 45 f8             	mov    -0x8(%ebp),%eax
 1002df7:	f7 d8                	neg    %eax
 1002df9:	a3 32 00 00 01       	mov    %eax,0x1000032
 1002dfe:	b8 ff ff ff ff       	mov    $0xffffffff,%eax
 1002e03:	eb 03                	jmp    1002e08 <shm_free+0x3b>
 1002e05:	8b 45 f8             	mov    -0x8(%ebp),%eax
 1002e08:	83 c4 18             	add    $0x18,%esp
 1002e0b:	5b                   	pop    %ebx
 1002e0c:	5d                   	pop    %ebp
 1002e0d:	c3                   	ret    
 1002e0e:	90                   	nop
 1002e0f:	90                   	nop

01002e10 <libc_init>:
 1002e10:	55                   	push   %ebp
 1002e11:	89 e5                	mov    %esp,%ebp
 1002e13:	83 ec 08             	sub    $0x8,%esp
 1002e16:	e8 45 08 00 00       	call   1003660 <inbuf_init>
 1002e1b:	c9                   	leave  
 1002e1c:	c3                   	ret    
 1002e1d:	90                   	nop
 1002e1e:	90                   	nop
 1002e1f:	90                   	nop

01002e20 <printf>:
 1002e20:	55                   	push   %ebp
 1002e21:	89 e5                	mov    %esp,%ebp
 1002e23:	81 ec 18 02 00 00    	sub    $0x218,%esp
 1002e29:	8d 45 08             	lea    0x8(%ebp),%eax
 1002e2c:	83 c0 04             	add    $0x4,%eax
 1002e2f:	89 45 f4             	mov    %eax,-0xc(%ebp)
 1002e32:	8b 45 08             	mov    0x8(%ebp),%eax
 1002e35:	8b 55 f4             	mov    -0xc(%ebp),%edx
 1002e38:	89 54 24 08          	mov    %edx,0x8(%esp)
 1002e3c:	89 44 24 04          	mov    %eax,0x4(%esp)
 1002e40:	8d 85 fc fd ff ff    	lea    -0x204(%ebp),%eax
 1002e46:	89 04 24             	mov    %eax,(%esp)
 1002e49:	e8 a9 03 00 00       	call   10031f7 <vsprintf>
 1002e4e:	89 45 f0             	mov    %eax,-0x10(%ebp)
 1002e51:	8d 85 fc fd ff ff    	lea    -0x204(%ebp),%eax
 1002e57:	89 04 24             	mov    %eax,(%esp)
 1002e5a:	e8 fc fb ff ff       	call   1002a5b <uprint>
 1002e5f:	8b 45 f0             	mov    -0x10(%ebp),%eax
 1002e62:	c9                   	leave  
 1002e63:	c3                   	ret    

01002e64 <simple_strtoul>:
 1002e64:	55                   	push   %ebp
 1002e65:	89 e5                	mov    %esp,%ebp
 1002e67:	83 ec 28             	sub    $0x28,%esp
 1002e6a:	c7 45 f4 00 00 00 00 	movl   $0x0,-0xc(%ebp)
 1002e71:	83 7d 10 00          	cmpl   $0x0,0x10(%ebp)
 1002e75:	75 5e                	jne    1002ed5 <simple_strtoul+0x71>
 1002e77:	c7 45 10 0a 00 00 00 	movl   $0xa,0x10(%ebp)
 1002e7e:	8b 45 08             	mov    0x8(%ebp),%eax
 1002e81:	0f b6 00             	movzbl (%eax),%eax
 1002e84:	3c 30                	cmp    $0x30,%al
 1002e86:	75 50                	jne    1002ed8 <simple_strtoul+0x74>
 1002e88:	c7 45 10 08 00 00 00 	movl   $0x8,0x10(%ebp)
 1002e8f:	83 45 08 01          	addl   $0x1,0x8(%ebp)
 1002e93:	8b 45 08             	mov    0x8(%ebp),%eax
 1002e96:	0f b6 00             	movzbl (%eax),%eax
 1002e99:	3c 78                	cmp    $0x78,%al
 1002e9b:	75 3e                	jne    1002edb <simple_strtoul+0x77>
 1002e9d:	8b 45 08             	mov    0x8(%ebp),%eax
 1002ea0:	83 c0 01             	add    $0x1,%eax
 1002ea3:	0f b6 00             	movzbl (%eax),%eax
 1002ea6:	0f be c0             	movsbl %al,%eax
 1002ea9:	89 04 24             	mov    %eax,(%esp)
 1002eac:	e8 20 0f 00 00       	call   1003dd1 <isxdigit>
 1002eb1:	85 c0                	test   %eax,%eax
 1002eb3:	74 29                	je     1002ede <simple_strtoul+0x7a>
 1002eb5:	83 45 08 01          	addl   $0x1,0x8(%ebp)
 1002eb9:	c7 45 10 10 00 00 00 	movl   $0x10,0x10(%ebp)
 1002ec0:	eb 1d                	jmp    1002edf <simple_strtoul+0x7b>
 1002ec2:	8b 45 f4             	mov    -0xc(%ebp),%eax
 1002ec5:	0f af 45 10          	imul   0x10(%ebp),%eax
 1002ec9:	03 45 f0             	add    -0x10(%ebp),%eax
 1002ecc:	89 45 f4             	mov    %eax,-0xc(%ebp)
 1002ecf:	83 45 08 01          	addl   $0x1,0x8(%ebp)
 1002ed3:	eb 0a                	jmp    1002edf <simple_strtoul+0x7b>
 1002ed5:	90                   	nop
 1002ed6:	eb 07                	jmp    1002edf <simple_strtoul+0x7b>
 1002ed8:	90                   	nop
 1002ed9:	eb 04                	jmp    1002edf <simple_strtoul+0x7b>
 1002edb:	90                   	nop
 1002edc:	eb 01                	jmp    1002edf <simple_strtoul+0x7b>
 1002ede:	90                   	nop
 1002edf:	8b 45 08             	mov    0x8(%ebp),%eax
 1002ee2:	0f b6 00             	movzbl (%eax),%eax
 1002ee5:	0f be c0             	movsbl %al,%eax
 1002ee8:	89 04 24             	mov    %eax,(%esp)
 1002eeb:	e8 e1 0e 00 00       	call   1003dd1 <isxdigit>
 1002ef0:	85 c0                	test   %eax,%eax
 1002ef2:	74 69                	je     1002f5d <simple_strtoul+0xf9>
 1002ef4:	8b 45 08             	mov    0x8(%ebp),%eax
 1002ef7:	0f b6 00             	movzbl (%eax),%eax
 1002efa:	0f be c0             	movsbl %al,%eax
 1002efd:	89 04 24             	mov    %eax,(%esp)
 1002f00:	e8 af 0e 00 00       	call   1003db4 <isdigit>
 1002f05:	85 c0                	test   %eax,%eax
 1002f07:	74 0e                	je     1002f17 <simple_strtoul+0xb3>
 1002f09:	8b 45 08             	mov    0x8(%ebp),%eax
 1002f0c:	0f b6 00             	movzbl (%eax),%eax
 1002f0f:	0f be c0             	movsbl %al,%eax
 1002f12:	83 e8 30             	sub    $0x30,%eax
 1002f15:	eb 37                	jmp    1002f4e <simple_strtoul+0xea>
 1002f17:	8b 45 08             	mov    0x8(%ebp),%eax
 1002f1a:	0f b6 00             	movzbl (%eax),%eax
 1002f1d:	0f be c0             	movsbl %al,%eax
 1002f20:	89 04 24             	mov    %eax,(%esp)
 1002f23:	e8 de 0e 00 00       	call   1003e06 <islower>
 1002f28:	85 c0                	test   %eax,%eax
 1002f2a:	74 16                	je     1002f42 <simple_strtoul+0xde>
 1002f2c:	8b 45 08             	mov    0x8(%ebp),%eax
 1002f2f:	0f b6 00             	movzbl (%eax),%eax
 1002f32:	0f be c0             	movsbl %al,%eax
 1002f35:	89 04 24             	mov    %eax,(%esp)
 1002f38:	e8 4f 0f 00 00       	call   1003e8c <toupper>
 1002f3d:	83 e8 37             	sub    $0x37,%eax
 1002f40:	eb 0c                	jmp    1002f4e <simple_strtoul+0xea>
 1002f42:	8b 45 08             	mov    0x8(%ebp),%eax
 1002f45:	0f b6 00             	movzbl (%eax),%eax
 1002f48:	0f be c0             	movsbl %al,%eax
 1002f4b:	83 e8 37             	sub    $0x37,%eax
 1002f4e:	89 45 f0             	mov    %eax,-0x10(%ebp)
 1002f51:	8b 45 f0             	mov    -0x10(%ebp),%eax
 1002f54:	3b 45 10             	cmp    0x10(%ebp),%eax
 1002f57:	0f 82 65 ff ff ff    	jb     1002ec2 <simple_strtoul+0x5e>
 1002f5d:	83 7d 0c 00          	cmpl   $0x0,0xc(%ebp)
 1002f61:	74 08                	je     1002f6b <simple_strtoul+0x107>
 1002f63:	8b 45 0c             	mov    0xc(%ebp),%eax
 1002f66:	8b 55 08             	mov    0x8(%ebp),%edx
 1002f69:	89 10                	mov    %edx,(%eax)
 1002f6b:	8b 45 f4             	mov    -0xc(%ebp),%eax
 1002f6e:	c9                   	leave  
 1002f6f:	c3                   	ret    

01002f70 <skip_atoi>:
 1002f70:	55                   	push   %ebp
 1002f71:	89 e5                	mov    %esp,%ebp
 1002f73:	83 ec 28             	sub    $0x28,%esp
 1002f76:	c7 45 f4 00 00 00 00 	movl   $0x0,-0xc(%ebp)
 1002f7d:	eb 2a                	jmp    1002fa9 <skip_atoi+0x39>
 1002f7f:	8b 55 f4             	mov    -0xc(%ebp),%edx
 1002f82:	89 d0                	mov    %edx,%eax
 1002f84:	c1 e0 02             	shl    $0x2,%eax
 1002f87:	01 d0                	add    %edx,%eax
 1002f89:	01 c0                	add    %eax,%eax
 1002f8b:	89 c1                	mov    %eax,%ecx
 1002f8d:	8b 45 08             	mov    0x8(%ebp),%eax
 1002f90:	8b 00                	mov    (%eax),%eax
 1002f92:	0f b6 10             	movzbl (%eax),%edx
 1002f95:	0f be d2             	movsbl %dl,%edx
 1002f98:	8d 14 11             	lea    (%ecx,%edx,1),%edx
 1002f9b:	83 ea 30             	sub    $0x30,%edx
 1002f9e:	89 55 f4             	mov    %edx,-0xc(%ebp)
 1002fa1:	8d 50 01             	lea    0x1(%eax),%edx
 1002fa4:	8b 45 08             	mov    0x8(%ebp),%eax
 1002fa7:	89 10                	mov    %edx,(%eax)
 1002fa9:	8b 45 08             	mov    0x8(%ebp),%eax
 1002fac:	8b 00                	mov    (%eax),%eax
 1002fae:	0f b6 00             	movzbl (%eax),%eax
 1002fb1:	0f be c0             	movsbl %al,%eax
 1002fb4:	89 04 24             	mov    %eax,(%esp)
 1002fb7:	e8 f8 0d 00 00       	call   1003db4 <isdigit>
 1002fbc:	85 c0                	test   %eax,%eax
 1002fbe:	75 bf                	jne    1002f7f <skip_atoi+0xf>
 1002fc0:	8b 45 f4             	mov    -0xc(%ebp),%eax
 1002fc3:	c9                   	leave  
 1002fc4:	c3                   	ret    

01002fc5 <number>:
 1002fc5:	55                   	push   %ebp
 1002fc6:	89 e5                	mov    %esp,%ebp
 1002fc8:	53                   	push   %ebx
 1002fc9:	83 ec 40             	sub    $0x40,%esp
 1002fcc:	c7 45 f4 98 3f 00 01 	movl   $0x1003f98,-0xc(%ebp)
 1002fd3:	8b 45 1c             	mov    0x1c(%ebp),%eax
 1002fd6:	83 e0 40             	and    $0x40,%eax
 1002fd9:	85 c0                	test   %eax,%eax
 1002fdb:	74 07                	je     1002fe4 <number+0x1f>
 1002fdd:	c7 45 f4 c0 3f 00 01 	movl   $0x1003fc0,-0xc(%ebp)
 1002fe4:	8b 45 1c             	mov    0x1c(%ebp),%eax
 1002fe7:	83 e0 10             	and    $0x10,%eax
 1002fea:	85 c0                	test   %eax,%eax
 1002fec:	74 04                	je     1002ff2 <number+0x2d>
 1002fee:	83 65 1c fe          	andl   $0xfffffffe,0x1c(%ebp)
 1002ff2:	83 7d 10 01          	cmpl   $0x1,0x10(%ebp)
 1002ff6:	7e 06                	jle    1002ffe <number+0x39>
 1002ff8:	83 7d 10 24          	cmpl   $0x24,0x10(%ebp)
 1002ffc:	7e 0a                	jle    1003008 <number+0x43>
 1002ffe:	b8 00 00 00 00       	mov    $0x0,%eax
 1003003:	e9 e9 01 00 00       	jmp    10031f1 <number+0x22c>
 1003008:	8b 45 1c             	mov    0x1c(%ebp),%eax
 100300b:	83 e0 01             	and    $0x1,%eax
 100300e:	84 c0                	test   %al,%al
 1003010:	74 07                	je     1003019 <number+0x54>
 1003012:	b8 30 00 00 00       	mov    $0x30,%eax
 1003017:	eb 05                	jmp    100301e <number+0x59>
 1003019:	b8 20 00 00 00       	mov    $0x20,%eax
 100301e:	88 45 ef             	mov    %al,-0x11(%ebp)
 1003021:	8b 45 1c             	mov    0x1c(%ebp),%eax
 1003024:	83 e0 02             	and    $0x2,%eax
 1003027:	85 c0                	test   %eax,%eax
 1003029:	74 0f                	je     100303a <number+0x75>
 100302b:	83 7d 0c 00          	cmpl   $0x0,0xc(%ebp)
 100302f:	79 09                	jns    100303a <number+0x75>
 1003031:	c6 45 fb 2d          	movb   $0x2d,-0x5(%ebp)
 1003035:	f7 5d 0c             	negl   0xc(%ebp)
 1003038:	eb 2a                	jmp    1003064 <number+0x9f>
 100303a:	8b 45 1c             	mov    0x1c(%ebp),%eax
 100303d:	83 e0 04             	and    $0x4,%eax
 1003040:	85 c0                	test   %eax,%eax
 1003042:	75 18                	jne    100305c <number+0x97>
 1003044:	8b 45 1c             	mov    0x1c(%ebp),%eax
 1003047:	83 e0 08             	and    $0x8,%eax
 100304a:	85 c0                	test   %eax,%eax
 100304c:	74 07                	je     1003055 <number+0x90>
 100304e:	b8 20 00 00 00       	mov    $0x20,%eax
 1003053:	eb 05                	jmp    100305a <number+0x95>
 1003055:	b8 00 00 00 00       	mov    $0x0,%eax
 100305a:	eb 05                	jmp    1003061 <number+0x9c>
 100305c:	b8 2b 00 00 00       	mov    $0x2b,%eax
 1003061:	88 45 fb             	mov    %al,-0x5(%ebp)
 1003064:	80 7d fb 00          	cmpb   $0x0,-0x5(%ebp)
 1003068:	74 04                	je     100306e <number+0xa9>
 100306a:	83 6d 14 01          	subl   $0x1,0x14(%ebp)
 100306e:	8b 45 1c             	mov    0x1c(%ebp),%eax
 1003071:	83 e0 20             	and    $0x20,%eax
 1003074:	85 c0                	test   %eax,%eax
 1003076:	74 16                	je     100308e <number+0xc9>
 1003078:	83 7d 10 10          	cmpl   $0x10,0x10(%ebp)
 100307c:	75 06                	jne    1003084 <number+0xbf>
 100307e:	83 6d 14 02          	subl   $0x2,0x14(%ebp)
 1003082:	eb 0a                	jmp    100308e <number+0xc9>
 1003084:	83 7d 10 08          	cmpl   $0x8,0x10(%ebp)
 1003088:	75 04                	jne    100308e <number+0xc9>
 100308a:	83 6d 14 01          	subl   $0x1,0x14(%ebp)
 100308e:	c7 45 f0 00 00 00 00 	movl   $0x0,-0x10(%ebp)
 1003095:	83 7d 0c 00          	cmpl   $0x0,0xc(%ebp)
 1003099:	75 3d                	jne    10030d8 <number+0x113>
 100309b:	8d 45 c4             	lea    -0x3c(%ebp),%eax
 100309e:	03 45 f0             	add    -0x10(%ebp),%eax
 10030a1:	c6 00 30             	movb   $0x30,(%eax)
 10030a4:	83 45 f0 01          	addl   $0x1,-0x10(%ebp)
 10030a8:	eb 34                	jmp    10030de <number+0x119>
 10030aa:	8b 45 0c             	mov    0xc(%ebp),%eax
 10030ad:	ba 00 00 00 00       	mov    $0x0,%edx
 10030b2:	8b 4d 10             	mov    0x10(%ebp),%ecx
 10030b5:	89 d3                	mov    %edx,%ebx
 10030b7:	89 da                	mov    %ebx,%edx
 10030b9:	f7 f1                	div    %ecx
 10030bb:	89 d3                	mov    %edx,%ebx
 10030bd:	89 45 0c             	mov    %eax,0xc(%ebp)
 10030c0:	89 5d e8             	mov    %ebx,-0x18(%ebp)
 10030c3:	8b 45 e8             	mov    -0x18(%ebp),%eax
 10030c6:	03 45 f4             	add    -0xc(%ebp),%eax
 10030c9:	0f b6 10             	movzbl (%eax),%edx
 10030cc:	8d 45 c4             	lea    -0x3c(%ebp),%eax
 10030cf:	03 45 f0             	add    -0x10(%ebp),%eax
 10030d2:	88 10                	mov    %dl,(%eax)
 10030d4:	83 45 f0 01          	addl   $0x1,-0x10(%ebp)
 10030d8:	83 7d 0c 00          	cmpl   $0x0,0xc(%ebp)
 10030dc:	75 cc                	jne    10030aa <number+0xe5>
 10030de:	8b 45 f0             	mov    -0x10(%ebp),%eax
 10030e1:	3b 45 18             	cmp    0x18(%ebp),%eax
 10030e4:	7e 06                	jle    10030ec <number+0x127>
 10030e6:	8b 45 f0             	mov    -0x10(%ebp),%eax
 10030e9:	89 45 18             	mov    %eax,0x18(%ebp)
 10030ec:	8b 45 18             	mov    0x18(%ebp),%eax
 10030ef:	29 45 14             	sub    %eax,0x14(%ebp)
 10030f2:	8b 45 1c             	mov    0x1c(%ebp),%eax
 10030f5:	83 e0 11             	and    $0x11,%eax
 10030f8:	85 c0                	test   %eax,%eax
 10030fa:	75 1b                	jne    1003117 <number+0x152>
 10030fc:	eb 0a                	jmp    1003108 <number+0x143>
 10030fe:	8b 45 08             	mov    0x8(%ebp),%eax
 1003101:	c6 00 20             	movb   $0x20,(%eax)
 1003104:	83 45 08 01          	addl   $0x1,0x8(%ebp)
 1003108:	83 7d 14 00          	cmpl   $0x0,0x14(%ebp)
 100310c:	0f 9f c0             	setg   %al
 100310f:	83 6d 14 01          	subl   $0x1,0x14(%ebp)
 1003113:	84 c0                	test   %al,%al
 1003115:	75 e7                	jne    10030fe <number+0x139>
 1003117:	80 7d fb 00          	cmpb   $0x0,-0x5(%ebp)
 100311b:	74 0d                	je     100312a <number+0x165>
 100311d:	8b 45 08             	mov    0x8(%ebp),%eax
 1003120:	0f b6 55 fb          	movzbl -0x5(%ebp),%edx
 1003124:	88 10                	mov    %dl,(%eax)
 1003126:	83 45 08 01          	addl   $0x1,0x8(%ebp)
 100312a:	8b 45 1c             	mov    0x1c(%ebp),%eax
 100312d:	83 e0 20             	and    $0x20,%eax
 1003130:	85 c0                	test   %eax,%eax
 1003132:	74 34                	je     1003168 <number+0x1a3>
 1003134:	83 7d 10 08          	cmpl   $0x8,0x10(%ebp)
 1003138:	75 0c                	jne    1003146 <number+0x181>
 100313a:	8b 45 08             	mov    0x8(%ebp),%eax
 100313d:	c6 00 30             	movb   $0x30,(%eax)
 1003140:	83 45 08 01          	addl   $0x1,0x8(%ebp)
 1003144:	eb 22                	jmp    1003168 <number+0x1a3>
 1003146:	83 7d 10 10          	cmpl   $0x10,0x10(%ebp)
 100314a:	75 1c                	jne    1003168 <number+0x1a3>
 100314c:	8b 45 08             	mov    0x8(%ebp),%eax
 100314f:	c6 00 30             	movb   $0x30,(%eax)
 1003152:	83 45 08 01          	addl   $0x1,0x8(%ebp)
 1003156:	8b 45 f4             	mov    -0xc(%ebp),%eax
 1003159:	83 c0 21             	add    $0x21,%eax
 100315c:	0f b6 10             	movzbl (%eax),%edx
 100315f:	8b 45 08             	mov    0x8(%ebp),%eax
 1003162:	88 10                	mov    %dl,(%eax)
 1003164:	83 45 08 01          	addl   $0x1,0x8(%ebp)
 1003168:	8b 45 1c             	mov    0x1c(%ebp),%eax
 100316b:	83 e0 10             	and    $0x10,%eax
 100316e:	85 c0                	test   %eax,%eax
 1003170:	75 2c                	jne    100319e <number+0x1d9>
 1003172:	eb 0d                	jmp    1003181 <number+0x1bc>
 1003174:	8b 45 08             	mov    0x8(%ebp),%eax
 1003177:	0f b6 55 ef          	movzbl -0x11(%ebp),%edx
 100317b:	88 10                	mov    %dl,(%eax)
 100317d:	83 45 08 01          	addl   $0x1,0x8(%ebp)
 1003181:	83 7d 14 00          	cmpl   $0x0,0x14(%ebp)
 1003185:	0f 9f c0             	setg   %al
 1003188:	83 6d 14 01          	subl   $0x1,0x14(%ebp)
 100318c:	84 c0                	test   %al,%al
 100318e:	75 e4                	jne    1003174 <number+0x1af>
 1003190:	eb 0d                	jmp    100319f <number+0x1da>
 1003192:	8b 45 08             	mov    0x8(%ebp),%eax
 1003195:	c6 00 30             	movb   $0x30,(%eax)
 1003198:	83 45 08 01          	addl   $0x1,0x8(%ebp)
 100319c:	eb 01                	jmp    100319f <number+0x1da>
 100319e:	90                   	nop
 100319f:	8b 45 18             	mov    0x18(%ebp),%eax
 10031a2:	3b 45 f0             	cmp    -0x10(%ebp),%eax
 10031a5:	0f 9f c0             	setg   %al
 10031a8:	83 6d 18 01          	subl   $0x1,0x18(%ebp)
 10031ac:	84 c0                	test   %al,%al
 10031ae:	75 e2                	jne    1003192 <number+0x1cd>
 10031b0:	eb 12                	jmp    10031c4 <number+0x1ff>
 10031b2:	8d 45 c4             	lea    -0x3c(%ebp),%eax
 10031b5:	03 45 f0             	add    -0x10(%ebp),%eax
 10031b8:	0f b6 10             	movzbl (%eax),%edx
 10031bb:	8b 45 08             	mov    0x8(%ebp),%eax
 10031be:	88 10                	mov    %dl,(%eax)
 10031c0:	83 45 08 01          	addl   $0x1,0x8(%ebp)
 10031c4:	83 7d f0 00          	cmpl   $0x0,-0x10(%ebp)
 10031c8:	0f 9f c0             	setg   %al
 10031cb:	83 6d f0 01          	subl   $0x1,-0x10(%ebp)
 10031cf:	84 c0                	test   %al,%al
 10031d1:	75 df                	jne    10031b2 <number+0x1ed>
 10031d3:	eb 0a                	jmp    10031df <number+0x21a>
 10031d5:	8b 45 08             	mov    0x8(%ebp),%eax
 10031d8:	c6 00 20             	movb   $0x20,(%eax)
 10031db:	83 45 08 01          	addl   $0x1,0x8(%ebp)
 10031df:	83 7d 14 00          	cmpl   $0x0,0x14(%ebp)
 10031e3:	0f 9f c0             	setg   %al
 10031e6:	83 6d 14 01          	subl   $0x1,0x14(%ebp)
 10031ea:	84 c0                	test   %al,%al
 10031ec:	75 e7                	jne    10031d5 <number+0x210>
 10031ee:	8b 45 08             	mov    0x8(%ebp),%eax
 10031f1:	83 c4 40             	add    $0x40,%esp
 10031f4:	5b                   	pop    %ebx
 10031f5:	5d                   	pop    %ebp
 10031f6:	c3                   	ret    

010031f7 <vsprintf>:
 10031f7:	55                   	push   %ebp
 10031f8:	89 e5                	mov    %esp,%ebp
 10031fa:	83 ec 58             	sub    $0x58,%esp
 10031fd:	8b 45 08             	mov    0x8(%ebp),%eax
 1003200:	89 45 ec             	mov    %eax,-0x14(%ebp)
 1003203:	e9 06 04 00 00       	jmp    100360e <vsprintf+0x417>
 1003208:	8b 45 0c             	mov    0xc(%ebp),%eax
 100320b:	0f b6 00             	movzbl (%eax),%eax
 100320e:	3c 25                	cmp    $0x25,%al
 1003210:	74 14                	je     1003226 <vsprintf+0x2f>
 1003212:	8b 45 0c             	mov    0xc(%ebp),%eax
 1003215:	0f b6 10             	movzbl (%eax),%edx
 1003218:	8b 45 ec             	mov    -0x14(%ebp),%eax
 100321b:	88 10                	mov    %dl,(%eax)
 100321d:	83 45 ec 01          	addl   $0x1,-0x14(%ebp)
 1003221:	e9 df 03 00 00       	jmp    1003605 <vsprintf+0x40e>
 1003226:	c7 45 e4 00 00 00 00 	movl   $0x0,-0x1c(%ebp)
 100322d:	8b 45 0c             	mov    0xc(%ebp),%eax
 1003230:	83 c0 01             	add    $0x1,%eax
 1003233:	89 45 0c             	mov    %eax,0xc(%ebp)
 1003236:	8b 45 0c             	mov    0xc(%ebp),%eax
 1003239:	0f b6 00             	movzbl (%eax),%eax
 100323c:	0f be c0             	movsbl %al,%eax
 100323f:	83 e8 20             	sub    $0x20,%eax
 1003242:	83 f8 10             	cmp    $0x10,%eax
 1003245:	77 27                	ja     100326e <vsprintf+0x77>
 1003247:	8b 04 85 ec 3f 00 01 	mov    0x1003fec(,%eax,4),%eax
 100324e:	ff e0                	jmp    *%eax
 1003250:	83 4d e4 10          	orl    $0x10,-0x1c(%ebp)
 1003254:	eb d7                	jmp    100322d <vsprintf+0x36>
 1003256:	83 4d e4 04          	orl    $0x4,-0x1c(%ebp)
 100325a:	eb d1                	jmp    100322d <vsprintf+0x36>
 100325c:	83 4d e4 08          	orl    $0x8,-0x1c(%ebp)
 1003260:	eb cb                	jmp    100322d <vsprintf+0x36>
 1003262:	83 4d e4 20          	orl    $0x20,-0x1c(%ebp)
 1003266:	eb c5                	jmp    100322d <vsprintf+0x36>
 1003268:	83 4d e4 01          	orl    $0x1,-0x1c(%ebp)
 100326c:	eb bf                	jmp    100322d <vsprintf+0x36>
 100326e:	c7 45 e0 ff ff ff ff 	movl   $0xffffffff,-0x20(%ebp)
 1003275:	8b 45 0c             	mov    0xc(%ebp),%eax
 1003278:	0f b6 00             	movzbl (%eax),%eax
 100327b:	0f be c0             	movsbl %al,%eax
 100327e:	89 04 24             	mov    %eax,(%esp)
 1003281:	e8 2e 0b 00 00       	call   1003db4 <isdigit>
 1003286:	85 c0                	test   %eax,%eax
 1003288:	74 10                	je     100329a <vsprintf+0xa3>
 100328a:	8d 45 0c             	lea    0xc(%ebp),%eax
 100328d:	89 04 24             	mov    %eax,(%esp)
 1003290:	e8 db fc ff ff       	call   1002f70 <skip_atoi>
 1003295:	89 45 e0             	mov    %eax,-0x20(%ebp)
 1003298:	eb 2f                	jmp    10032c9 <vsprintf+0xd2>
 100329a:	8b 45 0c             	mov    0xc(%ebp),%eax
 100329d:	0f b6 00             	movzbl (%eax),%eax
 10032a0:	3c 2a                	cmp    $0x2a,%al
 10032a2:	75 25                	jne    10032c9 <vsprintf+0xd2>
 10032a4:	8b 45 0c             	mov    0xc(%ebp),%eax
 10032a7:	83 c0 01             	add    $0x1,%eax
 10032aa:	89 45 0c             	mov    %eax,0xc(%ebp)
 10032ad:	83 45 10 04          	addl   $0x4,0x10(%ebp)
 10032b1:	8b 45 10             	mov    0x10(%ebp),%eax
 10032b4:	83 e8 04             	sub    $0x4,%eax
 10032b7:	8b 00                	mov    (%eax),%eax
 10032b9:	89 45 e0             	mov    %eax,-0x20(%ebp)
 10032bc:	83 7d e0 00          	cmpl   $0x0,-0x20(%ebp)
 10032c0:	79 07                	jns    10032c9 <vsprintf+0xd2>
 10032c2:	f7 5d e0             	negl   -0x20(%ebp)
 10032c5:	83 4d e4 10          	orl    $0x10,-0x1c(%ebp)
 10032c9:	c7 45 dc ff ff ff ff 	movl   $0xffffffff,-0x24(%ebp)
 10032d0:	8b 45 0c             	mov    0xc(%ebp),%eax
 10032d3:	0f b6 00             	movzbl (%eax),%eax
 10032d6:	3c 2e                	cmp    $0x2e,%al
 10032d8:	75 5d                	jne    1003337 <vsprintf+0x140>
 10032da:	8b 45 0c             	mov    0xc(%ebp),%eax
 10032dd:	83 c0 01             	add    $0x1,%eax
 10032e0:	89 45 0c             	mov    %eax,0xc(%ebp)
 10032e3:	8b 45 0c             	mov    0xc(%ebp),%eax
 10032e6:	0f b6 00             	movzbl (%eax),%eax
 10032e9:	0f be c0             	movsbl %al,%eax
 10032ec:	89 04 24             	mov    %eax,(%esp)
 10032ef:	e8 c0 0a 00 00       	call   1003db4 <isdigit>
 10032f4:	85 c0                	test   %eax,%eax
 10032f6:	74 10                	je     1003308 <vsprintf+0x111>
 10032f8:	8d 45 0c             	lea    0xc(%ebp),%eax
 10032fb:	89 04 24             	mov    %eax,(%esp)
 10032fe:	e8 6d fc ff ff       	call   1002f70 <skip_atoi>
 1003303:	89 45 dc             	mov    %eax,-0x24(%ebp)
 1003306:	eb 22                	jmp    100332a <vsprintf+0x133>
 1003308:	8b 45 0c             	mov    0xc(%ebp),%eax
 100330b:	0f b6 00             	movzbl (%eax),%eax
 100330e:	3c 2a                	cmp    $0x2a,%al
 1003310:	75 18                	jne    100332a <vsprintf+0x133>
 1003312:	8b 45 0c             	mov    0xc(%ebp),%eax
 1003315:	83 c0 01             	add    $0x1,%eax
 1003318:	89 45 0c             	mov    %eax,0xc(%ebp)
 100331b:	83 45 10 04          	addl   $0x4,0x10(%ebp)
 100331f:	8b 45 10             	mov    0x10(%ebp),%eax
 1003322:	83 e8 04             	sub    $0x4,%eax
 1003325:	8b 00                	mov    (%eax),%eax
 1003327:	89 45 dc             	mov    %eax,-0x24(%ebp)
 100332a:	83 7d dc 00          	cmpl   $0x0,-0x24(%ebp)
 100332e:	79 07                	jns    1003337 <vsprintf+0x140>
 1003330:	c7 45 dc 00 00 00 00 	movl   $0x0,-0x24(%ebp)
 1003337:	c7 45 d8 ff ff ff ff 	movl   $0xffffffff,-0x28(%ebp)
 100333e:	8b 45 0c             	mov    0xc(%ebp),%eax
 1003341:	0f b6 00             	movzbl (%eax),%eax
 1003344:	3c 68                	cmp    $0x68,%al
 1003346:	74 14                	je     100335c <vsprintf+0x165>
 1003348:	8b 45 0c             	mov    0xc(%ebp),%eax
 100334b:	0f b6 00             	movzbl (%eax),%eax
 100334e:	3c 6c                	cmp    $0x6c,%al
 1003350:	74 0a                	je     100335c <vsprintf+0x165>
 1003352:	8b 45 0c             	mov    0xc(%ebp),%eax
 1003355:	0f b6 00             	movzbl (%eax),%eax
 1003358:	3c 4c                	cmp    $0x4c,%al
 100335a:	75 15                	jne    1003371 <vsprintf+0x17a>
 100335c:	8b 45 0c             	mov    0xc(%ebp),%eax
 100335f:	0f b6 00             	movzbl (%eax),%eax
 1003362:	0f be c0             	movsbl %al,%eax
 1003365:	89 45 d8             	mov    %eax,-0x28(%ebp)
 1003368:	8b 45 0c             	mov    0xc(%ebp),%eax
 100336b:	83 c0 01             	add    $0x1,%eax
 100336e:	89 45 0c             	mov    %eax,0xc(%ebp)
 1003371:	8b 45 0c             	mov    0xc(%ebp),%eax
 1003374:	0f b6 00             	movzbl (%eax),%eax
 1003377:	0f be c0             	movsbl %al,%eax
 100337a:	83 e8 58             	sub    $0x58,%eax
 100337d:	83 f8 20             	cmp    $0x20,%eax
 1003380:	0f 87 46 02 00 00    	ja     10035cc <vsprintf+0x3d5>
 1003386:	8b 04 85 30 40 00 01 	mov    0x1004030(,%eax,4),%eax
 100338d:	ff e0                	jmp    *%eax
 100338f:	8b 45 e4             	mov    -0x1c(%ebp),%eax
 1003392:	83 e0 10             	and    $0x10,%eax
 1003395:	85 c0                	test   %eax,%eax
 1003397:	75 16                	jne    10033af <vsprintf+0x1b8>
 1003399:	eb 0a                	jmp    10033a5 <vsprintf+0x1ae>
 100339b:	8b 45 ec             	mov    -0x14(%ebp),%eax
 100339e:	c6 00 20             	movb   $0x20,(%eax)
 10033a1:	83 45 ec 01          	addl   $0x1,-0x14(%ebp)
 10033a5:	83 6d e0 01          	subl   $0x1,-0x20(%ebp)
 10033a9:	83 7d e0 00          	cmpl   $0x0,-0x20(%ebp)
 10033ad:	7f ec                	jg     100339b <vsprintf+0x1a4>
 10033af:	83 45 10 04          	addl   $0x4,0x10(%ebp)
 10033b3:	8b 45 10             	mov    0x10(%ebp),%eax
 10033b6:	83 e8 04             	sub    $0x4,%eax
 10033b9:	8b 00                	mov    (%eax),%eax
 10033bb:	89 c2                	mov    %eax,%edx
 10033bd:	8b 45 ec             	mov    -0x14(%ebp),%eax
 10033c0:	88 10                	mov    %dl,(%eax)
 10033c2:	83 45 ec 01          	addl   $0x1,-0x14(%ebp)
 10033c6:	eb 0a                	jmp    10033d2 <vsprintf+0x1db>
 10033c8:	8b 45 ec             	mov    -0x14(%ebp),%eax
 10033cb:	c6 00 20             	movb   $0x20,(%eax)
 10033ce:	83 45 ec 01          	addl   $0x1,-0x14(%ebp)
 10033d2:	83 6d e0 01          	subl   $0x1,-0x20(%ebp)
 10033d6:	83 7d e0 00          	cmpl   $0x0,-0x20(%ebp)
 10033da:	7f ec                	jg     10033c8 <vsprintf+0x1d1>
 10033dc:	e9 24 02 00 00       	jmp    1003605 <vsprintf+0x40e>
 10033e1:	83 45 10 04          	addl   $0x4,0x10(%ebp)
 10033e5:	8b 45 10             	mov    0x10(%ebp),%eax
 10033e8:	83 e8 04             	sub    $0x4,%eax
 10033eb:	8b 00                	mov    (%eax),%eax
 10033ed:	89 45 e8             	mov    %eax,-0x18(%ebp)
 10033f0:	83 7d e8 00          	cmpl   $0x0,-0x18(%ebp)
 10033f4:	75 07                	jne    10033fd <vsprintf+0x206>
 10033f6:	c7 45 e8 e5 3f 00 01 	movl   $0x1003fe5,-0x18(%ebp)
 10033fd:	8b 45 e8             	mov    -0x18(%ebp),%eax
 1003400:	89 04 24             	mov    %eax,(%esp)
 1003403:	e8 bd f1 ff ff       	call   10025c5 <strlen>
 1003408:	89 45 f4             	mov    %eax,-0xc(%ebp)
 100340b:	83 7d dc 00          	cmpl   $0x0,-0x24(%ebp)
 100340f:	79 08                	jns    1003419 <vsprintf+0x222>
 1003411:	8b 45 f4             	mov    -0xc(%ebp),%eax
 1003414:	89 45 dc             	mov    %eax,-0x24(%ebp)
 1003417:	eb 0e                	jmp    1003427 <vsprintf+0x230>
 1003419:	8b 45 f4             	mov    -0xc(%ebp),%eax
 100341c:	3b 45 dc             	cmp    -0x24(%ebp),%eax
 100341f:	7e 06                	jle    1003427 <vsprintf+0x230>
 1003421:	8b 45 dc             	mov    -0x24(%ebp),%eax
 1003424:	89 45 f4             	mov    %eax,-0xc(%ebp)
 1003427:	8b 45 e4             	mov    -0x1c(%ebp),%eax
 100342a:	83 e0 10             	and    $0x10,%eax
 100342d:	85 c0                	test   %eax,%eax
 100342f:	75 1d                	jne    100344e <vsprintf+0x257>
 1003431:	eb 0a                	jmp    100343d <vsprintf+0x246>
 1003433:	8b 45 ec             	mov    -0x14(%ebp),%eax
 1003436:	c6 00 20             	movb   $0x20,(%eax)
 1003439:	83 45 ec 01          	addl   $0x1,-0x14(%ebp)
 100343d:	8b 45 e0             	mov    -0x20(%ebp),%eax
 1003440:	3b 45 f4             	cmp    -0xc(%ebp),%eax
 1003443:	0f 9f c0             	setg   %al
 1003446:	83 6d e0 01          	subl   $0x1,-0x20(%ebp)
 100344a:	84 c0                	test   %al,%al
 100344c:	75 e5                	jne    1003433 <vsprintf+0x23c>
 100344e:	c7 45 f0 00 00 00 00 	movl   $0x0,-0x10(%ebp)
 1003455:	eb 17                	jmp    100346e <vsprintf+0x277>
 1003457:	8b 45 e8             	mov    -0x18(%ebp),%eax
 100345a:	0f b6 10             	movzbl (%eax),%edx
 100345d:	8b 45 ec             	mov    -0x14(%ebp),%eax
 1003460:	88 10                	mov    %dl,(%eax)
 1003462:	83 45 ec 01          	addl   $0x1,-0x14(%ebp)
 1003466:	83 45 e8 01          	addl   $0x1,-0x18(%ebp)
 100346a:	83 45 f0 01          	addl   $0x1,-0x10(%ebp)
 100346e:	8b 45 f0             	mov    -0x10(%ebp),%eax
 1003471:	3b 45 f4             	cmp    -0xc(%ebp),%eax
 1003474:	7c e1                	jl     1003457 <vsprintf+0x260>
 1003476:	eb 0a                	jmp    1003482 <vsprintf+0x28b>
 1003478:	8b 45 ec             	mov    -0x14(%ebp),%eax
 100347b:	c6 00 20             	movb   $0x20,(%eax)
 100347e:	83 45 ec 01          	addl   $0x1,-0x14(%ebp)
 1003482:	8b 45 e0             	mov    -0x20(%ebp),%eax
 1003485:	3b 45 f4             	cmp    -0xc(%ebp),%eax
 1003488:	0f 9f c0             	setg   %al
 100348b:	83 6d e0 01          	subl   $0x1,-0x20(%ebp)
 100348f:	84 c0                	test   %al,%al
 1003491:	75 e5                	jne    1003478 <vsprintf+0x281>
 1003493:	e9 6d 01 00 00       	jmp    1003605 <vsprintf+0x40e>
 1003498:	83 45 10 04          	addl   $0x4,0x10(%ebp)
 100349c:	8b 45 10             	mov    0x10(%ebp),%eax
 100349f:	83 e8 04             	sub    $0x4,%eax
 10034a2:	8b 00                	mov    (%eax),%eax
 10034a4:	8b 55 e4             	mov    -0x1c(%ebp),%edx
 10034a7:	89 54 24 14          	mov    %edx,0x14(%esp)
 10034ab:	8b 55 dc             	mov    -0x24(%ebp),%edx
 10034ae:	89 54 24 10          	mov    %edx,0x10(%esp)
 10034b2:	8b 55 e0             	mov    -0x20(%ebp),%edx
 10034b5:	89 54 24 0c          	mov    %edx,0xc(%esp)
 10034b9:	c7 44 24 08 08 00 00 	movl   $0x8,0x8(%esp)
 10034c0:	00 
 10034c1:	89 44 24 04          	mov    %eax,0x4(%esp)
 10034c5:	8b 45 ec             	mov    -0x14(%ebp),%eax
 10034c8:	89 04 24             	mov    %eax,(%esp)
 10034cb:	e8 f5 fa ff ff       	call   1002fc5 <number>
 10034d0:	89 45 ec             	mov    %eax,-0x14(%ebp)
 10034d3:	e9 2d 01 00 00       	jmp    1003605 <vsprintf+0x40e>
 10034d8:	83 7d e0 ff          	cmpl   $0xffffffff,-0x20(%ebp)
 10034dc:	75 0b                	jne    10034e9 <vsprintf+0x2f2>
 10034de:	c7 45 e0 08 00 00 00 	movl   $0x8,-0x20(%ebp)
 10034e5:	83 4d e4 01          	orl    $0x1,-0x1c(%ebp)
 10034e9:	83 45 10 04          	addl   $0x4,0x10(%ebp)
 10034ed:	8b 45 10             	mov    0x10(%ebp),%eax
 10034f0:	83 e8 04             	sub    $0x4,%eax
 10034f3:	8b 00                	mov    (%eax),%eax
 10034f5:	8b 55 e4             	mov    -0x1c(%ebp),%edx
 10034f8:	89 54 24 14          	mov    %edx,0x14(%esp)
 10034fc:	8b 55 dc             	mov    -0x24(%ebp),%edx
 10034ff:	89 54 24 10          	mov    %edx,0x10(%esp)
 1003503:	8b 55 e0             	mov    -0x20(%ebp),%edx
 1003506:	89 54 24 0c          	mov    %edx,0xc(%esp)
 100350a:	c7 44 24 08 10 00 00 	movl   $0x10,0x8(%esp)
 1003511:	00 
 1003512:	89 44 24 04          	mov    %eax,0x4(%esp)
 1003516:	8b 45 ec             	mov    -0x14(%ebp),%eax
 1003519:	89 04 24             	mov    %eax,(%esp)
 100351c:	e8 a4 fa ff ff       	call   1002fc5 <number>
 1003521:	89 45 ec             	mov    %eax,-0x14(%ebp)
 1003524:	e9 dc 00 00 00       	jmp    1003605 <vsprintf+0x40e>
 1003529:	83 4d e4 40          	orl    $0x40,-0x1c(%ebp)
 100352d:	83 45 10 04          	addl   $0x4,0x10(%ebp)
 1003531:	8b 45 10             	mov    0x10(%ebp),%eax
 1003534:	83 e8 04             	sub    $0x4,%eax
 1003537:	8b 00                	mov    (%eax),%eax
 1003539:	8b 55 e4             	mov    -0x1c(%ebp),%edx
 100353c:	89 54 24 14          	mov    %edx,0x14(%esp)
 1003540:	8b 55 dc             	mov    -0x24(%ebp),%edx
 1003543:	89 54 24 10          	mov    %edx,0x10(%esp)
 1003547:	8b 55 e0             	mov    -0x20(%ebp),%edx
 100354a:	89 54 24 0c          	mov    %edx,0xc(%esp)
 100354e:	c7 44 24 08 10 00 00 	movl   $0x10,0x8(%esp)
 1003555:	00 
 1003556:	89 44 24 04          	mov    %eax,0x4(%esp)
 100355a:	8b 45 ec             	mov    -0x14(%ebp),%eax
 100355d:	89 04 24             	mov    %eax,(%esp)
 1003560:	e8 60 fa ff ff       	call   1002fc5 <number>
 1003565:	89 45 ec             	mov    %eax,-0x14(%ebp)
 1003568:	e9 98 00 00 00       	jmp    1003605 <vsprintf+0x40e>
 100356d:	83 4d e4 02          	orl    $0x2,-0x1c(%ebp)
 1003571:	83 45 10 04          	addl   $0x4,0x10(%ebp)
 1003575:	8b 45 10             	mov    0x10(%ebp),%eax
 1003578:	83 e8 04             	sub    $0x4,%eax
 100357b:	8b 00                	mov    (%eax),%eax
 100357d:	8b 55 e4             	mov    -0x1c(%ebp),%edx
 1003580:	89 54 24 14          	mov    %edx,0x14(%esp)
 1003584:	8b 55 dc             	mov    -0x24(%ebp),%edx
 1003587:	89 54 24 10          	mov    %edx,0x10(%esp)
 100358b:	8b 55 e0             	mov    -0x20(%ebp),%edx
 100358e:	89 54 24 0c          	mov    %edx,0xc(%esp)
 1003592:	c7 44 24 08 0a 00 00 	movl   $0xa,0x8(%esp)
 1003599:	00 
 100359a:	89 44 24 04          	mov    %eax,0x4(%esp)
 100359e:	8b 45 ec             	mov    -0x14(%ebp),%eax
 10035a1:	89 04 24             	mov    %eax,(%esp)
 10035a4:	e8 1c fa ff ff       	call   1002fc5 <number>
 10035a9:	89 45 ec             	mov    %eax,-0x14(%ebp)
 10035ac:	eb 57                	jmp    1003605 <vsprintf+0x40e>
 10035ae:	83 45 10 04          	addl   $0x4,0x10(%ebp)
 10035b2:	8b 45 10             	mov    0x10(%ebp),%eax
 10035b5:	83 e8 04             	sub    $0x4,%eax
 10035b8:	8b 00                	mov    (%eax),%eax
 10035ba:	89 45 d4             	mov    %eax,-0x2c(%ebp)
 10035bd:	8b 55 ec             	mov    -0x14(%ebp),%edx
 10035c0:	8b 45 08             	mov    0x8(%ebp),%eax
 10035c3:	29 c2                	sub    %eax,%edx
 10035c5:	8b 45 d4             	mov    -0x2c(%ebp),%eax
 10035c8:	89 10                	mov    %edx,(%eax)
 10035ca:	eb 39                	jmp    1003605 <vsprintf+0x40e>
 10035cc:	8b 45 0c             	mov    0xc(%ebp),%eax
 10035cf:	0f b6 00             	movzbl (%eax),%eax
 10035d2:	3c 25                	cmp    $0x25,%al
 10035d4:	74 0a                	je     10035e0 <vsprintf+0x3e9>
 10035d6:	8b 45 ec             	mov    -0x14(%ebp),%eax
 10035d9:	c6 00 25             	movb   $0x25,(%eax)
 10035dc:	83 45 ec 01          	addl   $0x1,-0x14(%ebp)
 10035e0:	8b 45 0c             	mov    0xc(%ebp),%eax
 10035e3:	0f b6 00             	movzbl (%eax),%eax
 10035e6:	84 c0                	test   %al,%al
 10035e8:	74 11                	je     10035fb <vsprintf+0x404>
 10035ea:	8b 45 0c             	mov    0xc(%ebp),%eax
 10035ed:	0f b6 10             	movzbl (%eax),%edx
 10035f0:	8b 45 ec             	mov    -0x14(%ebp),%eax
 10035f3:	88 10                	mov    %dl,(%eax)
 10035f5:	83 45 ec 01          	addl   $0x1,-0x14(%ebp)
 10035f9:	eb 0a                	jmp    1003605 <vsprintf+0x40e>
 10035fb:	8b 45 0c             	mov    0xc(%ebp),%eax
 10035fe:	83 e8 01             	sub    $0x1,%eax
 1003601:	89 45 0c             	mov    %eax,0xc(%ebp)
 1003604:	90                   	nop
 1003605:	8b 45 0c             	mov    0xc(%ebp),%eax
 1003608:	83 c0 01             	add    $0x1,%eax
 100360b:	89 45 0c             	mov    %eax,0xc(%ebp)
 100360e:	8b 45 0c             	mov    0xc(%ebp),%eax
 1003611:	0f b6 00             	movzbl (%eax),%eax
 1003614:	84 c0                	test   %al,%al
 1003616:	0f 85 ec fb ff ff    	jne    1003208 <vsprintf+0x11>
 100361c:	8b 45 ec             	mov    -0x14(%ebp),%eax
 100361f:	c6 00 00             	movb   $0x0,(%eax)
 1003622:	8b 55 ec             	mov    -0x14(%ebp),%edx
 1003625:	8b 45 08             	mov    0x8(%ebp),%eax
 1003628:	89 d1                	mov    %edx,%ecx
 100362a:	29 c1                	sub    %eax,%ecx
 100362c:	89 c8                	mov    %ecx,%eax
 100362e:	c9                   	leave  
 100362f:	c3                   	ret    

01003630 <sprintf>:
 1003630:	55                   	push   %ebp
 1003631:	89 e5                	mov    %esp,%ebp
 1003633:	83 ec 28             	sub    $0x28,%esp
 1003636:	8d 45 0c             	lea    0xc(%ebp),%eax
 1003639:	83 c0 04             	add    $0x4,%eax
 100363c:	89 45 f4             	mov    %eax,-0xc(%ebp)
 100363f:	8b 45 0c             	mov    0xc(%ebp),%eax
 1003642:	8b 55 f4             	mov    -0xc(%ebp),%edx
 1003645:	89 54 24 08          	mov    %edx,0x8(%esp)
 1003649:	89 44 24 04          	mov    %eax,0x4(%esp)
 100364d:	8b 45 08             	mov    0x8(%ebp),%eax
 1003650:	89 04 24             	mov    %eax,(%esp)
 1003653:	e8 9f fb ff ff       	call   10031f7 <vsprintf>
 1003658:	89 45 f0             	mov    %eax,-0x10(%ebp)
 100365b:	8b 45 f0             	mov    -0x10(%ebp),%eax
 100365e:	c9                   	leave  
 100365f:	c3                   	ret    

01003660 <inbuf_init>:
 1003660:	55                   	push   %ebp
 1003661:	89 e5                	mov    %esp,%ebp
 1003663:	c7 05 40 ca 2d 01 48 	movl   $0x12dca48,0x12dca40
 100366a:	ca 2d 01 
 100366d:	a1 40 ca 2d 01       	mov    0x12dca40,%eax
 1003672:	a3 44 ca 2d 01       	mov    %eax,0x12dca44
 1003677:	c7 05 48 ce 2d 01 00 	movl   $0x0,0x12dce48
 100367e:	00 00 00 
 1003681:	5d                   	pop    %ebp
 1003682:	c3                   	ret    

01003683 <inbuf_empty>:
 1003683:	55                   	push   %ebp
 1003684:	89 e5                	mov    %esp,%ebp
 1003686:	a1 48 ce 2d 01       	mov    0x12dce48,%eax
 100368b:	85 c0                	test   %eax,%eax
 100368d:	0f 9e c0             	setle  %al
 1003690:	0f b6 c0             	movzbl %al,%eax
 1003693:	5d                   	pop    %ebp
 1003694:	c3                   	ret    

01003695 <inbuf_full>:
 1003695:	55                   	push   %ebp
 1003696:	89 e5                	mov    %esp,%ebp
 1003698:	a1 48 ce 2d 01       	mov    0x12dce48,%eax
 100369d:	3d ff 03 00 00       	cmp    $0x3ff,%eax
 10036a2:	0f 9f c0             	setg   %al
 10036a5:	0f b6 c0             	movzbl %al,%eax
 10036a8:	5d                   	pop    %ebp
 10036a9:	c3                   	ret    

010036aa <inbuf_put>:
 10036aa:	55                   	push   %ebp
 10036ab:	89 e5                	mov    %esp,%ebp
 10036ad:	81 ec 28 01 00 00    	sub    $0x128,%esp
 10036b3:	8d 85 f4 fe ff ff    	lea    -0x10c(%ebp),%eax
 10036b9:	89 45 f4             	mov    %eax,-0xc(%ebp)
 10036bc:	8d 85 f4 fe ff ff    	lea    -0x10c(%ebp),%eax
 10036c2:	89 04 24             	mov    %eax,(%esp)
 10036c5:	e8 f6 f2 ff ff       	call   10029c0 <getline>
 10036ca:	eb 3c                	jmp    1003708 <inbuf_put+0x5e>
 10036cc:	a1 44 ca 2d 01       	mov    0x12dca44,%eax
 10036d1:	8b 55 f4             	mov    -0xc(%ebp),%edx
 10036d4:	0f b6 12             	movzbl (%edx),%edx
 10036d7:	88 10                	mov    %dl,(%eax)
 10036d9:	83 c0 01             	add    $0x1,%eax
 10036dc:	a3 44 ca 2d 01       	mov    %eax,0x12dca44
 10036e1:	a1 48 ce 2d 01       	mov    0x12dce48,%eax
 10036e6:	83 c0 01             	add    $0x1,%eax
 10036e9:	a3 48 ce 2d 01       	mov    %eax,0x12dce48
 10036ee:	a1 44 ca 2d 01       	mov    0x12dca44,%eax
 10036f3:	3d 47 ce 2d 01       	cmp    $0x12dce47,%eax
 10036f8:	76 0a                	jbe    1003704 <inbuf_put+0x5a>
 10036fa:	c7 05 44 ca 2d 01 48 	movl   $0x12dca48,0x12dca44
 1003701:	ca 2d 01 
 1003704:	83 45 f4 01          	addl   $0x1,-0xc(%ebp)
 1003708:	8b 45 f4             	mov    -0xc(%ebp),%eax
 100370b:	0f b6 00             	movzbl (%eax),%eax
 100370e:	84 c0                	test   %al,%al
 1003710:	75 ba                	jne    10036cc <inbuf_put+0x22>
 1003712:	c9                   	leave  
 1003713:	c3                   	ret    

01003714 <inbuf_get>:
 1003714:	55                   	push   %ebp
 1003715:	89 e5                	mov    %esp,%ebp
 1003717:	83 ec 18             	sub    $0x18,%esp
 100371a:	a1 48 ce 2d 01       	mov    0x12dce48,%eax
 100371f:	85 c0                	test   %eax,%eax
 1003721:	7f 05                	jg     1003728 <inbuf_get+0x14>
 1003723:	e8 82 ff ff ff       	call   10036aa <inbuf_put>
 1003728:	a1 40 ca 2d 01       	mov    0x12dca40,%eax
 100372d:	0f b6 10             	movzbl (%eax),%edx
 1003730:	88 55 f7             	mov    %dl,-0x9(%ebp)
 1003733:	83 c0 01             	add    $0x1,%eax
 1003736:	a3 40 ca 2d 01       	mov    %eax,0x12dca40
 100373b:	a1 48 ce 2d 01       	mov    0x12dce48,%eax
 1003740:	83 e8 01             	sub    $0x1,%eax
 1003743:	a3 48 ce 2d 01       	mov    %eax,0x12dce48
 1003748:	a1 40 ca 2d 01       	mov    0x12dca40,%eax
 100374d:	3d 47 ce 2d 01       	cmp    $0x12dce47,%eax
 1003752:	76 0a                	jbe    100375e <inbuf_get+0x4a>
 1003754:	c7 05 40 ca 2d 01 48 	movl   $0x12dca48,0x12dca40
 100375b:	ca 2d 01 
 100375e:	0f b6 45 f7          	movzbl -0x9(%ebp),%eax
 1003762:	c9                   	leave  
 1003763:	c3                   	ret    

01003764 <inbuf_unget>:
 1003764:	55                   	push   %ebp
 1003765:	89 e5                	mov    %esp,%ebp
 1003767:	a1 40 ca 2d 01       	mov    0x12dca40,%eax
 100376c:	83 e8 01             	sub    $0x1,%eax
 100376f:	a3 40 ca 2d 01       	mov    %eax,0x12dca40
 1003774:	a1 48 ce 2d 01       	mov    0x12dce48,%eax
 1003779:	83 c0 01             	add    $0x1,%eax
 100377c:	a3 48 ce 2d 01       	mov    %eax,0x12dce48
 1003781:	a1 40 ca 2d 01       	mov    0x12dca40,%eax
 1003786:	3d 48 ca 2d 01       	cmp    $0x12dca48,%eax
 100378b:	73 0a                	jae    1003797 <inbuf_unget+0x33>
 100378d:	c7 05 40 ca 2d 01 47 	movl   $0x12dce47,0x12dca40
 1003794:	ce 2d 01 
 1003797:	5d                   	pop    %ebp
 1003798:	c3                   	ret    

01003799 <mystrtol>:
 1003799:	55                   	push   %ebp
 100379a:	89 e5                	mov    %esp,%ebp
 100379c:	83 ec 38             	sub    $0x38,%esp
 100379f:	c7 45 d8 00 00 00 00 	movl   $0x0,-0x28(%ebp)
 10037a6:	8b 45 08             	mov    0x8(%ebp),%eax
 10037a9:	89 45 f4             	mov    %eax,-0xc(%ebp)
 10037ac:	8b 45 f4             	mov    -0xc(%ebp),%eax
 10037af:	0f b6 00             	movzbl (%eax),%eax
 10037b2:	0f b6 c0             	movzbl %al,%eax
 10037b5:	89 45 e8             	mov    %eax,-0x18(%ebp)
 10037b8:	83 45 f4 01          	addl   $0x1,-0xc(%ebp)
 10037bc:	8b 45 e8             	mov    -0x18(%ebp),%eax
 10037bf:	89 04 24             	mov    %eax,(%esp)
 10037c2:	e8 5c 06 00 00       	call   1003e23 <isspace>
 10037c7:	85 c0                	test   %eax,%eax
 10037c9:	75 e1                	jne    10037ac <mystrtol+0x13>
 10037cb:	83 7d e8 2d          	cmpl   $0x2d,-0x18(%ebp)
 10037cf:	75 19                	jne    10037ea <mystrtol+0x51>
 10037d1:	c7 45 e4 01 00 00 00 	movl   $0x1,-0x1c(%ebp)
 10037d8:	8b 45 f4             	mov    -0xc(%ebp),%eax
 10037db:	0f b6 00             	movzbl (%eax),%eax
 10037de:	0f be c0             	movsbl %al,%eax
 10037e1:	89 45 e8             	mov    %eax,-0x18(%ebp)
 10037e4:	83 45 f4 01          	addl   $0x1,-0xc(%ebp)
 10037e8:	eb 1d                	jmp    1003807 <mystrtol+0x6e>
 10037ea:	c7 45 e4 00 00 00 00 	movl   $0x0,-0x1c(%ebp)
 10037f1:	83 7d e8 2b          	cmpl   $0x2b,-0x18(%ebp)
 10037f5:	75 10                	jne    1003807 <mystrtol+0x6e>
 10037f7:	8b 45 f4             	mov    -0xc(%ebp),%eax
 10037fa:	0f b6 00             	movzbl (%eax),%eax
 10037fd:	0f be c0             	movsbl %al,%eax
 1003800:	89 45 e8             	mov    %eax,-0x18(%ebp)
 1003803:	83 45 f4 01          	addl   $0x1,-0xc(%ebp)
 1003807:	83 7d 0c 00          	cmpl   $0x0,0xc(%ebp)
 100380b:	74 06                	je     1003813 <mystrtol+0x7a>
 100380d:	83 7d 0c 10          	cmpl   $0x10,0xc(%ebp)
 1003811:	75 34                	jne    1003847 <mystrtol+0xae>
 1003813:	83 7d e8 30          	cmpl   $0x30,-0x18(%ebp)
 1003817:	75 2e                	jne    1003847 <mystrtol+0xae>
 1003819:	8b 45 f4             	mov    -0xc(%ebp),%eax
 100381c:	0f b6 00             	movzbl (%eax),%eax
 100381f:	3c 78                	cmp    $0x78,%al
 1003821:	74 0a                	je     100382d <mystrtol+0x94>
 1003823:	8b 45 f4             	mov    -0xc(%ebp),%eax
 1003826:	0f b6 00             	movzbl (%eax),%eax
 1003829:	3c 58                	cmp    $0x58,%al
 100382b:	75 1a                	jne    1003847 <mystrtol+0xae>
 100382d:	8b 45 f4             	mov    -0xc(%ebp),%eax
 1003830:	83 c0 01             	add    $0x1,%eax
 1003833:	0f b6 00             	movzbl (%eax),%eax
 1003836:	0f be c0             	movsbl %al,%eax
 1003839:	89 45 e8             	mov    %eax,-0x18(%ebp)
 100383c:	83 45 f4 02          	addl   $0x2,-0xc(%ebp)
 1003840:	c7 45 0c 10 00 00 00 	movl   $0x10,0xc(%ebp)
 1003847:	83 7d 0c 00          	cmpl   $0x0,0xc(%ebp)
 100384b:	75 15                	jne    1003862 <mystrtol+0xc9>
 100384d:	83 7d e8 30          	cmpl   $0x30,-0x18(%ebp)
 1003851:	75 07                	jne    100385a <mystrtol+0xc1>
 1003853:	b8 08 00 00 00       	mov    $0x8,%eax
 1003858:	eb 05                	jmp    100385f <mystrtol+0xc6>
 100385a:	b8 0a 00 00 00       	mov    $0xa,%eax
 100385f:	89 45 0c             	mov    %eax,0xc(%ebp)
 1003862:	83 7d e4 00          	cmpl   $0x0,-0x1c(%ebp)
 1003866:	74 07                	je     100386f <mystrtol+0xd6>
 1003868:	b8 00 00 00 80       	mov    $0x80000000,%eax
 100386d:	eb 05                	jmp    1003874 <mystrtol+0xdb>
 100386f:	b8 ff ff ff 7f       	mov    $0x7fffffff,%eax
 1003874:	89 45 ec             	mov    %eax,-0x14(%ebp)
 1003877:	8b 45 ec             	mov    -0x14(%ebp),%eax
 100387a:	89 c2                	mov    %eax,%edx
 100387c:	c1 fa 1f             	sar    $0x1f,%edx
 100387f:	f7 7d 0c             	idivl  0xc(%ebp)
 1003882:	89 55 dc             	mov    %edx,-0x24(%ebp)
 1003885:	8b 45 ec             	mov    -0x14(%ebp),%eax
 1003888:	89 c2                	mov    %eax,%edx
 100388a:	c1 fa 1f             	sar    $0x1f,%edx
 100388d:	f7 7d 0c             	idivl  0xc(%ebp)
 1003890:	89 45 ec             	mov    %eax,-0x14(%ebp)
 1003893:	83 7d e4 00          	cmpl   $0x0,-0x1c(%ebp)
 1003897:	74 13                	je     10038ac <mystrtol+0x113>
 1003899:	83 7d dc 00          	cmpl   $0x0,-0x24(%ebp)
 100389d:	7e 0a                	jle    10038a9 <mystrtol+0x110>
 100389f:	8b 45 0c             	mov    0xc(%ebp),%eax
 10038a2:	29 45 dc             	sub    %eax,-0x24(%ebp)
 10038a5:	83 45 ec 01          	addl   $0x1,-0x14(%ebp)
 10038a9:	f7 5d dc             	negl   -0x24(%ebp)
 10038ac:	c7 45 f0 00 00 00 00 	movl   $0x0,-0x10(%ebp)
 10038b3:	c7 45 e0 00 00 00 00 	movl   $0x0,-0x20(%ebp)
 10038ba:	8b 45 e8             	mov    -0x18(%ebp),%eax
 10038bd:	89 04 24             	mov    %eax,(%esp)
 10038c0:	e8 ef 04 00 00       	call   1003db4 <isdigit>
 10038c5:	85 c0                	test   %eax,%eax
 10038c7:	74 06                	je     10038cf <mystrtol+0x136>
 10038c9:	83 6d e8 30          	subl   $0x30,-0x18(%ebp)
 10038cd:	eb 31                	jmp    1003900 <mystrtol+0x167>
 10038cf:	8b 45 e8             	mov    -0x18(%ebp),%eax
 10038d2:	89 04 24             	mov    %eax,(%esp)
 10038d5:	e8 6c 05 00 00       	call   1003e46 <isalpha>
 10038da:	85 c0                	test   %eax,%eax
 10038dc:	0f 84 d2 00 00 00    	je     10039b4 <mystrtol+0x21b>
 10038e2:	8b 45 e8             	mov    -0x18(%ebp),%eax
 10038e5:	89 04 24             	mov    %eax,(%esp)
 10038e8:	e8 82 05 00 00       	call   1003e6f <isupper>
 10038ed:	85 c0                	test   %eax,%eax
 10038ef:	74 07                	je     10038f8 <mystrtol+0x15f>
 10038f1:	b8 37 00 00 00       	mov    $0x37,%eax
 10038f6:	eb 05                	jmp    10038fd <mystrtol+0x164>
 10038f8:	b8 57 00 00 00       	mov    $0x57,%eax
 10038fd:	29 45 e8             	sub    %eax,-0x18(%ebp)
 1003900:	8b 45 e8             	mov    -0x18(%ebp),%eax
 1003903:	3b 45 0c             	cmp    0xc(%ebp),%eax
 1003906:	0f 8d ab 00 00 00    	jge    10039b7 <mystrtol+0x21e>
 100390c:	83 7d e0 00          	cmpl   $0x0,-0x20(%ebp)
 1003910:	0f 88 88 00 00 00    	js     100399e <mystrtol+0x205>
 1003916:	83 7d e4 00          	cmpl   $0x0,-0x1c(%ebp)
 100391a:	74 41                	je     100395d <mystrtol+0x1c4>
 100391c:	8b 45 f0             	mov    -0x10(%ebp),%eax
 100391f:	3b 45 ec             	cmp    -0x14(%ebp),%eax
 1003922:	7c 10                	jl     1003934 <mystrtol+0x19b>
 1003924:	8b 45 f0             	mov    -0x10(%ebp),%eax
 1003927:	3b 45 ec             	cmp    -0x14(%ebp),%eax
 100392a:	75 18                	jne    1003944 <mystrtol+0x1ab>
 100392c:	8b 45 e8             	mov    -0x18(%ebp),%eax
 100392f:	3b 45 dc             	cmp    -0x24(%ebp),%eax
 1003932:	7e 10                	jle    1003944 <mystrtol+0x1ab>
 1003934:	c7 45 e0 ff ff ff ff 	movl   $0xffffffff,-0x20(%ebp)
 100393b:	c7 45 f0 00 00 00 80 	movl   $0x80000000,-0x10(%ebp)
 1003942:	eb 5b                	jmp    100399f <mystrtol+0x206>
 1003944:	c7 45 e0 01 00 00 00 	movl   $0x1,-0x20(%ebp)
 100394b:	8b 45 f0             	mov    -0x10(%ebp),%eax
 100394e:	0f af 45 0c          	imul   0xc(%ebp),%eax
 1003952:	89 45 f0             	mov    %eax,-0x10(%ebp)
 1003955:	8b 45 e8             	mov    -0x18(%ebp),%eax
 1003958:	29 45 f0             	sub    %eax,-0x10(%ebp)
 100395b:	eb 42                	jmp    100399f <mystrtol+0x206>
 100395d:	8b 45 f0             	mov    -0x10(%ebp),%eax
 1003960:	3b 45 ec             	cmp    -0x14(%ebp),%eax
 1003963:	7f 10                	jg     1003975 <mystrtol+0x1dc>
 1003965:	8b 45 f0             	mov    -0x10(%ebp),%eax
 1003968:	3b 45 ec             	cmp    -0x14(%ebp),%eax
 100396b:	75 18                	jne    1003985 <mystrtol+0x1ec>
 100396d:	8b 45 e8             	mov    -0x18(%ebp),%eax
 1003970:	3b 45 dc             	cmp    -0x24(%ebp),%eax
 1003973:	7e 10                	jle    1003985 <mystrtol+0x1ec>
 1003975:	c7 45 e0 ff ff ff ff 	movl   $0xffffffff,-0x20(%ebp)
 100397c:	c7 45 f0 ff ff ff 7f 	movl   $0x7fffffff,-0x10(%ebp)
 1003983:	eb 1a                	jmp    100399f <mystrtol+0x206>
 1003985:	c7 45 e0 01 00 00 00 	movl   $0x1,-0x20(%ebp)
 100398c:	8b 45 f0             	mov    -0x10(%ebp),%eax
 100398f:	0f af 45 0c          	imul   0xc(%ebp),%eax
 1003993:	89 45 f0             	mov    %eax,-0x10(%ebp)
 1003996:	8b 45 e8             	mov    -0x18(%ebp),%eax
 1003999:	01 45 f0             	add    %eax,-0x10(%ebp)
 100399c:	eb 01                	jmp    100399f <mystrtol+0x206>
 100399e:	90                   	nop
 100399f:	8b 45 f4             	mov    -0xc(%ebp),%eax
 10039a2:	0f b6 00             	movzbl (%eax),%eax
 10039a5:	0f b6 c0             	movzbl %al,%eax
 10039a8:	89 45 e8             	mov    %eax,-0x18(%ebp)
 10039ab:	83 45 f4 01          	addl   $0x1,-0xc(%ebp)
 10039af:	e9 06 ff ff ff       	jmp    10038ba <mystrtol+0x121>
 10039b4:	90                   	nop
 10039b5:	eb 01                	jmp    10039b8 <mystrtol+0x21f>
 10039b7:	90                   	nop
 10039b8:	83 7d d8 00          	cmpl   $0x0,-0x28(%ebp)
 10039bc:	74 16                	je     10039d4 <mystrtol+0x23b>
 10039be:	83 7d e0 00          	cmpl   $0x0,-0x20(%ebp)
 10039c2:	74 08                	je     10039cc <mystrtol+0x233>
 10039c4:	8b 45 f4             	mov    -0xc(%ebp),%eax
 10039c7:	83 e8 01             	sub    $0x1,%eax
 10039ca:	eb 03                	jmp    10039cf <mystrtol+0x236>
 10039cc:	8b 45 08             	mov    0x8(%ebp),%eax
 10039cf:	8b 55 d8             	mov    -0x28(%ebp),%edx
 10039d2:	89 02                	mov    %eax,(%edx)
 10039d4:	8b 45 f0             	mov    -0x10(%ebp),%eax
 10039d7:	c9                   	leave  
 10039d8:	c3                   	ret    

010039d9 <get_strnum>:
 10039d9:	55                   	push   %ebp
 10039da:	89 e5                	mov    %esp,%ebp
 10039dc:	83 ec 08             	sub    $0x8,%esp
 10039df:	e8 30 fd ff ff       	call   1003714 <inbuf_get>
 10039e4:	8b 55 08             	mov    0x8(%ebp),%edx
 10039e7:	88 02                	mov    %al,(%edx)
 10039e9:	8b 45 08             	mov    0x8(%ebp),%eax
 10039ec:	0f b6 00             	movzbl (%eax),%eax
 10039ef:	3c 2f                	cmp    $0x2f,%al
 10039f1:	7e 0a                	jle    10039fd <get_strnum+0x24>
 10039f3:	8b 45 08             	mov    0x8(%ebp),%eax
 10039f6:	0f b6 00             	movzbl (%eax),%eax
 10039f9:	3c 39                	cmp    $0x39,%al
 10039fb:	7e 43                	jle    1003a40 <get_strnum+0x67>
 10039fd:	8b 45 08             	mov    0x8(%ebp),%eax
 1003a00:	0f b6 00             	movzbl (%eax),%eax
 1003a03:	3c 60                	cmp    $0x60,%al
 1003a05:	7e 13                	jle    1003a1a <get_strnum+0x41>
 1003a07:	8b 45 08             	mov    0x8(%ebp),%eax
 1003a0a:	0f b6 00             	movzbl (%eax),%eax
 1003a0d:	0f be c0             	movsbl %al,%eax
 1003a10:	8b 55 0c             	mov    0xc(%ebp),%edx
 1003a13:	83 c2 56             	add    $0x56,%edx
 1003a16:	39 d0                	cmp    %edx,%eax
 1003a18:	7e 26                	jle    1003a40 <get_strnum+0x67>
 1003a1a:	8b 45 08             	mov    0x8(%ebp),%eax
 1003a1d:	0f b6 00             	movzbl (%eax),%eax
 1003a20:	3c 40                	cmp    $0x40,%al
 1003a22:	7e 13                	jle    1003a37 <get_strnum+0x5e>
 1003a24:	8b 45 08             	mov    0x8(%ebp),%eax
 1003a27:	0f b6 00             	movzbl (%eax),%eax
 1003a2a:	0f be c0             	movsbl %al,%eax
 1003a2d:	8b 55 0c             	mov    0xc(%ebp),%edx
 1003a30:	83 c2 36             	add    $0x36,%edx
 1003a33:	39 d0                	cmp    %edx,%eax
 1003a35:	7e 09                	jle    1003a40 <get_strnum+0x67>
 1003a37:	e8 47 fc ff ff       	call   1003683 <inbuf_empty>
 1003a3c:	85 c0                	test   %eax,%eax
 1003a3e:	74 9f                	je     10039df <get_strnum+0x6>
 1003a40:	8b 45 08             	mov    0x8(%ebp),%eax
 1003a43:	0f b6 00             	movzbl (%eax),%eax
 1003a46:	3c 2f                	cmp    $0x2f,%al
 1003a48:	7e 0a                	jle    1003a54 <get_strnum+0x7b>
 1003a4a:	8b 45 08             	mov    0x8(%ebp),%eax
 1003a4d:	0f b6 00             	movzbl (%eax),%eax
