
snake.bin:     file format binary


Disassembly of section .data:

00000000 <.data>:
       0:	bf 2c 44 00 01       	mov    $0x100442c,%edi
       5:	b9 ac 09 0f 01       	mov    $0x10f09ac,%ecx
       a:	81 e9 2c 44 00 01    	sub    $0x100442c,%ecx
      10:	b8 00 00 00 00       	mov    $0x0,%eax
      15:	fc                   	cld    
      16:	f3 aa                	rep stos %al,%es:(%edi)
      18:	e8 cf 30 00 00       	call   0x30ec
      1d:	6a 00                	push   $0x0
      1f:	6a 00                	push   $0x0
      21:	e8 fc 1c 00 00       	call   0x1d22
      26:	83 c4 08             	add    $0x8,%esp
      29:	89 c3                	mov    %eax,%ebx
      2b:	b8 09 00 00 00       	mov    $0x9,%eax
      30:	cd 80                	int    $0x80
      32:	00 00                	add    %al,(%eax)
      34:	00 00                	add    %al,(%eax)
      36:	90                   	nop
      37:	90                   	nop
      38:	55                   	push   %ebp
      39:	89 e5                	mov    %esp,%ebp
      3b:	83 ec 14             	sub    $0x14,%esp
      3e:	b8 0b 00 00 00       	mov    $0xb,%eax
      43:	cd 80                	int    $0x80
      45:	89 45 fc             	mov    %eax,-0x4(%ebp)
      48:	83 7d fc 00          	cmpl   $0x0,-0x4(%ebp)
      4c:	79 13                	jns    0x61
      4e:	8b 45 fc             	mov    -0x4(%ebp),%eax
      51:	f7 d8                	neg    %eax
      53:	a3 32 00 00 01       	mov    %eax,0x1000032
      58:	c7 45 ec ff ff ff ff 	movl   $0xffffffff,-0x14(%ebp)
      5f:	eb 06                	jmp    0x67
      61:	8b 45 fc             	mov    -0x4(%ebp),%eax
      64:	89 45 ec             	mov    %eax,-0x14(%ebp)
      67:	8b 45 ec             	mov    -0x14(%ebp),%eax
      6a:	c9                   	leave  
      6b:	c3                   	ret    
      6c:	55                   	push   %ebp
      6d:	89 e5                	mov    %esp,%ebp
      6f:	83 ec 10             	sub    $0x10,%esp
      72:	b8 13 00 00 00       	mov    $0x13,%eax
      77:	cd 80                	int    $0x80
      79:	89 45 fc             	mov    %eax,-0x4(%ebp)
      7c:	83 7d fc 00          	cmpl   $0x0,-0x4(%ebp)
      80:	79 0a                	jns    0x8c
      82:	8b 45 fc             	mov    -0x4(%ebp),%eax
      85:	f7 d8                	neg    %eax
      87:	a3 32 00 00 01       	mov    %eax,0x1000032
      8c:	c9                   	leave  
      8d:	c3                   	ret    
      8e:	55                   	push   %ebp
      8f:	89 e5                	mov    %esp,%ebp
      91:	83 ec 18             	sub    $0x18,%esp
      94:	8b 45 08             	mov    0x8(%ebp),%eax
      97:	89 45 e8             	mov    %eax,-0x18(%ebp)
      9a:	8b 45 0c             	mov    0xc(%ebp),%eax
      9d:	89 45 ec             	mov    %eax,-0x14(%ebp)
      a0:	dd 45 e8             	fldl   -0x18(%ebp)
      a3:	d9 fe                	fsin   
      a5:	dd 5d f8             	fstpl  -0x8(%ebp)
      a8:	dd 45 f8             	fldl   -0x8(%ebp)
      ab:	c9                   	leave  
      ac:	c3                   	ret    
      ad:	55                   	push   %ebp
      ae:	89 e5                	mov    %esp,%ebp
      b0:	83 ec 18             	sub    $0x18,%esp
      b3:	8b 45 08             	mov    0x8(%ebp),%eax
      b6:	89 45 e8             	mov    %eax,-0x18(%ebp)
      b9:	8b 45 0c             	mov    0xc(%ebp),%eax
      bc:	89 45 ec             	mov    %eax,-0x14(%ebp)
      bf:	dd 45 e8             	fldl   -0x18(%ebp)
      c2:	d9 ff                	fcos   
      c4:	dd 5d f8             	fstpl  -0x8(%ebp)
      c7:	dd 45 f8             	fldl   -0x8(%ebp)
      ca:	c9                   	leave  
      cb:	c3                   	ret    
      cc:	55                   	push   %ebp
      cd:	89 e5                	mov    %esp,%ebp
      cf:	83 ec 38             	sub    $0x38,%esp
      d2:	c7 45 e0 d2 07 00 00 	movl   $0x7d2,-0x20(%ebp)
      d9:	8b 45 08             	mov    0x8(%ebp),%eax
      dc:	89 45 e8             	mov    %eax,-0x18(%ebp)
      df:	8b 45 0c             	mov    0xc(%ebp),%eax
      e2:	c1 e0 10             	shl    $0x10,%eax
      e5:	0b 45 10             	or     0x10(%ebp),%eax
      e8:	89 45 ec             	mov    %eax,-0x14(%ebp)
      eb:	8b 45 14             	mov    0x14(%ebp),%eax
      ee:	c1 e0 10             	shl    $0x10,%eax
      f1:	0b 45 18             	or     0x18(%ebp),%eax
      f4:	89 45 f0             	mov    %eax,-0x10(%ebp)
      f7:	8b 45 1c             	mov    0x1c(%ebp),%eax
      fa:	89 45 f4             	mov    %eax,-0xc(%ebp)
      fd:	8b 45 1c             	mov    0x1c(%ebp),%eax
     100:	89 04 24             	mov    %eax,(%esp)
     103:	e8 1f 29 00 00       	call   0x2a27
     108:	83 c0 01             	add    $0x1,%eax
     10b:	89 45 f8             	mov    %eax,-0x8(%ebp)
     10e:	8b 15 84 05 0f 01    	mov    0x10f0584,%edx
     114:	8d 45 e0             	lea    -0x20(%ebp),%eax
     117:	89 44 24 04          	mov    %eax,0x4(%esp)
     11b:	89 14 24             	mov    %edx,(%esp)
     11e:	e8 e0 2e 00 00       	call   0x3003
     123:	c7 44 24 08 01 00 00 	movl   $0x1,0x8(%esp)
     12a:	00 
     12b:	8d 45 e0             	lea    -0x20(%ebp),%eax
     12e:	89 44 24 04          	mov    %eax,0x4(%esp)
     132:	c7 04 24 ff ff ff ff 	movl   $0xffffffff,(%esp)
     139:	e8 04 2f 00 00       	call   0x3042
     13e:	8b 45 e0             	mov    -0x20(%ebp),%eax
     141:	3d a2 0f 00 00       	cmp    $0xfa2,%eax
     146:	75 db                	jne    0x123
     148:	8b 45 e8             	mov    -0x18(%ebp),%eax
     14b:	c9                   	leave  
     14c:	c3                   	ret    
     14d:	55                   	push   %ebp
     14e:	89 e5                	mov    %esp,%ebp
     150:	83 ec 28             	sub    $0x28,%esp
     153:	c7 45 e0 d4 07 00 00 	movl   $0x7d4,-0x20(%ebp)
     15a:	8b 45 08             	mov    0x8(%ebp),%eax
     15d:	89 45 e8             	mov    %eax,-0x18(%ebp)
     160:	8b 45 0c             	mov    0xc(%ebp),%eax
     163:	89 45 ec             	mov    %eax,-0x14(%ebp)
     166:	8b 45 10             	mov    0x10(%ebp),%eax
     169:	c1 e0 10             	shl    $0x10,%eax
     16c:	0b 45 14             	or     0x14(%ebp),%eax
     16f:	89 45 f0             	mov    %eax,-0x10(%ebp)
     172:	8b 45 18             	mov    0x18(%ebp),%eax
     175:	c1 e0 10             	shl    $0x10,%eax
     178:	0b 45 1c             	or     0x1c(%ebp),%eax
     17b:	89 45 f4             	mov    %eax,-0xc(%ebp)
     17e:	8b 15 84 05 0f 01    	mov    0x10f0584,%edx
     184:	8d 45 e0             	lea    -0x20(%ebp),%eax
     187:	89 44 24 04          	mov    %eax,0x4(%esp)
     18b:	89 14 24             	mov    %edx,(%esp)
     18e:	e8 70 2e 00 00       	call   0x3003
     193:	c9                   	leave  
     194:	c3                   	ret    
     195:	55                   	push   %ebp
     196:	89 e5                	mov    %esp,%ebp
     198:	83 ec 38             	sub    $0x38,%esp
     19b:	c7 45 e0 d6 07 00 00 	movl   $0x7d6,-0x20(%ebp)
     1a2:	8b 45 08             	mov    0x8(%ebp),%eax
     1a5:	89 45 e8             	mov    %eax,-0x18(%ebp)
     1a8:	8b 15 84 05 0f 01    	mov    0x10f0584,%edx
     1ae:	8d 45 e0             	lea    -0x20(%ebp),%eax
     1b1:	89 44 24 04          	mov    %eax,0x4(%esp)
     1b5:	89 14 24             	mov    %edx,(%esp)
     1b8:	e8 46 2e 00 00       	call   0x3003
     1bd:	c7 44 24 08 01 00 00 	movl   $0x1,0x8(%esp)
     1c4:	00 
     1c5:	8d 45 e0             	lea    -0x20(%ebp),%eax
     1c8:	89 44 24 04          	mov    %eax,0x4(%esp)
     1cc:	c7 04 24 ff ff ff ff 	movl   $0xffffffff,(%esp)
     1d3:	e8 6a 2e 00 00       	call   0x3042
     1d8:	8b 45 e0             	mov    -0x20(%ebp),%eax
     1db:	89 44 24 04          	mov    %eax,0x4(%esp)
     1df:	c7 04 24 14 42 00 01 	movl   $0x1004214,(%esp)
     1e6:	e8 11 2f 00 00       	call   0x30fc
     1eb:	8b 45 e0             	mov    -0x20(%ebp),%eax
     1ee:	3d a2 0f 00 00       	cmp    $0xfa2,%eax
     1f3:	75 c8                	jne    0x1bd
     1f5:	8b 45 e8             	mov    -0x18(%ebp),%eax
     1f8:	c9                   	leave  
     1f9:	c3                   	ret    
     1fa:	55                   	push   %ebp
     1fb:	89 e5                	mov    %esp,%ebp
     1fd:	83 ec 28             	sub    $0x28,%esp
     200:	c7 45 e0 d8 07 00 00 	movl   $0x7d8,-0x20(%ebp)
     207:	8b 45 08             	mov    0x8(%ebp),%eax
     20a:	89 45 e8             	mov    %eax,-0x18(%ebp)
     20d:	8b 45 0c             	mov    0xc(%ebp),%eax
     210:	89 45 ec             	mov    %eax,-0x14(%ebp)
     213:	8b 15 84 05 0f 01    	mov    0x10f0584,%edx
     219:	8d 45 e0             	lea    -0x20(%ebp),%eax
     21c:	89 44 24 04          	mov    %eax,0x4(%esp)
     220:	89 14 24             	mov    %edx,(%esp)
     223:	e8 db 2d 00 00       	call   0x3003
     228:	c9                   	leave  
     229:	c3                   	ret    
     22a:	55                   	push   %ebp
     22b:	89 e5                	mov    %esp,%ebp
     22d:	56                   	push   %esi
     22e:	53                   	push   %ebx
     22f:	83 ec 30             	sub    $0x30,%esp
     232:	c7 45 f0 00 00 00 00 	movl   $0x0,-0x10(%ebp)
     239:	e9 59 01 00 00       	jmp    0x397
     23e:	c7 45 f4 00 00 00 00 	movl   $0x0,-0xc(%ebp)
     245:	e9 3f 01 00 00       	jmp    0x389
     24a:	8b 55 f0             	mov    -0x10(%ebp),%edx
     24d:	8b 4d f4             	mov    -0xc(%ebp),%ecx
     250:	89 d0                	mov    %edx,%eax
     252:	c1 e0 02             	shl    $0x2,%eax
     255:	01 d0                	add    %edx,%eax
     257:	c1 e0 02             	shl    $0x2,%eax
     25a:	01 c8                	add    %ecx,%eax
     25c:	8b 04 85 40 ff 0e 01 	mov    0x10eff40(,%eax,4),%eax
     263:	85 c0                	test   %eax,%eax
     265:	75 58                	jne    0x2bf
     267:	8b 55 f4             	mov    -0xc(%ebp),%edx
     26a:	89 d0                	mov    %edx,%eax
     26c:	c1 e0 04             	shl    $0x4,%eax
     26f:	29 d0                	sub    %edx,%eax
     271:	83 c0 1e             	add    $0x1e,%eax
     274:	89 c3                	mov    %eax,%ebx
     276:	8b 45 f0             	mov    -0x10(%ebp),%eax
     279:	8d 50 01             	lea    0x1(%eax),%edx
     27c:	89 d0                	mov    %edx,%eax
     27e:	c1 e0 04             	shl    $0x4,%eax
     281:	29 d0                	sub    %edx,%eax
     283:	89 c6                	mov    %eax,%esi
     285:	8b 45 f4             	mov    -0xc(%ebp),%eax
     288:	8d 50 01             	lea    0x1(%eax),%edx
     28b:	89 d0                	mov    %edx,%eax
     28d:	c1 e0 04             	shl    $0x4,%eax
     290:	29 d0                	sub    %edx,%eax
     292:	89 c1                	mov    %eax,%ecx
     294:	8b 55 f0             	mov    -0x10(%ebp),%edx
     297:	89 d0                	mov    %edx,%eax
     299:	c1 e0 04             	shl    $0x4,%eax
     29c:	29 d0                	sub    %edx,%eax
     29e:	c7 44 24 10 ff ff 00 	movl   $0xffff,0x10(%esp)
     2a5:	00 
     2a6:	89 5c 24 0c          	mov    %ebx,0xc(%esp)
     2aa:	89 74 24 08          	mov    %esi,0x8(%esp)
     2ae:	89 4c 24 04          	mov    %ecx,0x4(%esp)
     2b2:	89 04 24             	mov    %eax,(%esp)
     2b5:	e8 67 1c 00 00       	call   0x1f21
     2ba:	e9 c6 00 00 00       	jmp    0x385
     2bf:	8b 55 f0             	mov    -0x10(%ebp),%edx
     2c2:	8b 4d f4             	mov    -0xc(%ebp),%ecx
     2c5:	89 d0                	mov    %edx,%eax
     2c7:	c1 e0 02             	shl    $0x2,%eax
     2ca:	01 d0                	add    %edx,%eax
     2cc:	c1 e0 02             	shl    $0x2,%eax
     2cf:	01 c8                	add    %ecx,%eax
     2d1:	8b 04 85 40 ff 0e 01 	mov    0x10eff40(,%eax,4),%eax
     2d8:	83 f8 06             	cmp    $0x6,%eax
     2db:	75 55                	jne    0x332
     2dd:	8b 55 f4             	mov    -0xc(%ebp),%edx
     2e0:	89 d0                	mov    %edx,%eax
     2e2:	c1 e0 04             	shl    $0x4,%eax
     2e5:	29 d0                	sub    %edx,%eax
     2e7:	83 c0 1e             	add    $0x1e,%eax
     2ea:	89 c3                	mov    %eax,%ebx
     2ec:	8b 45 f0             	mov    -0x10(%ebp),%eax
     2ef:	8d 50 01             	lea    0x1(%eax),%edx
     2f2:	89 d0                	mov    %edx,%eax
     2f4:	c1 e0 04             	shl    $0x4,%eax
     2f7:	29 d0                	sub    %edx,%eax
     2f9:	89 c6                	mov    %eax,%esi
     2fb:	8b 45 f4             	mov    -0xc(%ebp),%eax
     2fe:	8d 50 01             	lea    0x1(%eax),%edx
     301:	89 d0                	mov    %edx,%eax
     303:	c1 e0 04             	shl    $0x4,%eax
     306:	29 d0                	sub    %edx,%eax
     308:	89 c1                	mov    %eax,%ecx
     30a:	8b 55 f0             	mov    -0x10(%ebp),%edx
     30d:	89 d0                	mov    %edx,%eax
     30f:	c1 e0 04             	shl    $0x4,%eax
     312:	29 d0                	sub    %edx,%eax
     314:	c7 44 24 10 00 f8 00 	movl   $0xf800,0x10(%esp)
     31b:	00 
     31c:	89 5c 24 0c          	mov    %ebx,0xc(%esp)
     320:	89 74 24 08          	mov    %esi,0x8(%esp)
     324:	89 4c 24 04          	mov    %ecx,0x4(%esp)
     328:	89 04 24             	mov    %eax,(%esp)
     32b:	e8 f1 1b 00 00       	call   0x1f21
     330:	eb 53                	jmp    0x385
     332:	8b 55 f4             	mov    -0xc(%ebp),%edx
     335:	89 d0                	mov    %edx,%eax
     337:	c1 e0 04             	shl    $0x4,%eax
     33a:	29 d0                	sub    %edx,%eax
     33c:	83 c0 1e             	add    $0x1e,%eax
     33f:	89 c3                	mov    %eax,%ebx
     341:	8b 45 f0             	mov    -0x10(%ebp),%eax
     344:	8d 50 01             	lea    0x1(%eax),%edx
     347:	89 d0                	mov    %edx,%eax
     349:	c1 e0 04             	shl    $0x4,%eax
     34c:	29 d0                	sub    %edx,%eax
     34e:	89 c6                	mov    %eax,%esi
     350:	8b 45 f4             	mov    -0xc(%ebp),%eax
     353:	8d 50 01             	lea    0x1(%eax),%edx
     356:	89 d0                	mov    %edx,%eax
     358:	c1 e0 04             	shl    $0x4,%eax
     35b:	29 d0                	sub    %edx,%eax
     35d:	89 c1                	mov    %eax,%ecx
     35f:	8b 55 f0             	mov    -0x10(%ebp),%edx
     362:	89 d0                	mov    %edx,%eax
     364:	c1 e0 04             	shl    $0x4,%eax
     367:	29 d0                	sub    %edx,%eax
     369:	c7 44 24 10 1f 00 00 	movl   $0x1f,0x10(%esp)
     370:	00 
     371:	89 5c 24 0c          	mov    %ebx,0xc(%esp)
     375:	89 74 24 08          	mov    %esi,0x8(%esp)
     379:	89 4c 24 04          	mov    %ecx,0x4(%esp)
     37d:	89 04 24             	mov    %eax,(%esp)
     380:	e8 9c 1b 00 00       	call   0x1f21
     385:	83 45 f4 01          	addl   $0x1,-0xc(%ebp)
     389:	83 7d f4 13          	cmpl   $0x13,-0xc(%ebp)
     38d:	0f 8e b7 fe ff ff    	jle    0x24a
     393:	83 45 f0 01          	addl   $0x1,-0x10(%ebp)
     397:	83 7d f0 13          	cmpl   $0x13,-0x10(%ebp)
     39b:	0f 8e 9d fe ff ff    	jle    0x23e
     3a1:	c7 44 24 14 3b 01 00 	movl   $0x13b,0x14(%esp)
     3a8:	00 
     3a9:	c7 44 24 10 2c 01 00 	movl   $0x12c,0x10(%esp)
     3b0:	00 
     3b1:	c7 44 24 0c 00 00 00 	movl   $0x0,0xc(%esp)
     3b8:	00 
     3b9:	c7 44 24 08 00 00 00 	movl   $0x0,0x8(%esp)
     3c0:	00 
     3c1:	c7 44 24 04 80 54 00 	movl   $0x1005480,0x4(%esp)
     3c8:	01 
     3c9:	8b 45 08             	mov    0x8(%ebp),%eax
     3cc:	89 04 24             	mov    %eax,(%esp)
     3cf:	e8 79 fd ff ff       	call   0x14d
     3d4:	83 c4 30             	add    $0x30,%esp
     3d7:	5b                   	pop    %ebx
     3d8:	5e                   	pop    %esi
     3d9:	5d                   	pop    %ebp
     3da:	c3                   	ret    
     3db:	55                   	push   %ebp
     3dc:	89 e5                	mov    %esp,%ebp
     3de:	53                   	push   %ebx
     3df:	83 ec 14             	sub    $0x14,%esp
     3e2:	e8 30 27 00 00       	call   0x2b17
     3e7:	89 c1                	mov    %eax,%ecx
     3e9:	c7 45 e8 67 66 66 66 	movl   $0x66666667,-0x18(%ebp)
     3f0:	8b 45 e8             	mov    -0x18(%ebp),%eax
     3f3:	f7 e9                	imul   %ecx
     3f5:	c1 fa 03             	sar    $0x3,%edx
     3f8:	89 c8                	mov    %ecx,%eax
     3fa:	c1 f8 1f             	sar    $0x1f,%eax
     3fd:	89 d3                	mov    %edx,%ebx
     3ff:	29 c3                	sub    %eax,%ebx
     401:	89 d8                	mov    %ebx,%eax
     403:	89 45 f4             	mov    %eax,-0xc(%ebp)
     406:	8b 55 f4             	mov    -0xc(%ebp),%edx
     409:	89 d0                	mov    %edx,%eax
     40b:	c1 e0 02             	shl    $0x2,%eax
     40e:	01 d0                	add    %edx,%eax
     410:	c1 e0 02             	shl    $0x2,%eax
     413:	89 ca                	mov    %ecx,%edx
     415:	29 c2                	sub    %eax,%edx
     417:	89 d0                	mov    %edx,%eax
     419:	89 45 f4             	mov    %eax,-0xc(%ebp)
     41c:	e8 f6 26 00 00       	call   0x2b17
     421:	89 c1                	mov    %eax,%ecx
     423:	c7 45 e8 67 66 66 66 	movl   $0x66666667,-0x18(%ebp)
     42a:	8b 45 e8             	mov    -0x18(%ebp),%eax
     42d:	f7 e9                	imul   %ecx
     42f:	c1 fa 03             	sar    $0x3,%edx
     432:	89 c8                	mov    %ecx,%eax
     434:	c1 f8 1f             	sar    $0x1f,%eax
     437:	89 d3                	mov    %edx,%ebx
     439:	29 c3                	sub    %eax,%ebx
     43b:	89 d8                	mov    %ebx,%eax
     43d:	89 45 f8             	mov    %eax,-0x8(%ebp)
     440:	8b 55 f8             	mov    -0x8(%ebp),%edx
     443:	89 d0                	mov    %edx,%eax
     445:	c1 e0 02             	shl    $0x2,%eax
     448:	01 d0                	add    %edx,%eax
     44a:	c1 e0 02             	shl    $0x2,%eax
     44d:	89 ca                	mov    %ecx,%edx
     44f:	29 c2                	sub    %eax,%edx
     451:	89 d0                	mov    %edx,%eax
     453:	89 45 f8             	mov    %eax,-0x8(%ebp)
     456:	eb 74                	jmp    0x4cc
     458:	e8 ba 26 00 00       	call   0x2b17
     45d:	89 c1                	mov    %eax,%ecx
     45f:	c7 45 e8 67 66 66 66 	movl   $0x66666667,-0x18(%ebp)
     466:	8b 45 e8             	mov    -0x18(%ebp),%eax
     469:	f7 e9                	imul   %ecx
     46b:	c1 fa 03             	sar    $0x3,%edx
     46e:	89 c8                	mov    %ecx,%eax
     470:	c1 f8 1f             	sar    $0x1f,%eax
     473:	89 d3                	mov    %edx,%ebx
     475:	29 c3                	sub    %eax,%ebx
     477:	89 d8                	mov    %ebx,%eax
     479:	89 45 f4             	mov    %eax,-0xc(%ebp)
     47c:	8b 55 f4             	mov    -0xc(%ebp),%edx
     47f:	89 d0                	mov    %edx,%eax
     481:	c1 e0 02             	shl    $0x2,%eax
     484:	01 d0                	add    %edx,%eax
     486:	c1 e0 02             	shl    $0x2,%eax
     489:	89 ca                	mov    %ecx,%edx
     48b:	29 c2                	sub    %eax,%edx
     48d:	89 d0                	mov    %edx,%eax
     48f:	89 45 f4             	mov    %eax,-0xc(%ebp)
     492:	e8 80 26 00 00       	call   0x2b17
     497:	89 c1                	mov    %eax,%ecx
     499:	c7 45 e8 67 66 66 66 	movl   $0x66666667,-0x18(%ebp)
     4a0:	8b 45 e8             	mov    -0x18(%ebp),%eax
     4a3:	f7 e9                	imul   %ecx
     4a5:	c1 fa 03             	sar    $0x3,%edx
     4a8:	89 c8                	mov    %ecx,%eax
     4aa:	c1 f8 1f             	sar    $0x1f,%eax
     4ad:	89 d3                	mov    %edx,%ebx
     4af:	29 c3                	sub    %eax,%ebx
     4b1:	89 d8                	mov    %ebx,%eax
     4b3:	89 45 f8             	mov    %eax,-0x8(%ebp)
     4b6:	8b 55 f8             	mov    -0x8(%ebp),%edx
     4b9:	89 d0                	mov    %edx,%eax
     4bb:	c1 e0 02             	shl    $0x2,%eax
     4be:	01 d0                	add    %edx,%eax
     4c0:	c1 e0 02             	shl    $0x2,%eax
     4c3:	89 ca                	mov    %ecx,%edx
     4c5:	29 c2                	sub    %eax,%edx
     4c7:	89 d0                	mov    %edx,%eax
     4c9:	89 45 f8             	mov    %eax,-0x8(%ebp)
     4cc:	8b 55 f4             	mov    -0xc(%ebp),%edx
     4cf:	8b 4d f8             	mov    -0x8(%ebp),%ecx
     4d2:	89 d0                	mov    %edx,%eax
     4d4:	c1 e0 02             	shl    $0x2,%eax
     4d7:	01 d0                	add    %edx,%eax
     4d9:	c1 e0 02             	shl    $0x2,%eax
     4dc:	01 c8                	add    %ecx,%eax
     4de:	8b 04 85 40 ff 0e 01 	mov    0x10eff40(,%eax,4),%eax
     4e5:	85 c0                	test   %eax,%eax
     4e7:	0f 85 6b ff ff ff    	jne    0x458
     4ed:	8b 55 f4             	mov    -0xc(%ebp),%edx
     4f0:	8b 4d f8             	mov    -0x8(%ebp),%ecx
     4f3:	89 d0                	mov    %edx,%eax
     4f5:	c1 e0 02             	shl    $0x2,%eax
     4f8:	01 d0                	add    %edx,%eax
     4fa:	c1 e0 02             	shl    $0x2,%eax
     4fd:	01 c8                	add    %ecx,%eax
     4ff:	c7 04 85 40 ff 0e 01 	movl   $0x6,0x10eff40(,%eax,4)
     506:	06 00 00 00 
     50a:	83 c4 14             	add    $0x14,%esp
     50d:	5b                   	pop    %ebx
     50e:	5d                   	pop    %ebp
     50f:	c3                   	ret    
     510:	55                   	push   %ebp
     511:	89 e5                	mov    %esp,%ebp
     513:	81 ec 88 00 00 00    	sub    $0x88,%esp
     519:	c7 05 54 44 00 01 01 	movl   $0x1,0x1004454
     520:	00 00 00 
     523:	a1 50 44 00 01       	mov    0x1004450,%eax
     528:	8b 15 4c 44 00 01    	mov    0x100444c,%edx
     52e:	89 44 24 0c          	mov    %eax,0xc(%esp)
     532:	89 54 24 08          	mov    %edx,0x8(%esp)
     536:	c7 44 24 04 24 42 00 	movl   $0x1004224,0x4(%esp)
     53d:	01 
     53e:	8d 45 9c             	lea    -0x64(%ebp),%eax
     541:	89 04 24             	mov    %eax,(%esp)
     544:	e8 e4 33 00 00       	call   0x392d
     549:	c7 44 24 0c 00 00 00 	movl   $0x0,0xc(%esp)
     550:	00 
     551:	8d 45 9c             	lea    -0x64(%ebp),%eax
     554:	89 44 24 08          	mov    %eax,0x8(%esp)
     558:	c7 44 24 04 00 00 00 	movl   $0x0,0x4(%esp)
     55f:	00 
     560:	c7 04 24 00 00 00 00 	movl   $0x0,(%esp)
     567:	e8 b2 1e 00 00       	call   0x241e
     56c:	c7 44 24 14 0f 00 00 	movl   $0xf,0x14(%esp)
     573:	00 
     574:	c7 44 24 10 2c 01 00 	movl   $0x12c,0x10(%esp)
     57b:	00 
     57c:	c7 44 24 0c 00 00 00 	movl   $0x0,0xc(%esp)
     583:	00 
     584:	c7 44 24 08 00 00 00 	movl   $0x0,0x8(%esp)
     58b:	00 
     58c:	c7 44 24 04 80 54 00 	movl   $0x1005480,0x4(%esp)
     593:	01 
     594:	8b 45 08             	mov    0x8(%ebp),%eax
     597:	89 04 24             	mov    %eax,(%esp)
     59a:	e8 ae fb ff ff       	call   0x14d
     59f:	c9                   	leave  
     5a0:	c3                   	ret    
     5a1:	55                   	push   %ebp
     5a2:	89 e5                	mov    %esp,%ebp
     5a4:	56                   	push   %esi
     5a5:	53                   	push   %ebx
     5a6:	81 ec a0 00 00 00    	sub    $0xa0,%esp
     5ac:	a1 54 44 00 01       	mov    0x1004454,%eax
     5b1:	85 c0                	test   %eax,%eax
     5b3:	74 10                	je     0x5c5
     5b5:	8b 45 08             	mov    0x8(%ebp),%eax
     5b8:	89 04 24             	mov    %eax,(%esp)
     5bb:	e8 50 ff ff ff       	call   0x510
     5c0:	e9 02 01 00 00       	jmp    0x6c7
     5c5:	a1 48 44 00 01       	mov    0x1004448,%eax
     5ca:	83 e0 04             	and    $0x4,%eax
     5cd:	85 c0                	test   %eax,%eax
     5cf:	74 0c                	je     0x5dd
     5d1:	c7 85 7c ff ff ff 4a 	movl   $0x100424a,-0x84(%ebp)
     5d8:	42 00 01 
     5db:	eb 0a                	jmp    0x5e7
     5dd:	c7 85 7c ff ff ff 4c 	movl   $0x100424c,-0x84(%ebp)
     5e4:	42 00 01 
     5e7:	a1 48 44 00 01       	mov    0x1004448,%eax
     5ec:	83 e0 02             	and    $0x2,%eax
     5ef:	85 c0                	test   %eax,%eax
     5f1:	74 09                	je     0x5fc
     5f3:	c7 45 80 4e 42 00 01 	movl   $0x100424e,-0x80(%ebp)
     5fa:	eb 07                	jmp    0x603
     5fc:	c7 45 80 4c 42 00 01 	movl   $0x100424c,-0x80(%ebp)
     603:	a1 48 44 00 01       	mov    0x1004448,%eax
     608:	83 e0 01             	and    $0x1,%eax
     60b:	84 c0                	test   %al,%al
     60d:	74 09                	je     0x618
     60f:	c7 45 84 50 42 00 01 	movl   $0x1004250,-0x7c(%ebp)
     616:	eb 07                	jmp    0x61f
     618:	c7 45 84 4c 42 00 01 	movl   $0x100424c,-0x7c(%ebp)
     61f:	a1 44 44 00 01       	mov    0x1004444,%eax
     624:	8b 15 40 44 00 01    	mov    0x1004440,%edx
     62a:	8b 0d 50 44 00 01    	mov    0x1004450,%ecx
     630:	8b 1d 4c 44 00 01    	mov    0x100444c,%ebx
     636:	8b b5 7c ff ff ff    	mov    -0x84(%ebp),%esi
     63c:	89 74 24 20          	mov    %esi,0x20(%esp)
     640:	8b 75 80             	mov    -0x80(%ebp),%esi
     643:	89 74 24 1c          	mov    %esi,0x1c(%esp)
     647:	8b 75 84             	mov    -0x7c(%ebp),%esi
     64a:	89 74 24 18          	mov    %esi,0x18(%esp)
     64e:	89 44 24 14          	mov    %eax,0x14(%esp)
     652:	89 54 24 10          	mov    %edx,0x10(%esp)
     656:	89 4c 24 0c          	mov    %ecx,0xc(%esp)
     65a:	89 5c 24 08          	mov    %ebx,0x8(%esp)
     65e:	c7 44 24 04 54 42 00 	movl   $0x1004254,0x4(%esp)
     665:	01 
     666:	8d 45 94             	lea    -0x6c(%ebp),%eax
     669:	89 04 24             	mov    %eax,(%esp)
     66c:	e8 bc 32 00 00       	call   0x392d
     671:	c7 44 24 0c 00 00 00 	movl   $0x0,0xc(%esp)
     678:	00 
     679:	8d 45 94             	lea    -0x6c(%ebp),%eax
     67c:	89 44 24 08          	mov    %eax,0x8(%esp)
     680:	c7 44 24 04 00 00 00 	movl   $0x0,0x4(%esp)
     687:	00 
     688:	c7 04 24 00 00 00 00 	movl   $0x0,(%esp)
     68f:	e8 8a 1d 00 00       	call   0x241e
     694:	c7 44 24 14 0f 00 00 	movl   $0xf,0x14(%esp)
     69b:	00 
     69c:	c7 44 24 10 2c 01 00 	movl   $0x12c,0x10(%esp)
     6a3:	00 
     6a4:	c7 44 24 0c 00 00 00 	movl   $0x0,0xc(%esp)
     6ab:	00 
     6ac:	c7 44 24 08 00 00 00 	movl   $0x0,0x8(%esp)
     6b3:	00 
     6b4:	c7 44 24 04 80 54 00 	movl   $0x1005480,0x4(%esp)
     6bb:	01 
     6bc:	8b 45 08             	mov    0x8(%ebp),%eax
     6bf:	89 04 24             	mov    %eax,(%esp)
     6c2:	e8 86 fa ff ff       	call   0x14d
     6c7:	81 c4 a0 00 00 00    	add    $0xa0,%esp
     6cd:	5b                   	pop    %ebx
     6ce:	5e                   	pop    %esi
     6cf:	5d                   	pop    %ebp
     6d0:	c3                   	ret    
     6d1:	55                   	push   %ebp
     6d2:	89 e5                	mov    %esp,%ebp
     6d4:	53                   	push   %ebx
     6d5:	81 ec b4 00 00 00    	sub    $0xb4,%esp
     6db:	a1 54 44 00 01       	mov    0x1004454,%eax
     6e0:	85 c0                	test   %eax,%eax
     6e2:	0f 85 5c 0c 00 00    	jne    0x1344
     6e8:	8b 45 0c             	mov    0xc(%ebp),%eax
     6eb:	89 85 58 ff ff ff    	mov    %eax,-0xa8(%ebp)
     6f1:	83 bd 58 ff ff ff 64 	cmpl   $0x64,-0xa8(%ebp)
     6f8:	74 5d                	je     0x757
     6fa:	83 bd 58 ff ff ff 64 	cmpl   $0x64,-0xa8(%ebp)
     701:	7f 0e                	jg     0x711
     703:	83 bd 58 ff ff ff 61 	cmpl   $0x61,-0xa8(%ebp)
     70a:	74 2b                	je     0x737
     70c:	e9 33 0c 00 00       	jmp    0x1344
     711:	83 bd 58 ff ff ff 73 	cmpl   $0x73,-0xa8(%ebp)
     718:	74 2d                	je     0x747
     71a:	83 bd 58 ff ff ff 77 	cmpl   $0x77,-0xa8(%ebp)
     721:	0f 85 1d 0c 00 00    	jne    0x1344
     727:	c7 45 e8 02 00 00 00 	movl   $0x2,-0x18(%ebp)
     72e:	c7 45 ec 04 00 00 00 	movl   $0x4,-0x14(%ebp)
     735:	eb 2e                	jmp    0x765
     737:	c7 45 e8 01 00 00 00 	movl   $0x1,-0x18(%ebp)
     73e:	c7 45 ec 03 00 00 00 	movl   $0x3,-0x14(%ebp)
     745:	eb 1e                	jmp    0x765
     747:	c7 45 e8 04 00 00 00 	movl   $0x4,-0x18(%ebp)
     74e:	c7 45 ec 02 00 00 00 	movl   $0x2,-0x14(%ebp)
     755:	eb 0e                	jmp    0x765
     757:	c7 45 e8 03 00 00 00 	movl   $0x3,-0x18(%ebp)
     75e:	c7 45 ec 01 00 00 00 	movl   $0x1,-0x14(%ebp)
     765:	8b 15 30 ff 0e 01    	mov    0x10eff30,%edx
     76b:	8b 0d 80 05 0f 01    	mov    0x10f0580,%ecx
     771:	89 d0                	mov    %edx,%eax
     773:	c1 e0 02             	shl    $0x2,%eax
     776:	01 d0                	add    %edx,%eax
     778:	c1 e0 02             	shl    $0x2,%eax
     77b:	01 c8                	add    %ecx,%eax
     77d:	8b 04 85 40 ff 0e 01 	mov    0x10eff40(,%eax,4),%eax
     784:	3b 45 e8             	cmp    -0x18(%ebp),%eax
     787:	0f 84 b7 0b 00 00    	je     0x1344
     78d:	8b 15 30 ff 0e 01    	mov    0x10eff30,%edx
     793:	8b 0d 80 05 0f 01    	mov    0x10f0580,%ecx
     799:	89 d0                	mov    %edx,%eax
     79b:	c1 e0 02             	shl    $0x2,%eax
     79e:	01 d0                	add    %edx,%eax
     7a0:	c1 e0 02             	shl    $0x2,%eax
     7a3:	01 c8                	add    %ecx,%eax
     7a5:	8b 04 85 40 ff 0e 01 	mov    0x10eff40(,%eax,4),%eax
     7ac:	3b 45 ec             	cmp    -0x14(%ebp),%eax
     7af:	0f 84 8f 0b 00 00    	je     0x1344
     7b5:	8b 45 08             	mov    0x8(%ebp),%eax
     7b8:	89 04 24             	mov    %eax,(%esp)
     7bb:	e8 ea 13 00 00       	call   0x1baa
     7c0:	a1 30 ff 0e 01       	mov    0x10eff30,%eax
     7c5:	89 45 f4             	mov    %eax,-0xc(%ebp)
     7c8:	a1 80 05 0f 01       	mov    0x10f0580,%eax
     7cd:	89 45 f8             	mov    %eax,-0x8(%ebp)
     7d0:	c7 05 58 44 00 01 01 	movl   $0x1,0x1004458
     7d7:	00 00 00 
     7da:	8b 15 30 ff 0e 01    	mov    0x10eff30,%edx
     7e0:	8b 0d 80 05 0f 01    	mov    0x10f0580,%ecx
     7e6:	89 d0                	mov    %edx,%eax
     7e8:	c1 e0 02             	shl    $0x2,%eax
     7eb:	01 d0                	add    %edx,%eax
     7ed:	c1 e0 02             	shl    $0x2,%eax
     7f0:	01 c8                	add    %ecx,%eax
     7f2:	8b 04 85 40 ff 0e 01 	mov    0x10eff40(,%eax,4),%eax
     7f9:	83 f8 01             	cmp    $0x1,%eax
     7fc:	74 24                	je     0x822
     7fe:	8b 15 30 ff 0e 01    	mov    0x10eff30,%edx
     804:	8b 0d 80 05 0f 01    	mov    0x10f0580,%ecx
     80a:	89 d0                	mov    %edx,%eax
     80c:	c1 e0 02             	shl    $0x2,%eax
     80f:	01 d0                	add    %edx,%eax
     811:	c1 e0 02             	shl    $0x2,%eax
     814:	01 c8                	add    %ecx,%eax
     816:	8b 04 85 40 ff 0e 01 	mov    0x10eff40(,%eax,4),%eax
     81d:	83 f8 02             	cmp    $0x2,%eax
     820:	75 09                	jne    0x82b
     822:	c7 45 f0 01 00 00 00 	movl   $0x1,-0x10(%ebp)
     829:	eb 07                	jmp    0x832
     82b:	c7 45 f0 ff ff ff ff 	movl   $0xffffffff,-0x10(%ebp)
     832:	8b 55 e8             	mov    -0x18(%ebp),%edx
     835:	89 95 54 ff ff ff    	mov    %edx,-0xac(%ebp)
     83b:	83 bd 54 ff ff ff 02 	cmpl   $0x2,-0xac(%ebp)
     842:	0f 84 45 03 00 00    	je     0xb8d
     848:	83 bd 54 ff ff ff 02 	cmpl   $0x2,-0xac(%ebp)
     84f:	7f 0e                	jg     0x85f
     851:	83 bd 54 ff ff ff 01 	cmpl   $0x1,-0xac(%ebp)
     858:	74 24                	je     0x87e
     85a:	e9 e5 0a 00 00       	jmp    0x1344
     85f:	83 bd 54 ff ff ff 03 	cmpl   $0x3,-0xac(%ebp)
     866:	0f 84 c1 05 00 00    	je     0xe2d
     86c:	83 bd 54 ff ff ff 04 	cmpl   $0x4,-0xac(%ebp)
     873:	0f 84 42 08 00 00    	je     0x10bb
     879:	e9 c6 0a 00 00       	jmp    0x1344
     87e:	8b 45 f4             	mov    -0xc(%ebp),%eax
     881:	8d 48 13             	lea    0x13(%eax),%ecx
     884:	c7 85 50 ff ff ff 67 	movl   $0x66666667,-0xb0(%ebp)
     88b:	66 66 66 
     88e:	8b 85 50 ff ff ff    	mov    -0xb0(%ebp),%eax
     894:	f7 e9                	imul   %ecx
     896:	c1 fa 03             	sar    $0x3,%edx
     899:	89 c8                	mov    %ecx,%eax
     89b:	c1 f8 1f             	sar    $0x1f,%eax
     89e:	89 d3                	mov    %edx,%ebx
     8a0:	29 c3                	sub    %eax,%ebx
     8a2:	89 9d 5c ff ff ff    	mov    %ebx,-0xa4(%ebp)
     8a8:	8b 85 5c ff ff ff    	mov    -0xa4(%ebp),%eax
     8ae:	c1 e0 02             	shl    $0x2,%eax
     8b1:	03 85 5c ff ff ff    	add    -0xa4(%ebp),%eax
     8b7:	c1 e0 02             	shl    $0x2,%eax
     8ba:	89 ca                	mov    %ecx,%edx
     8bc:	29 c2                	sub    %eax,%edx
     8be:	89 95 5c ff ff ff    	mov    %edx,-0xa4(%ebp)
     8c4:	8b 55 f0             	mov    -0x10(%ebp),%edx
     8c7:	8b 45 f8             	mov    -0x8(%ebp),%eax
     8ca:	29 d0                	sub    %edx,%eax
     8cc:	8d 48 14             	lea    0x14(%eax),%ecx
     8cf:	c7 85 50 ff ff ff 67 	movl   $0x66666667,-0xb0(%ebp)
     8d6:	66 66 66 
     8d9:	8b 85 50 ff ff ff    	mov    -0xb0(%ebp),%eax
     8df:	f7 e9                	imul   %ecx
     8e1:	c1 fa 03             	sar    $0x3,%edx
     8e4:	89 c8                	mov    %ecx,%eax
     8e6:	c1 f8 1f             	sar    $0x1f,%eax
     8e9:	89 d3                	mov    %edx,%ebx
     8eb:	29 c3                	sub    %eax,%ebx
     8ed:	89 9d 60 ff ff ff    	mov    %ebx,-0xa0(%ebp)
     8f3:	8b 85 60 ff ff ff    	mov    -0xa0(%ebp),%eax
     8f9:	c1 e0 02             	shl    $0x2,%eax
     8fc:	03 85 60 ff ff ff    	add    -0xa0(%ebp),%eax
     902:	c1 e0 02             	shl    $0x2,%eax
     905:	89 ca                	mov    %ecx,%edx
     907:	29 c2                	sub    %eax,%edx
     909:	89 95 60 ff ff ff    	mov    %edx,-0xa0(%ebp)
     90f:	8b 85 5c ff ff ff    	mov    -0xa4(%ebp),%eax
     915:	c1 e0 02             	shl    $0x2,%eax
     918:	03 85 5c ff ff ff    	add    -0xa4(%ebp),%eax
     91e:	c1 e0 02             	shl    $0x2,%eax
     921:	03 85 60 ff ff ff    	add    -0xa0(%ebp),%eax
     927:	8b 04 85 40 ff 0e 01 	mov    0x10eff40(,%eax,4),%eax
     92e:	83 f8 06             	cmp    $0x6,%eax
     931:	75 17                	jne    0x94a
     933:	a1 50 44 00 01       	mov    0x1004450,%eax
     938:	83 c0 01             	add    $0x1,%eax
     93b:	a3 50 44 00 01       	mov    %eax,0x1004450
     940:	e8 96 fa ff ff       	call   0x3db
     945:	e9 c4 00 00 00       	jmp    0xa0e
     94a:	8b 45 f4             	mov    -0xc(%ebp),%eax
     94d:	8d 48 13             	lea    0x13(%eax),%ecx
     950:	c7 85 50 ff ff ff 67 	movl   $0x66666667,-0xb0(%ebp)
     957:	66 66 66 
     95a:	8b 85 50 ff ff ff    	mov    -0xb0(%ebp),%eax
     960:	f7 e9                	imul   %ecx
     962:	c1 fa 03             	sar    $0x3,%edx
     965:	89 c8                	mov    %ecx,%eax
     967:	c1 f8 1f             	sar    $0x1f,%eax
     96a:	89 d3                	mov    %edx,%ebx
     96c:	29 c3                	sub    %eax,%ebx
     96e:	89 9d 64 ff ff ff    	mov    %ebx,-0x9c(%ebp)
     974:	8b 85 64 ff ff ff    	mov    -0x9c(%ebp),%eax
     97a:	c1 e0 02             	shl    $0x2,%eax
     97d:	03 85 64 ff ff ff    	add    -0x9c(%ebp),%eax
     983:	c1 e0 02             	shl    $0x2,%eax
     986:	89 ca                	mov    %ecx,%edx
     988:	29 c2                	sub    %eax,%edx
     98a:	89 95 64 ff ff ff    	mov    %edx,-0x9c(%ebp)
     990:	8b 55 f0             	mov    -0x10(%ebp),%edx
     993:	8b 45 f8             	mov    -0x8(%ebp),%eax
     996:	29 d0                	sub    %edx,%eax
     998:	8d 48 14             	lea    0x14(%eax),%ecx
     99b:	c7 85 50 ff ff ff 67 	movl   $0x66666667,-0xb0(%ebp)
     9a2:	66 66 66 
     9a5:	8b 85 50 ff ff ff    	mov    -0xb0(%ebp),%eax
     9ab:	f7 e9                	imul   %ecx
     9ad:	c1 fa 03             	sar    $0x3,%edx
     9b0:	89 c8                	mov    %ecx,%eax
     9b2:	c1 f8 1f             	sar    $0x1f,%eax
     9b5:	89 d3                	mov    %edx,%ebx
     9b7:	29 c3                	sub    %eax,%ebx
     9b9:	89 9d 68 ff ff ff    	mov    %ebx,-0x98(%ebp)
     9bf:	8b 85 68 ff ff ff    	mov    -0x98(%ebp),%eax
     9c5:	c1 e0 02             	shl    $0x2,%eax
     9c8:	03 85 68 ff ff ff    	add    -0x98(%ebp),%eax
     9ce:	c1 e0 02             	shl    $0x2,%eax
     9d1:	89 ca                	mov    %ecx,%edx
     9d3:	29 c2                	sub    %eax,%edx
     9d5:	89 95 68 ff ff ff    	mov    %edx,-0x98(%ebp)
     9db:	8b 85 64 ff ff ff    	mov    -0x9c(%ebp),%eax
     9e1:	c1 e0 02             	shl    $0x2,%eax
     9e4:	03 85 64 ff ff ff    	add    -0x9c(%ebp),%eax
     9ea:	c1 e0 02             	shl    $0x2,%eax
     9ed:	03 85 68 ff ff ff    	add    -0x98(%ebp),%eax
     9f3:	8b 04 85 40 ff 0e 01 	mov    0x10eff40(,%eax,4),%eax
     9fa:	85 c0                	test   %eax,%eax
     9fc:	74 10                	je     0xa0e
     9fe:	8b 45 08             	mov    0x8(%ebp),%eax
     a01:	89 04 24             	mov    %eax,(%esp)
     a04:	e8 07 fb ff ff       	call   0x510
     a09:	e9 36 09 00 00       	jmp    0x1344
     a0e:	8b 55 f4             	mov    -0xc(%ebp),%edx
     a11:	8b 4d f8             	mov    -0x8(%ebp),%ecx
     a14:	89 d0                	mov    %edx,%eax
     a16:	c1 e0 02             	shl    $0x2,%eax
     a19:	01 d0                	add    %edx,%eax
     a1b:	c1 e0 02             	shl    $0x2,%eax
     a1e:	01 c8                	add    %ecx,%eax
     a20:	c7 04 85 40 ff 0e 01 	movl   $0x0,0x10eff40(,%eax,4)
     a27:	00 00 00 00 
     a2b:	8b 45 f4             	mov    -0xc(%ebp),%eax
     a2e:	8d 48 13             	lea    0x13(%eax),%ecx
     a31:	c7 85 50 ff ff ff 67 	movl   $0x66666667,-0xb0(%ebp)
     a38:	66 66 66 
     a3b:	8b 85 50 ff ff ff    	mov    -0xb0(%ebp),%eax
     a41:	f7 e9                	imul   %ecx
     a43:	c1 fa 03             	sar    $0x3,%edx
     a46:	89 c8                	mov    %ecx,%eax
     a48:	c1 f8 1f             	sar    $0x1f,%eax
     a4b:	89 d3                	mov    %edx,%ebx
     a4d:	29 c3                	sub    %eax,%ebx
     a4f:	89 9d 6c ff ff ff    	mov    %ebx,-0x94(%ebp)
     a55:	8b 85 6c ff ff ff    	mov    -0x94(%ebp),%eax
     a5b:	c1 e0 02             	shl    $0x2,%eax
     a5e:	03 85 6c ff ff ff    	add    -0x94(%ebp),%eax
     a64:	c1 e0 02             	shl    $0x2,%eax
     a67:	89 ca                	mov    %ecx,%edx
     a69:	29 c2                	sub    %eax,%edx
     a6b:	89 95 6c ff ff ff    	mov    %edx,-0x94(%ebp)
     a71:	8b 55 f0             	mov    -0x10(%ebp),%edx
     a74:	8b 45 f8             	mov    -0x8(%ebp),%eax
     a77:	29 d0                	sub    %edx,%eax
     a79:	8d 48 14             	lea    0x14(%eax),%ecx
     a7c:	c7 85 50 ff ff ff 67 	movl   $0x66666667,-0xb0(%ebp)
     a83:	66 66 66 
     a86:	8b 85 50 ff ff ff    	mov    -0xb0(%ebp),%eax
     a8c:	f7 e9                	imul   %ecx
     a8e:	c1 fa 03             	sar    $0x3,%edx
     a91:	89 c8                	mov    %ecx,%eax
     a93:	c1 f8 1f             	sar    $0x1f,%eax
     a96:	89 d3                	mov    %edx,%ebx
     a98:	29 c3                	sub    %eax,%ebx
     a9a:	89 9d 70 ff ff ff    	mov    %ebx,-0x90(%ebp)
     aa0:	8b 85 70 ff ff ff    	mov    -0x90(%ebp),%eax
     aa6:	c1 e0 02             	shl    $0x2,%eax
     aa9:	03 85 70 ff ff ff    	add    -0x90(%ebp),%eax
     aaf:	c1 e0 02             	shl    $0x2,%eax
     ab2:	89 ca                	mov    %ecx,%edx
     ab4:	29 c2                	sub    %eax,%edx
     ab6:	89 95 70 ff ff ff    	mov    %edx,-0x90(%ebp)
     abc:	8b 85 6c ff ff ff    	mov    -0x94(%ebp),%eax
     ac2:	c1 e0 02             	shl    $0x2,%eax
     ac5:	03 85 6c ff ff ff    	add    -0x94(%ebp),%eax
     acb:	c1 e0 02             	shl    $0x2,%eax
     ace:	03 85 70 ff ff ff    	add    -0x90(%ebp),%eax
     ad4:	c7 04 85 40 ff 0e 01 	movl   $0x3,0x10eff40(,%eax,4)
     adb:	03 00 00 00 
     adf:	8b 45 f4             	mov    -0xc(%ebp),%eax
     ae2:	8d 48 13             	lea    0x13(%eax),%ecx
     ae5:	c7 85 50 ff ff ff 67 	movl   $0x66666667,-0xb0(%ebp)
     aec:	66 66 66 
     aef:	8b 85 50 ff ff ff    	mov    -0xb0(%ebp),%eax
     af5:	f7 e9                	imul   %ecx
     af7:	c1 fa 03             	sar    $0x3,%edx
     afa:	89 c8                	mov    %ecx,%eax
     afc:	c1 f8 1f             	sar    $0x1f,%eax
     aff:	89 d3                	mov    %edx,%ebx
     b01:	29 c3                	sub    %eax,%ebx
     b03:	89 9d 74 ff ff ff    	mov    %ebx,-0x8c(%ebp)
     b09:	8b 85 74 ff ff ff    	mov    -0x8c(%ebp),%eax
     b0f:	c1 e0 02             	shl    $0x2,%eax
     b12:	03 85 74 ff ff ff    	add    -0x8c(%ebp),%eax
     b18:	c1 e0 02             	shl    $0x2,%eax
     b1b:	89 ca                	mov    %ecx,%edx
     b1d:	29 c2                	sub    %eax,%edx
     b1f:	89 95 74 ff ff ff    	mov    %edx,-0x8c(%ebp)
     b25:	8b 9d 74 ff ff ff    	mov    -0x8c(%ebp),%ebx
     b2b:	89 1d 30 ff 0e 01    	mov    %ebx,0x10eff30
     b31:	8b 55 f0             	mov    -0x10(%ebp),%edx
     b34:	8b 45 f8             	mov    -0x8(%ebp),%eax
     b37:	29 d0                	sub    %edx,%eax
     b39:	8d 48 14             	lea    0x14(%eax),%ecx
     b3c:	c7 85 50 ff ff ff 67 	movl   $0x66666667,-0xb0(%ebp)
     b43:	66 66 66 
     b46:	8b 85 50 ff ff ff    	mov    -0xb0(%ebp),%eax
     b4c:	f7 e9                	imul   %ecx
     b4e:	c1 fa 03             	sar    $0x3,%edx
     b51:	89 c8                	mov    %ecx,%eax
     b53:	c1 f8 1f             	sar    $0x1f,%eax
     b56:	89 d3                	mov    %edx,%ebx
     b58:	29 c3                	sub    %eax,%ebx
     b5a:	89 9d 78 ff ff ff    	mov    %ebx,-0x88(%ebp)
     b60:	8b 85 78 ff ff ff    	mov    -0x88(%ebp),%eax
     b66:	c1 e0 02             	shl    $0x2,%eax
     b69:	03 85 78 ff ff ff    	add    -0x88(%ebp),%eax
     b6f:	c1 e0 02             	shl    $0x2,%eax
     b72:	89 ca                	mov    %ecx,%edx
     b74:	29 c2                	sub    %eax,%edx
     b76:	89 95 78 ff ff ff    	mov    %edx,-0x88(%ebp)
     b7c:	8b 9d 78 ff ff ff    	mov    -0x88(%ebp),%ebx
     b82:	89 1d 80 05 0f 01    	mov    %ebx,0x10f0580
     b88:	e9 b7 07 00 00       	jmp    0x1344
     b8d:	8b 55 f0             	mov    -0x10(%ebp),%edx
     b90:	8b 45 f4             	mov    -0xc(%ebp),%eax
     b93:	29 d0                	sub    %edx,%eax
     b95:	8d 48 14             	lea    0x14(%eax),%ecx
     b98:	c7 85 50 ff ff ff 67 	movl   $0x66666667,-0xb0(%ebp)
     b9f:	66 66 66 
     ba2:	8b 85 50 ff ff ff    	mov    -0xb0(%ebp),%eax
     ba8:	f7 e9                	imul   %ecx
     baa:	c1 fa 03             	sar    $0x3,%edx
     bad:	89 c8                	mov    %ecx,%eax
     baf:	c1 f8 1f             	sar    $0x1f,%eax
     bb2:	89 d3                	mov    %edx,%ebx
     bb4:	29 c3                	sub    %eax,%ebx
     bb6:	89 9d 7c ff ff ff    	mov    %ebx,-0x84(%ebp)
     bbc:	8b 85 7c ff ff ff    	mov    -0x84(%ebp),%eax
     bc2:	c1 e0 02             	shl    $0x2,%eax
     bc5:	03 85 7c ff ff ff    	add    -0x84(%ebp),%eax
     bcb:	c1 e0 02             	shl    $0x2,%eax
     bce:	89 ca                	mov    %ecx,%edx
     bd0:	29 c2                	sub    %eax,%edx
     bd2:	89 95 7c ff ff ff    	mov    %edx,-0x84(%ebp)
     bd8:	8b 45 f8             	mov    -0x8(%ebp),%eax
     bdb:	8d 48 13             	lea    0x13(%eax),%ecx
     bde:	c7 85 50 ff ff ff 67 	movl   $0x66666667,-0xb0(%ebp)
     be5:	66 66 66 
     be8:	8b 85 50 ff ff ff    	mov    -0xb0(%ebp),%eax
     bee:	f7 e9                	imul   %ecx
     bf0:	c1 fa 03             	sar    $0x3,%edx
     bf3:	89 c8                	mov    %ecx,%eax
     bf5:	c1 f8 1f             	sar    $0x1f,%eax
     bf8:	89 d3                	mov    %edx,%ebx
     bfa:	29 c3                	sub    %eax,%ebx
     bfc:	89 5d 80             	mov    %ebx,-0x80(%ebp)
     bff:	8b 45 80             	mov    -0x80(%ebp),%eax
     c02:	c1 e0 02             	shl    $0x2,%eax
     c05:	03 45 80             	add    -0x80(%ebp),%eax
     c08:	c1 e0 02             	shl    $0x2,%eax
     c0b:	89 ca                	mov    %ecx,%edx
     c0d:	29 c2                	sub    %eax,%edx
     c0f:	89 55 80             	mov    %edx,-0x80(%ebp)
     c12:	8b 85 7c ff ff ff    	mov    -0x84(%ebp),%eax
     c18:	c1 e0 02             	shl    $0x2,%eax
     c1b:	03 85 7c ff ff ff    	add    -0x84(%ebp),%eax
     c21:	c1 e0 02             	shl    $0x2,%eax
     c24:	03 45 80             	add    -0x80(%ebp),%eax
     c27:	8b 04 85 40 ff 0e 01 	mov    0x10eff40(,%eax,4),%eax
     c2e:	83 f8 06             	cmp    $0x6,%eax
     c31:	75 17                	jne    0xc4a
     c33:	a1 50 44 00 01       	mov    0x1004450,%eax
     c38:	83 c0 01             	add    $0x1,%eax
     c3b:	a3 50 44 00 01       	mov    %eax,0x1004450
     c40:	e8 96 f7 ff ff       	call   0x3db
     c45:	e9 a3 00 00 00       	jmp    0xced
     c4a:	8b 55 f0             	mov    -0x10(%ebp),%edx
     c4d:	8b 45 f4             	mov    -0xc(%ebp),%eax
     c50:	29 d0                	sub    %edx,%eax
     c52:	8d 48 14             	lea    0x14(%eax),%ecx
     c55:	c7 85 50 ff ff ff 67 	movl   $0x66666667,-0xb0(%ebp)
     c5c:	66 66 66 
     c5f:	8b 85 50 ff ff ff    	mov    -0xb0(%ebp),%eax
     c65:	f7 e9                	imul   %ecx
     c67:	c1 fa 03             	sar    $0x3,%edx
     c6a:	89 c8                	mov    %ecx,%eax
     c6c:	c1 f8 1f             	sar    $0x1f,%eax
     c6f:	89 d3                	mov    %edx,%ebx
     c71:	29 c3                	sub    %eax,%ebx
     c73:	89 5d 84             	mov    %ebx,-0x7c(%ebp)
     c76:	8b 45 84             	mov    -0x7c(%ebp),%eax
     c79:	c1 e0 02             	shl    $0x2,%eax
     c7c:	03 45 84             	add    -0x7c(%ebp),%eax
     c7f:	c1 e0 02             	shl    $0x2,%eax
     c82:	89 ca                	mov    %ecx,%edx
     c84:	29 c2                	sub    %eax,%edx
     c86:	89 55 84             	mov    %edx,-0x7c(%ebp)
     c89:	8b 45 f8             	mov    -0x8(%ebp),%eax
     c8c:	8d 48 13             	lea    0x13(%eax),%ecx
     c8f:	c7 85 50 ff ff ff 67 	movl   $0x66666667,-0xb0(%ebp)
     c96:	66 66 66 
     c99:	8b 85 50 ff ff ff    	mov    -0xb0(%ebp),%eax
     c9f:	f7 e9                	imul   %ecx
     ca1:	c1 fa 03             	sar    $0x3,%edx
     ca4:	89 c8                	mov    %ecx,%eax
     ca6:	c1 f8 1f             	sar    $0x1f,%eax
     ca9:	89 d3                	mov    %edx,%ebx
     cab:	29 c3                	sub    %eax,%ebx
     cad:	89 5d 88             	mov    %ebx,-0x78(%ebp)
     cb0:	8b 45 88             	mov    -0x78(%ebp),%eax
     cb3:	c1 e0 02             	shl    $0x2,%eax
     cb6:	03 45 88             	add    -0x78(%ebp),%eax
     cb9:	c1 e0 02             	shl    $0x2,%eax
     cbc:	89 ca                	mov    %ecx,%edx
     cbe:	29 c2                	sub    %eax,%edx
     cc0:	89 55 88             	mov    %edx,-0x78(%ebp)
     cc3:	8b 45 84             	mov    -0x7c(%ebp),%eax
     cc6:	c1 e0 02             	shl    $0x2,%eax
     cc9:	03 45 84             	add    -0x7c(%ebp),%eax
     ccc:	c1 e0 02             	shl    $0x2,%eax
     ccf:	03 45 88             	add    -0x78(%ebp),%eax
     cd2:	8b 04 85 40 ff 0e 01 	mov    0x10eff40(,%eax,4),%eax
     cd9:	85 c0                	test   %eax,%eax
     cdb:	74 10                	je     0xced
     cdd:	8b 45 08             	mov    0x8(%ebp),%eax
     ce0:	89 04 24             	mov    %eax,(%esp)
     ce3:	e8 28 f8 ff ff       	call   0x510
     ce8:	e9 57 06 00 00       	jmp    0x1344
     ced:	8b 55 f4             	mov    -0xc(%ebp),%edx
     cf0:	8b 4d f8             	mov    -0x8(%ebp),%ecx
     cf3:	89 d0                	mov    %edx,%eax
     cf5:	c1 e0 02             	shl    $0x2,%eax
     cf8:	01 d0                	add    %edx,%eax
     cfa:	c1 e0 02             	shl    $0x2,%eax
     cfd:	01 c8                	add    %ecx,%eax
     cff:	c7 04 85 40 ff 0e 01 	movl   $0x0,0x10eff40(,%eax,4)
     d06:	00 00 00 00 
     d0a:	8b 55 f0             	mov    -0x10(%ebp),%edx
     d0d:	8b 45 f4             	mov    -0xc(%ebp),%eax
     d10:	29 d0                	sub    %edx,%eax
     d12:	8d 48 14             	lea    0x14(%eax),%ecx
     d15:	c7 85 50 ff ff ff 67 	movl   $0x66666667,-0xb0(%ebp)
     d1c:	66 66 66 
     d1f:	8b 85 50 ff ff ff    	mov    -0xb0(%ebp),%eax
     d25:	f7 e9                	imul   %ecx
     d27:	c1 fa 03             	sar    $0x3,%edx
     d2a:	89 c8                	mov    %ecx,%eax
     d2c:	c1 f8 1f             	sar    $0x1f,%eax
     d2f:	89 d3                	mov    %edx,%ebx
     d31:	29 c3                	sub    %eax,%ebx
     d33:	89 5d 8c             	mov    %ebx,-0x74(%ebp)
     d36:	8b 45 8c             	mov    -0x74(%ebp),%eax
     d39:	c1 e0 02             	shl    $0x2,%eax
     d3c:	03 45 8c             	add    -0x74(%ebp),%eax
     d3f:	c1 e0 02             	shl    $0x2,%eax
     d42:	89 ca                	mov    %ecx,%edx
     d44:	29 c2                	sub    %eax,%edx
     d46:	89 55 8c             	mov    %edx,-0x74(%ebp)
     d49:	8b 45 f8             	mov    -0x8(%ebp),%eax
     d4c:	8d 48 13             	lea    0x13(%eax),%ecx
     d4f:	c7 85 50 ff ff ff 67 	movl   $0x66666667,-0xb0(%ebp)
     d56:	66 66 66 
     d59:	8b 85 50 ff ff ff    	mov    -0xb0(%ebp),%eax
     d5f:	f7 e9                	imul   %ecx
     d61:	c1 fa 03             	sar    $0x3,%edx
     d64:	89 c8                	mov    %ecx,%eax
     d66:	c1 f8 1f             	sar    $0x1f,%eax
     d69:	89 d3                	mov    %edx,%ebx
     d6b:	29 c3                	sub    %eax,%ebx
     d6d:	89 5d 90             	mov    %ebx,-0x70(%ebp)
     d70:	8b 45 90             	mov    -0x70(%ebp),%eax
     d73:	c1 e0 02             	shl    $0x2,%eax
     d76:	03 45 90             	add    -0x70(%ebp),%eax
     d79:	c1 e0 02             	shl    $0x2,%eax
     d7c:	89 ca                	mov    %ecx,%edx
     d7e:	29 c2                	sub    %eax,%edx
     d80:	89 55 90             	mov    %edx,-0x70(%ebp)
     d83:	8b 45 8c             	mov    -0x74(%ebp),%eax
     d86:	c1 e0 02             	shl    $0x2,%eax
     d89:	03 45 8c             	add    -0x74(%ebp),%eax
     d8c:	c1 e0 02             	shl    $0x2,%eax
     d8f:	03 45 90             	add    -0x70(%ebp),%eax
     d92:	c7 04 85 40 ff 0e 01 	movl   $0x4,0x10eff40(,%eax,4)
     d99:	04 00 00 00 
     d9d:	8b 55 f0             	mov    -0x10(%ebp),%edx
     da0:	8b 45 f4             	mov    -0xc(%ebp),%eax
     da3:	29 d0                	sub    %edx,%eax
     da5:	8d 48 14             	lea    0x14(%eax),%ecx
     da8:	c7 85 50 ff ff ff 67 	movl   $0x66666667,-0xb0(%ebp)
     daf:	66 66 66 
     db2:	8b 85 50 ff ff ff    	mov    -0xb0(%ebp),%eax
     db8:	f7 e9                	imul   %ecx
     dba:	c1 fa 03             	sar    $0x3,%edx
     dbd:	89 c8                	mov    %ecx,%eax
     dbf:	c1 f8 1f             	sar    $0x1f,%eax
     dc2:	89 d3                	mov    %edx,%ebx
     dc4:	29 c3                	sub    %eax,%ebx
     dc6:	89 5d 94             	mov    %ebx,-0x6c(%ebp)
     dc9:	8b 45 94             	mov    -0x6c(%ebp),%eax
     dcc:	c1 e0 02             	shl    $0x2,%eax
     dcf:	03 45 94             	add    -0x6c(%ebp),%eax
     dd2:	c1 e0 02             	shl    $0x2,%eax
     dd5:	89 ca                	mov    %ecx,%edx
     dd7:	29 c2                	sub    %eax,%edx
     dd9:	89 55 94             	mov    %edx,-0x6c(%ebp)
     ddc:	8b 5d 94             	mov    -0x6c(%ebp),%ebx
     ddf:	89 1d 30 ff 0e 01    	mov    %ebx,0x10eff30
     de5:	8b 45 f8             	mov    -0x8(%ebp),%eax
     de8:	8d 48 13             	lea    0x13(%eax),%ecx
     deb:	c7 85 50 ff ff ff 67 	movl   $0x66666667,-0xb0(%ebp)
     df2:	66 66 66 
     df5:	8b 85 50 ff ff ff    	mov    -0xb0(%ebp),%eax
     dfb:	f7 e9                	imul   %ecx
     dfd:	c1 fa 03             	sar    $0x3,%edx
     e00:	89 c8                	mov    %ecx,%eax
     e02:	c1 f8 1f             	sar    $0x1f,%eax
     e05:	89 d3                	mov    %edx,%ebx
     e07:	29 c3                	sub    %eax,%ebx
     e09:	89 5d 98             	mov    %ebx,-0x68(%ebp)
     e0c:	8b 45 98             	mov    -0x68(%ebp),%eax
     e0f:	c1 e0 02             	shl    $0x2,%eax
     e12:	03 45 98             	add    -0x68(%ebp),%eax
     e15:	c1 e0 02             	shl    $0x2,%eax
     e18:	89 ca                	mov    %ecx,%edx
     e1a:	29 c2                	sub    %eax,%edx
     e1c:	89 55 98             	mov    %edx,-0x68(%ebp)
     e1f:	8b 5d 98             	mov    -0x68(%ebp),%ebx
     e22:	89 1d 80 05 0f 01    	mov    %ebx,0x10f0580
     e28:	e9 17 05 00 00       	jmp    0x1344
     e2d:	8b 45 f4             	mov    -0xc(%ebp),%eax
     e30:	8d 48 15             	lea    0x15(%eax),%ecx
     e33:	c7 85 50 ff ff ff 67 	movl   $0x66666667,-0xb0(%ebp)
     e3a:	66 66 66 
     e3d:	8b 85 50 ff ff ff    	mov    -0xb0(%ebp),%eax
     e43:	f7 e9                	imul   %ecx
     e45:	c1 fa 03             	sar    $0x3,%edx
     e48:	89 c8                	mov    %ecx,%eax
     e4a:	c1 f8 1f             	sar    $0x1f,%eax
     e4d:	89 d3                	mov    %edx,%ebx
     e4f:	29 c3                	sub    %eax,%ebx
     e51:	89 5d 9c             	mov    %ebx,-0x64(%ebp)
     e54:	8b 45 9c             	mov    -0x64(%ebp),%eax
     e57:	c1 e0 02             	shl    $0x2,%eax
     e5a:	03 45 9c             	add    -0x64(%ebp),%eax
     e5d:	c1 e0 02             	shl    $0x2,%eax
     e60:	89 ca                	mov    %ecx,%edx
     e62:	29 c2                	sub    %eax,%edx
     e64:	89 55 9c             	mov    %edx,-0x64(%ebp)
     e67:	8b 55 f0             	mov    -0x10(%ebp),%edx
     e6a:	8b 45 f8             	mov    -0x8(%ebp),%eax
     e6d:	29 d0                	sub    %edx,%eax
     e6f:	8d 48 14             	lea    0x14(%eax),%ecx
     e72:	c7 85 50 ff ff ff 67 	movl   $0x66666667,-0xb0(%ebp)
     e79:	66 66 66 
     e7c:	8b 85 50 ff ff ff    	mov    -0xb0(%ebp),%eax
     e82:	f7 e9                	imul   %ecx
     e84:	c1 fa 03             	sar    $0x3,%edx
     e87:	89 c8                	mov    %ecx,%eax
     e89:	c1 f8 1f             	sar    $0x1f,%eax
     e8c:	89 d3                	mov    %edx,%ebx
     e8e:	29 c3                	sub    %eax,%ebx
     e90:	89 5d a0             	mov    %ebx,-0x60(%ebp)
     e93:	8b 45 a0             	mov    -0x60(%ebp),%eax
     e96:	c1 e0 02             	shl    $0x2,%eax
     e99:	03 45 a0             	add    -0x60(%ebp),%eax
     e9c:	c1 e0 02             	shl    $0x2,%eax
     e9f:	89 ca                	mov    %ecx,%edx
     ea1:	29 c2                	sub    %eax,%edx
     ea3:	89 55 a0             	mov    %edx,-0x60(%ebp)
     ea6:	8b 45 9c             	mov    -0x64(%ebp),%eax
     ea9:	c1 e0 02             	shl    $0x2,%eax
     eac:	03 45 9c             	add    -0x64(%ebp),%eax
     eaf:	c1 e0 02             	shl    $0x2,%eax
     eb2:	03 45 a0             	add    -0x60(%ebp),%eax
     eb5:	8b 04 85 40 ff 0e 01 	mov    0x10eff40(,%eax,4),%eax
     ebc:	83 f8 06             	cmp    $0x6,%eax
     ebf:	75 17                	jne    0xed8
     ec1:	a1 50 44 00 01       	mov    0x1004450,%eax
     ec6:	83 c0 01             	add    $0x1,%eax
     ec9:	a3 50 44 00 01       	mov    %eax,0x1004450
     ece:	e8 08 f5 ff ff       	call   0x3db
     ed3:	e9 a3 00 00 00       	jmp    0xf7b
     ed8:	8b 45 f4             	mov    -0xc(%ebp),%eax
     edb:	8d 48 15             	lea    0x15(%eax),%ecx
     ede:	c7 85 50 ff ff ff 67 	movl   $0x66666667,-0xb0(%ebp)
     ee5:	66 66 66 
     ee8:	8b 85 50 ff ff ff    	mov    -0xb0(%ebp),%eax
     eee:	f7 e9                	imul   %ecx
     ef0:	c1 fa 03             	sar    $0x3,%edx
     ef3:	89 c8                	mov    %ecx,%eax
     ef5:	c1 f8 1f             	sar    $0x1f,%eax
     ef8:	89 d3                	mov    %edx,%ebx
     efa:	29 c3                	sub    %eax,%ebx
     efc:	89 5d a4             	mov    %ebx,-0x5c(%ebp)
     eff:	8b 45 a4             	mov    -0x5c(%ebp),%eax
     f02:	c1 e0 02             	shl    $0x2,%eax
     f05:	03 45 a4             	add    -0x5c(%ebp),%eax
     f08:	c1 e0 02             	shl    $0x2,%eax
     f0b:	89 ca                	mov    %ecx,%edx
     f0d:	29 c2                	sub    %eax,%edx
     f0f:	89 55 a4             	mov    %edx,-0x5c(%ebp)
     f12:	8b 55 f0             	mov    -0x10(%ebp),%edx
     f15:	8b 45 f8             	mov    -0x8(%ebp),%eax
     f18:	29 d0                	sub    %edx,%eax
     f1a:	8d 48 14             	lea    0x14(%eax),%ecx
     f1d:	c7 85 50 ff ff ff 67 	movl   $0x66666667,-0xb0(%ebp)
     f24:	66 66 66 
     f27:	8b 85 50 ff ff ff    	mov    -0xb0(%ebp),%eax
     f2d:	f7 e9                	imul   %ecx
     f2f:	c1 fa 03             	sar    $0x3,%edx
     f32:	89 c8                	mov    %ecx,%eax
     f34:	c1 f8 1f             	sar    $0x1f,%eax
     f37:	89 d3                	mov    %edx,%ebx
     f39:	29 c3                	sub    %eax,%ebx
     f3b:	89 5d a8             	mov    %ebx,-0x58(%ebp)
     f3e:	8b 45 a8             	mov    -0x58(%ebp),%eax
     f41:	c1 e0 02             	shl    $0x2,%eax
     f44:	03 45 a8             	add    -0x58(%ebp),%eax
     f47:	c1 e0 02             	shl    $0x2,%eax
     f4a:	89 ca                	mov    %ecx,%edx
     f4c:	29 c2                	sub    %eax,%edx
     f4e:	89 55 a8             	mov    %edx,-0x58(%ebp)
     f51:	8b 45 a4             	mov    -0x5c(%ebp),%eax
     f54:	c1 e0 02             	shl    $0x2,%eax
     f57:	03 45 a4             	add    -0x5c(%ebp),%eax
     f5a:	c1 e0 02             	shl    $0x2,%eax
     f5d:	03 45 a8             	add    -0x58(%ebp),%eax
     f60:	8b 04 85 40 ff 0e 01 	mov    0x10eff40(,%eax,4),%eax
     f67:	85 c0                	test   %eax,%eax
     f69:	74 10                	je     0xf7b
     f6b:	8b 45 08             	mov    0x8(%ebp),%eax
     f6e:	89 04 24             	mov    %eax,(%esp)
     f71:	e8 9a f5 ff ff       	call   0x510
     f76:	e9 c9 03 00 00       	jmp    0x1344
     f7b:	8b 55 f4             	mov    -0xc(%ebp),%edx
     f7e:	8b 4d f8             	mov    -0x8(%ebp),%ecx
     f81:	89 d0                	mov    %edx,%eax
     f83:	c1 e0 02             	shl    $0x2,%eax
     f86:	01 d0                	add    %edx,%eax
     f88:	c1 e0 02             	shl    $0x2,%eax
     f8b:	01 c8                	add    %ecx,%eax
     f8d:	c7 04 85 40 ff 0e 01 	movl   $0x0,0x10eff40(,%eax,4)
     f94:	00 00 00 00 
     f98:	8b 45 f4             	mov    -0xc(%ebp),%eax
     f9b:	8d 48 15             	lea    0x15(%eax),%ecx
     f9e:	c7 85 50 ff ff ff 67 	movl   $0x66666667,-0xb0(%ebp)
     fa5:	66 66 66 
     fa8:	8b 85 50 ff ff ff    	mov    -0xb0(%ebp),%eax
     fae:	f7 e9                	imul   %ecx
     fb0:	c1 fa 03             	sar    $0x3,%edx
     fb3:	89 c8                	mov    %ecx,%eax
     fb5:	c1 f8 1f             	sar    $0x1f,%eax
     fb8:	89 d3                	mov    %edx,%ebx
     fba:	29 c3                	sub    %eax,%ebx
     fbc:	89 5d ac             	mov    %ebx,-0x54(%ebp)
     fbf:	8b 45 ac             	mov    -0x54(%ebp),%eax
     fc2:	c1 e0 02             	shl    $0x2,%eax
     fc5:	03 45 ac             	add    -0x54(%ebp),%eax
     fc8:	c1 e0 02             	shl    $0x2,%eax
     fcb:	89 ca                	mov    %ecx,%edx
     fcd:	29 c2                	sub    %eax,%edx
     fcf:	89 55 ac             	mov    %edx,-0x54(%ebp)
     fd2:	8b 55 f0             	mov    -0x10(%ebp),%edx
     fd5:	8b 45 f8             	mov    -0x8(%ebp),%eax
     fd8:	29 d0                	sub    %edx,%eax
     fda:	8d 48 14             	lea    0x14(%eax),%ecx
     fdd:	c7 85 50 ff ff ff 67 	movl   $0x66666667,-0xb0(%ebp)
     fe4:	66 66 66 
     fe7:	8b 85 50 ff ff ff    	mov    -0xb0(%ebp),%eax
     fed:	f7 e9                	imul   %ecx
     fef:	c1 fa 03             	sar    $0x3,%edx
     ff2:	89 c8                	mov    %ecx,%eax
     ff4:	c1 f8 1f             	sar    $0x1f,%eax
     ff7:	89 d3                	mov    %edx,%ebx
     ff9:	29 c3                	sub    %eax,%ebx
     ffb:	89 5d b0             	mov    %ebx,-0x50(%ebp)
     ffe:	8b 45 b0             	mov    -0x50(%ebp),%eax
    1001:	c1 e0 02             	shl    $0x2,%eax
    1004:	03 45 b0             	add    -0x50(%ebp),%eax
    1007:	c1 e0 02             	shl    $0x2,%eax
    100a:	89 ca                	mov    %ecx,%edx
    100c:	29 c2                	sub    %eax,%edx
    100e:	89 55 b0             	mov    %edx,-0x50(%ebp)
    1011:	8b 45 ac             	mov    -0x54(%ebp),%eax
    1014:	c1 e0 02             	shl    $0x2,%eax
    1017:	03 45 ac             	add    -0x54(%ebp),%eax
    101a:	c1 e0 02             	shl    $0x2,%eax
    101d:	03 45 b0             	add    -0x50(%ebp),%eax
    1020:	c7 04 85 40 ff 0e 01 	movl   $0x1,0x10eff40(,%eax,4)
    1027:	01 00 00 00 
    102b:	8b 45 f4             	mov    -0xc(%ebp),%eax
    102e:	8d 48 15             	lea    0x15(%eax),%ecx
    1031:	c7 85 50 ff ff ff 67 	movl   $0x66666667,-0xb0(%ebp)
    1038:	66 66 66 
    103b:	8b 85 50 ff ff ff    	mov    -0xb0(%ebp),%eax
    1041:	f7 e9                	imul   %ecx
    1043:	c1 fa 03             	sar    $0x3,%edx
    1046:	89 c8                	mov    %ecx,%eax
    1048:	c1 f8 1f             	sar    $0x1f,%eax
    104b:	89 d3                	mov    %edx,%ebx
    104d:	29 c3                	sub    %eax,%ebx
    104f:	89 5d b4             	mov    %ebx,-0x4c(%ebp)
    1052:	8b 45 b4             	mov    -0x4c(%ebp),%eax
    1055:	c1 e0 02             	shl    $0x2,%eax
    1058:	03 45 b4             	add    -0x4c(%ebp),%eax
    105b:	c1 e0 02             	shl    $0x2,%eax
    105e:	89 ca                	mov    %ecx,%edx
    1060:	29 c2                	sub    %eax,%edx
    1062:	89 55 b4             	mov    %edx,-0x4c(%ebp)
    1065:	8b 5d b4             	mov    -0x4c(%ebp),%ebx
    1068:	89 1d 30 ff 0e 01    	mov    %ebx,0x10eff30
    106e:	8b 55 f0             	mov    -0x10(%ebp),%edx
    1071:	8b 45 f8             	mov    -0x8(%ebp),%eax
    1074:	29 d0                	sub    %edx,%eax
    1076:	8d 48 14             	lea    0x14(%eax),%ecx
    1079:	c7 85 50 ff ff ff 67 	movl   $0x66666667,-0xb0(%ebp)
    1080:	66 66 66 
    1083:	8b 85 50 ff ff ff    	mov    -0xb0(%ebp),%eax
    1089:	f7 e9                	imul   %ecx
    108b:	c1 fa 03             	sar    $0x3,%edx
    108e:	89 c8                	mov    %ecx,%eax
    1090:	c1 f8 1f             	sar    $0x1f,%eax
    1093:	89 d3                	mov    %edx,%ebx
    1095:	29 c3                	sub    %eax,%ebx
    1097:	89 5d b8             	mov    %ebx,-0x48(%ebp)
    109a:	8b 45 b8             	mov    -0x48(%ebp),%eax
    109d:	c1 e0 02             	shl    $0x2,%eax
    10a0:	03 45 b8             	add    -0x48(%ebp),%eax
    10a3:	c1 e0 02             	shl    $0x2,%eax
    10a6:	89 ca                	mov    %ecx,%edx
    10a8:	29 c2                	sub    %eax,%edx
    10aa:	89 55 b8             	mov    %edx,-0x48(%ebp)
    10ad:	8b 5d b8             	mov    -0x48(%ebp),%ebx
    10b0:	89 1d 80 05 0f 01    	mov    %ebx,0x10f0580
    10b6:	e9 89 02 00 00       	jmp    0x1344
    10bb:	8b 55 f0             	mov    -0x10(%ebp),%edx
    10be:	8b 45 f4             	mov    -0xc(%ebp),%eax
    10c1:	29 d0                	sub    %edx,%eax
    10c3:	8d 48 14             	lea    0x14(%eax),%ecx
    10c6:	c7 85 50 ff ff ff 67 	movl   $0x66666667,-0xb0(%ebp)
    10cd:	66 66 66 
    10d0:	8b 85 50 ff ff ff    	mov    -0xb0(%ebp),%eax
    10d6:	f7 e9                	imul   %ecx
    10d8:	c1 fa 03             	sar    $0x3,%edx
    10db:	89 c8                	mov    %ecx,%eax
    10dd:	c1 f8 1f             	sar    $0x1f,%eax
    10e0:	89 d3                	mov    %edx,%ebx
    10e2:	29 c3                	sub    %eax,%ebx
    10e4:	89 5d bc             	mov    %ebx,-0x44(%ebp)
    10e7:	8b 45 bc             	mov    -0x44(%ebp),%eax
    10ea:	c1 e0 02             	shl    $0x2,%eax
    10ed:	03 45 bc             	add    -0x44(%ebp),%eax
    10f0:	c1 e0 02             	shl    $0x2,%eax
    10f3:	89 ca                	mov    %ecx,%edx
    10f5:	29 c2                	sub    %eax,%edx
    10f7:	89 55 bc             	mov    %edx,-0x44(%ebp)
    10fa:	8b 45 f8             	mov    -0x8(%ebp),%eax
    10fd:	8d 48 01             	lea    0x1(%eax),%ecx
    1100:	c7 85 50 ff ff ff 67 	movl   $0x66666667,-0xb0(%ebp)
    1107:	66 66 66 
    110a:	8b 85 50 ff ff ff    	mov    -0xb0(%ebp),%eax
    1110:	f7 e9                	imul   %ecx
    1112:	c1 fa 03             	sar    $0x3,%edx
    1115:	89 c8                	mov    %ecx,%eax
    1117:	c1 f8 1f             	sar    $0x1f,%eax
    111a:	89 d3                	mov    %edx,%ebx
    111c:	29 c3                	sub    %eax,%ebx
    111e:	89 5d c0             	mov    %ebx,-0x40(%ebp)
    1121:	8b 45 c0             	mov    -0x40(%ebp),%eax
    1124:	c1 e0 02             	shl    $0x2,%eax
    1127:	03 45 c0             	add    -0x40(%ebp),%eax
    112a:	c1 e0 02             	shl    $0x2,%eax
    112d:	89 ca                	mov    %ecx,%edx
    112f:	29 c2                	sub    %eax,%edx
    1131:	89 55 c0             	mov    %edx,-0x40(%ebp)
    1134:	8b 45 bc             	mov    -0x44(%ebp),%eax
    1137:	c1 e0 02             	shl    $0x2,%eax
    113a:	03 45 bc             	add    -0x44(%ebp),%eax
    113d:	c1 e0 02             	shl    $0x2,%eax
    1140:	03 45 c0             	add    -0x40(%ebp),%eax
    1143:	8b 04 85 40 ff 0e 01 	mov    0x10eff40(,%eax,4),%eax
    114a:	83 f8 06             	cmp    $0x6,%eax
    114d:	75 17                	jne    0x1166
    114f:	a1 50 44 00 01       	mov    0x1004450,%eax
    1154:	83 c0 01             	add    $0x1,%eax
    1157:	a3 50 44 00 01       	mov    %eax,0x1004450
    115c:	e8 7a f2 ff ff       	call   0x3db
    1161:	e9 a3 00 00 00       	jmp    0x1209
    1166:	8b 55 f0             	mov    -0x10(%ebp),%edx
    1169:	8b 45 f4             	mov    -0xc(%ebp),%eax
    116c:	29 d0                	sub    %edx,%eax
    116e:	8d 48 14             	lea    0x14(%eax),%ecx
    1171:	c7 85 50 ff ff ff 67 	movl   $0x66666667,-0xb0(%ebp)
    1178:	66 66 66 
    117b:	8b 85 50 ff ff ff    	mov    -0xb0(%ebp),%eax
    1181:	f7 e9                	imul   %ecx
    1183:	c1 fa 03             	sar    $0x3,%edx
    1186:	89 c8                	mov    %ecx,%eax
    1188:	c1 f8 1f             	sar    $0x1f,%eax
    118b:	89 d3                	mov    %edx,%ebx
    118d:	29 c3                	sub    %eax,%ebx
    118f:	89 5d c4             	mov    %ebx,-0x3c(%ebp)
    1192:	8b 45 c4             	mov    -0x3c(%ebp),%eax
    1195:	c1 e0 02             	shl    $0x2,%eax
    1198:	03 45 c4             	add    -0x3c(%ebp),%eax
    119b:	c1 e0 02             	shl    $0x2,%eax
    119e:	89 ca                	mov    %ecx,%edx
    11a0:	29 c2                	sub    %eax,%edx
    11a2:	89 55 c4             	mov    %edx,-0x3c(%ebp)
    11a5:	8b 45 f8             	mov    -0x8(%ebp),%eax
    11a8:	8d 48 01             	lea    0x1(%eax),%ecx
    11ab:	c7 85 50 ff ff ff 67 	movl   $0x66666667,-0xb0(%ebp)
    11b2:	66 66 66 
    11b5:	8b 85 50 ff ff ff    	mov    -0xb0(%ebp),%eax
    11bb:	f7 e9                	imul   %ecx
    11bd:	c1 fa 03             	sar    $0x3,%edx
    11c0:	89 c8                	mov    %ecx,%eax
    11c2:	c1 f8 1f             	sar    $0x1f,%eax
    11c5:	89 d3                	mov    %edx,%ebx
    11c7:	29 c3                	sub    %eax,%ebx
    11c9:	89 5d c8             	mov    %ebx,-0x38(%ebp)
    11cc:	8b 45 c8             	mov    -0x38(%ebp),%eax
    11cf:	c1 e0 02             	shl    $0x2,%eax
    11d2:	03 45 c8             	add    -0x38(%ebp),%eax
    11d5:	c1 e0 02             	shl    $0x2,%eax
    11d8:	89 ca                	mov    %ecx,%edx
    11da:	29 c2                	sub    %eax,%edx
    11dc:	89 55 c8             	mov    %edx,-0x38(%ebp)
    11df:	8b 45 c4             	mov    -0x3c(%ebp),%eax
    11e2:	c1 e0 02             	shl    $0x2,%eax
    11e5:	03 45 c4             	add    -0x3c(%ebp),%eax
    11e8:	c1 e0 02             	shl    $0x2,%eax
    11eb:	03 45 c8             	add    -0x38(%ebp),%eax
    11ee:	8b 04 85 40 ff 0e 01 	mov    0x10eff40(,%eax,4),%eax
    11f5:	85 c0                	test   %eax,%eax
    11f7:	74 10                	je     0x1209
    11f9:	8b 45 08             	mov    0x8(%ebp),%eax
    11fc:	89 04 24             	mov    %eax,(%esp)
    11ff:	e8 0c f3 ff ff       	call   0x510
    1204:	e9 3b 01 00 00       	jmp    0x1344
    1209:	8b 55 f4             	mov    -0xc(%ebp),%edx
    120c:	8b 4d f8             	mov    -0x8(%ebp),%ecx
    120f:	89 d0                	mov    %edx,%eax
    1211:	c1 e0 02             	shl    $0x2,%eax
    1214:	01 d0                	add    %edx,%eax
    1216:	c1 e0 02             	shl    $0x2,%eax
    1219:	01 c8                	add    %ecx,%eax
    121b:	c7 04 85 40 ff 0e 01 	movl   $0x0,0x10eff40(,%eax,4)
    1222:	00 00 00 00 
    1226:	8b 55 f0             	mov    -0x10(%ebp),%edx
    1229:	8b 45 f4             	mov    -0xc(%ebp),%eax
    122c:	29 d0                	sub    %edx,%eax
    122e:	8d 48 14             	lea    0x14(%eax),%ecx
    1231:	c7 85 50 ff ff ff 67 	movl   $0x66666667,-0xb0(%ebp)
    1238:	66 66 66 
    123b:	8b 85 50 ff ff ff    	mov    -0xb0(%ebp),%eax
    1241:	f7 e9                	imul   %ecx
    1243:	c1 fa 03             	sar    $0x3,%edx
    1246:	89 c8                	mov    %ecx,%eax
    1248:	c1 f8 1f             	sar    $0x1f,%eax
    124b:	89 d3                	mov    %edx,%ebx
    124d:	29 c3                	sub    %eax,%ebx
    124f:	89 5d cc             	mov    %ebx,-0x34(%ebp)
    1252:	8b 45 cc             	mov    -0x34(%ebp),%eax
    1255:	c1 e0 02             	shl    $0x2,%eax
    1258:	03 45 cc             	add    -0x34(%ebp),%eax
    125b:	c1 e0 02             	shl    $0x2,%eax
    125e:	89 ca                	mov    %ecx,%edx
    1260:	29 c2                	sub    %eax,%edx
    1262:	89 55 cc             	mov    %edx,-0x34(%ebp)
    1265:	8b 45 f8             	mov    -0x8(%ebp),%eax
    1268:	8d 48 01             	lea    0x1(%eax),%ecx
    126b:	c7 85 50 ff ff ff 67 	movl   $0x66666667,-0xb0(%ebp)
    1272:	66 66 66 
    1275:	8b 85 50 ff ff ff    	mov    -0xb0(%ebp),%eax
    127b:	f7 e9                	imul   %ecx
    127d:	c1 fa 03             	sar    $0x3,%edx
    1280:	89 c8                	mov    %ecx,%eax
    1282:	c1 f8 1f             	sar    $0x1f,%eax
    1285:	89 d3                	mov    %edx,%ebx
    1287:	29 c3                	sub    %eax,%ebx
    1289:	89 5d d0             	mov    %ebx,-0x30(%ebp)
    128c:	8b 45 d0             	mov    -0x30(%ebp),%eax
    128f:	c1 e0 02             	shl    $0x2,%eax
    1292:	03 45 d0             	add    -0x30(%ebp),%eax
    1295:	c1 e0 02             	shl    $0x2,%eax
    1298:	89 ca                	mov    %ecx,%edx
    129a:	29 c2                	sub    %eax,%edx
    129c:	89 55 d0             	mov    %edx,-0x30(%ebp)
    129f:	8b 45 cc             	mov    -0x34(%ebp),%eax
    12a2:	c1 e0 02             	shl    $0x2,%eax
    12a5:	03 45 cc             	add    -0x34(%ebp),%eax
    12a8:	c1 e0 02             	shl    $0x2,%eax
    12ab:	03 45 d0             	add    -0x30(%ebp),%eax
    12ae:	c7 04 85 40 ff 0e 01 	movl   $0x2,0x10eff40(,%eax,4)
    12b5:	02 00 00 00 
    12b9:	8b 55 f0             	mov    -0x10(%ebp),%edx
    12bc:	8b 45 f4             	mov    -0xc(%ebp),%eax
    12bf:	29 d0                	sub    %edx,%eax
    12c1:	8d 48 14             	lea    0x14(%eax),%ecx
    12c4:	c7 85 50 ff ff ff 67 	movl   $0x66666667,-0xb0(%ebp)
    12cb:	66 66 66 
    12ce:	8b 85 50 ff ff ff    	mov    -0xb0(%ebp),%eax
    12d4:	f7 e9                	imul   %ecx
    12d6:	c1 fa 03             	sar    $0x3,%edx
    12d9:	89 c8                	mov    %ecx,%eax
    12db:	c1 f8 1f             	sar    $0x1f,%eax
    12de:	89 d3                	mov    %edx,%ebx
    12e0:	29 c3                	sub    %eax,%ebx
    12e2:	89 5d d4             	mov    %ebx,-0x2c(%ebp)
    12e5:	8b 45 d4             	mov    -0x2c(%ebp),%eax
    12e8:	c1 e0 02             	shl    $0x2,%eax
    12eb:	03 45 d4             	add    -0x2c(%ebp),%eax
    12ee:	c1 e0 02             	shl    $0x2,%eax
    12f1:	89 ca                	mov    %ecx,%edx
    12f3:	29 c2                	sub    %eax,%edx
    12f5:	89 55 d4             	mov    %edx,-0x2c(%ebp)
    12f8:	8b 5d d4             	mov    -0x2c(%ebp),%ebx
    12fb:	89 1d 30 ff 0e 01    	mov    %ebx,0x10eff30
    1301:	8b 45 f8             	mov    -0x8(%ebp),%eax
    1304:	8d 48 01             	lea    0x1(%eax),%ecx
    1307:	c7 85 50 ff ff ff 67 	movl   $0x66666667,-0xb0(%ebp)
    130e:	66 66 66 
    1311:	8b 85 50 ff ff ff    	mov    -0xb0(%ebp),%eax
    1317:	f7 e9                	imul   %ecx
    1319:	c1 fa 03             	sar    $0x3,%edx
    131c:	89 c8                	mov    %ecx,%eax
    131e:	c1 f8 1f             	sar    $0x1f,%eax
    1321:	89 d3                	mov    %edx,%ebx
    1323:	29 c3                	sub    %eax,%ebx
    1325:	89 5d d8             	mov    %ebx,-0x28(%ebp)
    1328:	8b 45 d8             	mov    -0x28(%ebp),%eax
    132b:	c1 e0 02             	shl    $0x2,%eax
    132e:	03 45 d8             	add    -0x28(%ebp),%eax
    1331:	c1 e0 02             	shl    $0x2,%eax
    1334:	89 ca                	mov    %ecx,%edx
    1336:	29 c2                	sub    %eax,%edx
    1338:	89 55 d8             	mov    %edx,-0x28(%ebp)
    133b:	8b 5d d8             	mov    -0x28(%ebp),%ebx
    133e:	89 1d 80 05 0f 01    	mov    %ebx,0x10f0580
    1344:	81 c4 b4 00 00 00    	add    $0xb4,%esp
    134a:	5b                   	pop    %ebx
    134b:	5d                   	pop    %ebp
    134c:	c3                   	ret    
    134d:	55                   	push   %ebp
    134e:	89 e5                	mov    %esp,%ebp
    1350:	83 ec 18             	sub    $0x18,%esp
    1353:	c7 45 f8 00 00 00 00 	movl   $0x0,-0x8(%ebp)
    135a:	eb 56                	jmp    0x13b2
    135c:	c7 45 fc 00 00 00 00 	movl   $0x0,-0x4(%ebp)
    1363:	eb 2d                	jmp    0x1392
    1365:	8b 55 f8             	mov    -0x8(%ebp),%edx
    1368:	8b 4d fc             	mov    -0x4(%ebp),%ecx
    136b:	89 d0                	mov    %edx,%eax
    136d:	c1 e0 02             	shl    $0x2,%eax
    1370:	01 d0                	add    %edx,%eax
    1372:	c1 e0 02             	shl    $0x2,%eax
    1375:	01 c8                	add    %ecx,%eax
    1377:	8b 04 85 40 ff 0e 01 	mov    0x10eff40(,%eax,4),%eax
    137e:	89 44 24 04          	mov    %eax,0x4(%esp)
    1382:	c7 04 24 7e 42 00 01 	movl   $0x100427e,(%esp)
    1389:	e8 6e 1d 00 00       	call   0x30fc
    138e:	83 45 fc 01          	addl   $0x1,-0x4(%ebp)
    1392:	83 7d fc 13          	cmpl   $0x13,-0x4(%ebp)
    1396:	7e cd                	jle    0x1365
    1398:	8b 45 f8             	mov    -0x8(%ebp),%eax
    139b:	83 e0 01             	and    $0x1,%eax
    139e:	84 c0                	test   %al,%al
    13a0:	74 0c                	je     0x13ae
    13a2:	c7 04 24 81 42 00 01 	movl   $0x1004281,(%esp)
    13a9:	e8 4e 1d 00 00       	call   0x30fc
    13ae:	83 45 f8 01          	addl   $0x1,-0x8(%ebp)
    13b2:	83 7d f8 13          	cmpl   $0x13,-0x8(%ebp)
    13b6:	7e a4                	jle    0x135c
    13b8:	c9                   	leave  
    13b9:	c3                   	ret    
    13ba:	55                   	push   %ebp
    13bb:	89 e5                	mov    %esp,%ebp
    13bd:	56                   	push   %esi
    13be:	53                   	push   %ebx
    13bf:	83 c4 80             	add    $0xffffff80,%esp
    13c2:	a1 30 ff 0e 01       	mov    0x10eff30,%eax
    13c7:	89 45 e4             	mov    %eax,-0x1c(%ebp)
    13ca:	a1 80 05 0f 01       	mov    0x10f0580,%eax
    13cf:	89 45 e8             	mov    %eax,-0x18(%ebp)
    13d2:	c7 45 f4 00 00 00 00 	movl   $0x0,-0xc(%ebp)
    13d9:	a1 58 44 00 01       	mov    0x1004458,%eax
    13de:	85 c0                	test   %eax,%eax
    13e0:	74 0f                	je     0x13f1
    13e2:	c7 05 58 44 00 01 00 	movl   $0x0,0x1004458
    13e9:	00 00 00 
    13ec:	e9 b2 07 00 00       	jmp    0x1ba3
    13f1:	8b 55 e4             	mov    -0x1c(%ebp),%edx
    13f4:	8b 4d e8             	mov    -0x18(%ebp),%ecx
    13f7:	89 d0                	mov    %edx,%eax
    13f9:	c1 e0 02             	shl    $0x2,%eax
    13fc:	01 d0                	add    %edx,%eax
    13fe:	c1 e0 02             	shl    $0x2,%eax
    1401:	01 c8                	add    %ecx,%eax
    1403:	8b 04 85 40 ff 0e 01 	mov    0x10eff40(,%eax,4),%eax
    140a:	89 45 90             	mov    %eax,-0x70(%ebp)
    140d:	83 7d 90 02          	cmpl   $0x2,-0x70(%ebp)
    1411:	0f 84 8f 01 00 00    	je     0x15a6
    1417:	83 7d 90 02          	cmpl   $0x2,-0x70(%ebp)
    141b:	7f 0b                	jg     0x1428
    141d:	83 7d 90 01          	cmpl   $0x1,-0x70(%ebp)
    1421:	74 1e                	je     0x1441
    1423:	e9 a2 05 00 00       	jmp    0x19ca
    1428:	83 7d 90 03          	cmpl   $0x3,-0x70(%ebp)
    142c:	0f 84 d6 02 00 00    	je     0x1708
    1432:	83 7d 90 04          	cmpl   $0x4,-0x70(%ebp)
    1436:	0f 84 31 04 00 00    	je     0x186d
    143c:	e9 89 05 00 00       	jmp    0x19ca
    1441:	8b 45 e4             	mov    -0x1c(%ebp),%eax
    1444:	8d 48 01             	lea    0x1(%eax),%ecx
    1447:	c7 45 8c 67 66 66 66 	movl   $0x66666667,-0x74(%ebp)
    144e:	8b 45 8c             	mov    -0x74(%ebp),%eax
    1451:	f7 e9                	imul   %ecx
    1453:	c1 fa 03             	sar    $0x3,%edx
    1456:	89 c8                	mov    %ecx,%eax
    1458:	c1 f8 1f             	sar    $0x1f,%eax
    145b:	89 d3                	mov    %edx,%ebx
    145d:	29 c3                	sub    %eax,%ebx
    145f:	89 5d 94             	mov    %ebx,-0x6c(%ebp)
    1462:	8b 45 94             	mov    -0x6c(%ebp),%eax
    1465:	c1 e0 02             	shl    $0x2,%eax
    1468:	03 45 94             	add    -0x6c(%ebp),%eax
    146b:	c1 e0 02             	shl    $0x2,%eax
    146e:	89 ce                	mov    %ecx,%esi
    1470:	29 c6                	sub    %eax,%esi
    1472:	89 75 94             	mov    %esi,-0x6c(%ebp)
    1475:	8b 55 e8             	mov    -0x18(%ebp),%edx
    1478:	8b 45 94             	mov    -0x6c(%ebp),%eax
    147b:	c1 e0 02             	shl    $0x2,%eax
    147e:	03 45 94             	add    -0x6c(%ebp),%eax
    1481:	c1 e0 02             	shl    $0x2,%eax
    1484:	01 d0                	add    %edx,%eax
    1486:	8b 04 85 40 ff 0e 01 	mov    0x10eff40(,%eax,4),%eax
    148d:	83 f8 06             	cmp    $0x6,%eax
    1490:	75 1b                	jne    0x14ad
    1492:	a1 50 44 00 01       	mov    0x1004450,%eax
    1497:	83 c0 01             	add    $0x1,%eax
    149a:	a3 50 44 00 01       	mov    %eax,0x1004450
    149f:	e8 37 ef ff ff       	call   0x3db
    14a4:	c7 45 f4 01 00 00 00 	movl   $0x1,-0xc(%ebp)
    14ab:	eb 60                	jmp    0x150d
    14ad:	8b 45 e4             	mov    -0x1c(%ebp),%eax
    14b0:	8d 48 01             	lea    0x1(%eax),%ecx
    14b3:	c7 45 8c 67 66 66 66 	movl   $0x66666667,-0x74(%ebp)
    14ba:	8b 45 8c             	mov    -0x74(%ebp),%eax
    14bd:	f7 e9                	imul   %ecx
    14bf:	c1 fa 03             	sar    $0x3,%edx
    14c2:	89 c8                	mov    %ecx,%eax
    14c4:	c1 f8 1f             	sar    $0x1f,%eax
    14c7:	89 d3                	mov    %edx,%ebx
    14c9:	29 c3                	sub    %eax,%ebx
    14cb:	89 5d 98             	mov    %ebx,-0x68(%ebp)
    14ce:	8b 45 98             	mov    -0x68(%ebp),%eax
    14d1:	c1 e0 02             	shl    $0x2,%eax
    14d4:	03 45 98             	add    -0x68(%ebp),%eax
    14d7:	c1 e0 02             	shl    $0x2,%eax
    14da:	89 ce                	mov    %ecx,%esi
    14dc:	29 c6                	sub    %eax,%esi
    14de:	89 75 98             	mov    %esi,-0x68(%ebp)
    14e1:	8b 55 e8             	mov    -0x18(%ebp),%edx
    14e4:	8b 45 98             	mov    -0x68(%ebp),%eax
    14e7:	c1 e0 02             	shl    $0x2,%eax
    14ea:	03 45 98             	add    -0x68(%ebp),%eax
    14ed:	c1 e0 02             	shl    $0x2,%eax
    14f0:	01 d0                	add    %edx,%eax
    14f2:	8b 04 85 40 ff 0e 01 	mov    0x10eff40(,%eax,4),%eax
    14f9:	85 c0                	test   %eax,%eax
    14fb:	74 10                	je     0x150d
    14fd:	8b 45 08             	mov    0x8(%ebp),%eax
    1500:	89 04 24             	mov    %eax,(%esp)
    1503:	e8 08 f0 ff ff       	call   0x510
    1508:	e9 96 06 00 00       	jmp    0x1ba3
    150d:	8b 45 e4             	mov    -0x1c(%ebp),%eax
    1510:	8d 48 01             	lea    0x1(%eax),%ecx
    1513:	c7 45 8c 67 66 66 66 	movl   $0x66666667,-0x74(%ebp)
    151a:	8b 45 8c             	mov    -0x74(%ebp),%eax
    151d:	f7 e9                	imul   %ecx
    151f:	c1 fa 03             	sar    $0x3,%edx
    1522:	89 c8                	mov    %ecx,%eax
    1524:	c1 f8 1f             	sar    $0x1f,%eax
    1527:	89 d3                	mov    %edx,%ebx
    1529:	29 c3                	sub    %eax,%ebx
    152b:	89 5d 9c             	mov    %ebx,-0x64(%ebp)
    152e:	8b 45 9c             	mov    -0x64(%ebp),%eax
    1531:	c1 e0 02             	shl    $0x2,%eax
    1534:	03 45 9c             	add    -0x64(%ebp),%eax
    1537:	c1 e0 02             	shl    $0x2,%eax
    153a:	89 ce                	mov    %ecx,%esi
    153c:	29 c6                	sub    %eax,%esi
    153e:	89 75 9c             	mov    %esi,-0x64(%ebp)
    1541:	8b 55 e8             	mov    -0x18(%ebp),%edx
    1544:	8b 45 9c             	mov    -0x64(%ebp),%eax
    1547:	c1 e0 02             	shl    $0x2,%eax
    154a:	03 45 9c             	add    -0x64(%ebp),%eax
    154d:	c1 e0 02             	shl    $0x2,%eax
    1550:	01 d0                	add    %edx,%eax
    1552:	c7 04 85 40 ff 0e 01 	movl   $0x1,0x10eff40(,%eax,4)
    1559:	01 00 00 00 
    155d:	8b 45 e4             	mov    -0x1c(%ebp),%eax
    1560:	8d 48 01             	lea    0x1(%eax),%ecx
    1563:	c7 45 8c 67 66 66 66 	movl   $0x66666667,-0x74(%ebp)
    156a:	8b 45 8c             	mov    -0x74(%ebp),%eax
    156d:	f7 e9                	imul   %ecx
    156f:	c1 fa 03             	sar    $0x3,%edx
    1572:	89 c8                	mov    %ecx,%eax
    1574:	c1 f8 1f             	sar    $0x1f,%eax
    1577:	89 d3                	mov    %edx,%ebx
    1579:	29 c3                	sub    %eax,%ebx
    157b:	89 5d a0             	mov    %ebx,-0x60(%ebp)
    157e:	8b 45 a0             	mov    -0x60(%ebp),%eax
    1581:	c1 e0 02             	shl    $0x2,%eax
    1584:	03 45 a0             	add    -0x60(%ebp),%eax
    1587:	c1 e0 02             	shl    $0x2,%eax
    158a:	89 ce                	mov    %ecx,%esi
    158c:	29 c6                	sub    %eax,%esi
    158e:	89 75 a0             	mov    %esi,-0x60(%ebp)
    1591:	8b 45 a0             	mov    -0x60(%ebp),%eax
    1594:	a3 30 ff 0e 01       	mov    %eax,0x10eff30
    1599:	8b 45 e8             	mov    -0x18(%ebp),%eax
    159c:	a3 80 05 0f 01       	mov    %eax,0x10f0580
    15a1:	e9 24 04 00 00       	jmp    0x19ca
    15a6:	8b 5d e4             	mov    -0x1c(%ebp),%ebx
    15a9:	8b 45 e8             	mov    -0x18(%ebp),%eax
    15ac:	8d 48 01             	lea    0x1(%eax),%ecx
    15af:	c7 45 8c 67 66 66 66 	movl   $0x66666667,-0x74(%ebp)
    15b6:	8b 45 8c             	mov    -0x74(%ebp),%eax
    15b9:	f7 e9                	imul   %ecx
    15bb:	c1 fa 03             	sar    $0x3,%edx
    15be:	89 c8                	mov    %ecx,%eax
    15c0:	c1 f8 1f             	sar    $0x1f,%eax
    15c3:	89 d6                	mov    %edx,%esi
    15c5:	29 c6                	sub    %eax,%esi
    15c7:	89 75 a4             	mov    %esi,-0x5c(%ebp)
    15ca:	8b 45 a4             	mov    -0x5c(%ebp),%eax
    15cd:	c1 e0 02             	shl    $0x2,%eax
    15d0:	03 45 a4             	add    -0x5c(%ebp),%eax
    15d3:	c1 e0 02             	shl    $0x2,%eax
    15d6:	89 ca                	mov    %ecx,%edx
    15d8:	29 c2                	sub    %eax,%edx
    15da:	89 55 a4             	mov    %edx,-0x5c(%ebp)
    15dd:	89 d8                	mov    %ebx,%eax
    15df:	c1 e0 02             	shl    $0x2,%eax
    15e2:	01 d8                	add    %ebx,%eax
    15e4:	c1 e0 02             	shl    $0x2,%eax
    15e7:	03 45 a4             	add    -0x5c(%ebp),%eax
    15ea:	8b 04 85 40 ff 0e 01 	mov    0x10eff40(,%eax,4),%eax
    15f1:	83 f8 06             	cmp    $0x6,%eax
    15f4:	75 1b                	jne    0x1611
    15f6:	a1 50 44 00 01       	mov    0x1004450,%eax
    15fb:	83 c0 01             	add    $0x1,%eax
    15fe:	a3 50 44 00 01       	mov    %eax,0x1004450
    1603:	e8 d3 ed ff ff       	call   0x3db
    1608:	c7 45 f4 01 00 00 00 	movl   $0x1,-0xc(%ebp)
    160f:	eb 5f                	jmp    0x1670
    1611:	8b 5d e4             	mov    -0x1c(%ebp),%ebx
    1614:	8b 45 e8             	mov    -0x18(%ebp),%eax
    1617:	8d 48 01             	lea    0x1(%eax),%ecx
    161a:	c7 45 8c 67 66 66 66 	movl   $0x66666667,-0x74(%ebp)
    1621:	8b 45 8c             	mov    -0x74(%ebp),%eax
    1624:	f7 e9                	imul   %ecx
    1626:	c1 fa 03             	sar    $0x3,%edx
    1629:	89 c8                	mov    %ecx,%eax
    162b:	c1 f8 1f             	sar    $0x1f,%eax
    162e:	89 d6                	mov    %edx,%esi
    1630:	29 c6                	sub    %eax,%esi
    1632:	89 75 a8             	mov    %esi,-0x58(%ebp)
    1635:	8b 45 a8             	mov    -0x58(%ebp),%eax
    1638:	c1 e0 02             	shl    $0x2,%eax
    163b:	03 45 a8             	add    -0x58(%ebp),%eax
    163e:	c1 e0 02             	shl    $0x2,%eax
    1641:	89 ca                	mov    %ecx,%edx
    1643:	29 c2                	sub    %eax,%edx
    1645:	89 55 a8             	mov    %edx,-0x58(%ebp)
    1648:	89 d8                	mov    %ebx,%eax
    164a:	c1 e0 02             	shl    $0x2,%eax
    164d:	01 d8                	add    %ebx,%eax
    164f:	c1 e0 02             	shl    $0x2,%eax
    1652:	03 45 a8             	add    -0x58(%ebp),%eax
    1655:	8b 04 85 40 ff 0e 01 	mov    0x10eff40(,%eax,4),%eax
    165c:	85 c0                	test   %eax,%eax
    165e:	74 10                	je     0x1670
    1660:	8b 45 08             	mov    0x8(%ebp),%eax
    1663:	89 04 24             	mov    %eax,(%esp)
    1666:	e8 a5 ee ff ff       	call   0x510
    166b:	e9 33 05 00 00       	jmp    0x1ba3
    1670:	8b 5d e4             	mov    -0x1c(%ebp),%ebx
    1673:	8b 45 e8             	mov    -0x18(%ebp),%eax
    1676:	8d 48 01             	lea    0x1(%eax),%ecx
    1679:	c7 45 8c 67 66 66 66 	movl   $0x66666667,-0x74(%ebp)
    1680:	8b 45 8c             	mov    -0x74(%ebp),%eax
    1683:	f7 e9                	imul   %ecx
    1685:	c1 fa 03             	sar    $0x3,%edx
    1688:	89 c8                	mov    %ecx,%eax
    168a:	c1 f8 1f             	sar    $0x1f,%eax
    168d:	89 d6                	mov    %edx,%esi
    168f:	29 c6                	sub    %eax,%esi
    1691:	89 75 ac             	mov    %esi,-0x54(%ebp)
    1694:	8b 45 ac             	mov    -0x54(%ebp),%eax
    1697:	c1 e0 02             	shl    $0x2,%eax
    169a:	03 45 ac             	add    -0x54(%ebp),%eax
    169d:	c1 e0 02             	shl    $0x2,%eax
    16a0:	89 ca                	mov    %ecx,%edx
    16a2:	29 c2                	sub    %eax,%edx
    16a4:	89 55 ac             	mov    %edx,-0x54(%ebp)
    16a7:	89 d8                	mov    %ebx,%eax
    16a9:	c1 e0 02             	shl    $0x2,%eax
    16ac:	01 d8                	add    %ebx,%eax
    16ae:	c1 e0 02             	shl    $0x2,%eax
    16b1:	03 45 ac             	add    -0x54(%ebp),%eax
    16b4:	c7 04 85 40 ff 0e 01 	movl   $0x2,0x10eff40(,%eax,4)
    16bb:	02 00 00 00 
    16bf:	8b 45 e4             	mov    -0x1c(%ebp),%eax
    16c2:	a3 30 ff 0e 01       	mov    %eax,0x10eff30
    16c7:	8b 45 e8             	mov    -0x18(%ebp),%eax
    16ca:	8d 48 01             	lea    0x1(%eax),%ecx
    16cd:	c7 45 8c 67 66 66 66 	movl   $0x66666667,-0x74(%ebp)
    16d4:	8b 45 8c             	mov    -0x74(%ebp),%eax
    16d7:	f7 e9                	imul   %ecx
    16d9:	c1 fa 03             	sar    $0x3,%edx
    16dc:	89 c8                	mov    %ecx,%eax
    16de:	c1 f8 1f             	sar    $0x1f,%eax
    16e1:	89 d3                	mov    %edx,%ebx
    16e3:	29 c3                	sub    %eax,%ebx
    16e5:	89 5d b0             	mov    %ebx,-0x50(%ebp)
    16e8:	8b 45 b0             	mov    -0x50(%ebp),%eax
    16eb:	c1 e0 02             	shl    $0x2,%eax
    16ee:	03 45 b0             	add    -0x50(%ebp),%eax
    16f1:	c1 e0 02             	shl    $0x2,%eax
    16f4:	89 ce                	mov    %ecx,%esi
    16f6:	29 c6                	sub    %eax,%esi
    16f8:	89 75 b0             	mov    %esi,-0x50(%ebp)
    16fb:	8b 45 b0             	mov    -0x50(%ebp),%eax
    16fe:	a3 80 05 0f 01       	mov    %eax,0x10f0580
    1703:	e9 c2 02 00 00       	jmp    0x19ca
    1708:	8b 45 e4             	mov    -0x1c(%ebp),%eax
    170b:	8d 48 13             	lea    0x13(%eax),%ecx
    170e:	c7 45 8c 67 66 66 66 	movl   $0x66666667,-0x74(%ebp)
    1715:	8b 45 8c             	mov    -0x74(%ebp),%eax
    1718:	f7 e9                	imul   %ecx
    171a:	c1 fa 03             	sar    $0x3,%edx
    171d:	89 c8                	mov    %ecx,%eax
    171f:	c1 f8 1f             	sar    $0x1f,%eax
    1722:	89 d3                	mov    %edx,%ebx
    1724:	29 c3                	sub    %eax,%ebx
    1726:	89 5d b4             	mov    %ebx,-0x4c(%ebp)
    1729:	8b 45 b4             	mov    -0x4c(%ebp),%eax
    172c:	c1 e0 02             	shl    $0x2,%eax
    172f:	03 45 b4             	add    -0x4c(%ebp),%eax
    1732:	c1 e0 02             	shl    $0x2,%eax
    1735:	89 ce                	mov    %ecx,%esi
    1737:	29 c6                	sub    %eax,%esi
    1739:	89 75 b4             	mov    %esi,-0x4c(%ebp)
    173c:	8b 55 e8             	mov    -0x18(%ebp),%edx
    173f:	8b 45 b4             	mov    -0x4c(%ebp),%eax
    1742:	c1 e0 02             	shl    $0x2,%eax
    1745:	03 45 b4             	add    -0x4c(%ebp),%eax
    1748:	c1 e0 02             	shl    $0x2,%eax
    174b:	01 d0                	add    %edx,%eax
    174d:	8b 04 85 40 ff 0e 01 	mov    0x10eff40(,%eax,4),%eax
    1754:	83 f8 06             	cmp    $0x6,%eax
    1757:	75 1b                	jne    0x1774
    1759:	a1 50 44 00 01       	mov    0x1004450,%eax
    175e:	83 c0 01             	add    $0x1,%eax
    1761:	a3 50 44 00 01       	mov    %eax,0x1004450
    1766:	e8 70 ec ff ff       	call   0x3db
    176b:	c7 45 f4 01 00 00 00 	movl   $0x1,-0xc(%ebp)
    1772:	eb 60                	jmp    0x17d4
    1774:	8b 45 e4             	mov    -0x1c(%ebp),%eax
    1777:	8d 48 13             	lea    0x13(%eax),%ecx
    177a:	c7 45 8c 67 66 66 66 	movl   $0x66666667,-0x74(%ebp)
    1781:	8b 45 8c             	mov    -0x74(%ebp),%eax
    1784:	f7 e9                	imul   %ecx
    1786:	c1 fa 03             	sar    $0x3,%edx
    1789:	89 c8                	mov    %ecx,%eax
    178b:	c1 f8 1f             	sar    $0x1f,%eax
    178e:	89 d3                	mov    %edx,%ebx
    1790:	29 c3                	sub    %eax,%ebx
    1792:	89 5d b8             	mov    %ebx,-0x48(%ebp)
    1795:	8b 45 b8             	mov    -0x48(%ebp),%eax
    1798:	c1 e0 02             	shl    $0x2,%eax
    179b:	03 45 b8             	add    -0x48(%ebp),%eax
    179e:	c1 e0 02             	shl    $0x2,%eax
    17a1:	89 ce                	mov    %ecx,%esi
    17a3:	29 c6                	sub    %eax,%esi
    17a5:	89 75 b8             	mov    %esi,-0x48(%ebp)
    17a8:	8b 55 e8             	mov    -0x18(%ebp),%edx
    17ab:	8b 45 b8             	mov    -0x48(%ebp),%eax
    17ae:	c1 e0 02             	shl    $0x2,%eax
    17b1:	03 45 b8             	add    -0x48(%ebp),%eax
    17b4:	c1 e0 02             	shl    $0x2,%eax
    17b7:	01 d0                	add    %edx,%eax
    17b9:	8b 04 85 40 ff 0e 01 	mov    0x10eff40(,%eax,4),%eax
    17c0:	85 c0                	test   %eax,%eax
    17c2:	74 10                	je     0x17d4
    17c4:	8b 45 08             	mov    0x8(%ebp),%eax
    17c7:	89 04 24             	mov    %eax,(%esp)
    17ca:	e8 41 ed ff ff       	call   0x510
    17cf:	e9 cf 03 00 00       	jmp    0x1ba3
    17d4:	8b 45 e4             	mov    -0x1c(%ebp),%eax
    17d7:	8d 48 13             	lea    0x13(%eax),%ecx
    17da:	c7 45 8c 67 66 66 66 	movl   $0x66666667,-0x74(%ebp)
    17e1:	8b 45 8c             	mov    -0x74(%ebp),%eax
    17e4:	f7 e9                	imul   %ecx
    17e6:	c1 fa 03             	sar    $0x3,%edx
    17e9:	89 c8                	mov    %ecx,%eax
    17eb:	c1 f8 1f             	sar    $0x1f,%eax
    17ee:	89 d3                	mov    %edx,%ebx
    17f0:	29 c3                	sub    %eax,%ebx
    17f2:	89 5d bc             	mov    %ebx,-0x44(%ebp)
    17f5:	8b 45 bc             	mov    -0x44(%ebp),%eax
    17f8:	c1 e0 02             	shl    $0x2,%eax
    17fb:	03 45 bc             	add    -0x44(%ebp),%eax
    17fe:	c1 e0 02             	shl    $0x2,%eax
    1801:	89 ce                	mov    %ecx,%esi
    1803:	29 c6                	sub    %eax,%esi
    1805:	89 75 bc             	mov    %esi,-0x44(%ebp)
    1808:	8b 55 e8             	mov    -0x18(%ebp),%edx
    180b:	8b 45 bc             	mov    -0x44(%ebp),%eax
    180e:	c1 e0 02             	shl    $0x2,%eax
    1811:	03 45 bc             	add    -0x44(%ebp),%eax
    1814:	c1 e0 02             	shl    $0x2,%eax
    1817:	01 d0                	add    %edx,%eax
    1819:	c7 04 85 40 ff 0e 01 	movl   $0x3,0x10eff40(,%eax,4)
    1820:	03 00 00 00 
    1824:	8b 45 e4             	mov    -0x1c(%ebp),%eax
    1827:	8d 48 13             	lea    0x13(%eax),%ecx
    182a:	c7 45 8c 67 66 66 66 	movl   $0x66666667,-0x74(%ebp)
    1831:	8b 45 8c             	mov    -0x74(%ebp),%eax
    1834:	f7 e9                	imul   %ecx
    1836:	c1 fa 03             	sar    $0x3,%edx
    1839:	89 c8                	mov    %ecx,%eax
    183b:	c1 f8 1f             	sar    $0x1f,%eax
    183e:	89 d3                	mov    %edx,%ebx
    1840:	29 c3                	sub    %eax,%ebx
    1842:	89 5d c0             	mov    %ebx,-0x40(%ebp)
    1845:	8b 45 c0             	mov    -0x40(%ebp),%eax
    1848:	c1 e0 02             	shl    $0x2,%eax
    184b:	03 45 c0             	add    -0x40(%ebp),%eax
    184e:	c1 e0 02             	shl    $0x2,%eax
    1851:	89 ce                	mov    %ecx,%esi
    1853:	29 c6                	sub    %eax,%esi
    1855:	89 75 c0             	mov    %esi,-0x40(%ebp)
    1858:	8b 45 c0             	mov    -0x40(%ebp),%eax
    185b:	a3 30 ff 0e 01       	mov    %eax,0x10eff30
    1860:	8b 45 e8             	mov    -0x18(%ebp),%eax
    1863:	a3 80 05 0f 01       	mov    %eax,0x10f0580
    1868:	e9 5d 01 00 00       	jmp    0x19ca
    186d:	8b 5d e4             	mov    -0x1c(%ebp),%ebx
    1870:	8b 45 e8             	mov    -0x18(%ebp),%eax
    1873:	8d 48 13             	lea    0x13(%eax),%ecx
    1876:	c7 45 8c 67 66 66 66 	movl   $0x66666667,-0x74(%ebp)
    187d:	8b 45 8c             	mov    -0x74(%ebp),%eax
    1880:	f7 e9                	imul   %ecx
    1882:	c1 fa 03             	sar    $0x3,%edx
    1885:	89 c8                	mov    %ecx,%eax
    1887:	c1 f8 1f             	sar    $0x1f,%eax
    188a:	89 d6                	mov    %edx,%esi
    188c:	29 c6                	sub    %eax,%esi
    188e:	89 75 c4             	mov    %esi,-0x3c(%ebp)
    1891:	8b 45 c4             	mov    -0x3c(%ebp),%eax
    1894:	c1 e0 02             	shl    $0x2,%eax
    1897:	03 45 c4             	add    -0x3c(%ebp),%eax
    189a:	c1 e0 02             	shl    $0x2,%eax
    189d:	89 ca                	mov    %ecx,%edx
    189f:	29 c2                	sub    %eax,%edx
    18a1:	89 55 c4             	mov    %edx,-0x3c(%ebp)
    18a4:	89 d8                	mov    %ebx,%eax
    18a6:	c1 e0 02             	shl    $0x2,%eax
    18a9:	01 d8                	add    %ebx,%eax
    18ab:	c1 e0 02             	shl    $0x2,%eax
    18ae:	03 45 c4             	add    -0x3c(%ebp),%eax
    18b1:	8b 04 85 40 ff 0e 01 	mov    0x10eff40(,%eax,4),%eax
    18b8:	83 f8 06             	cmp    $0x6,%eax
    18bb:	75 1b                	jne    0x18d8
    18bd:	a1 50 44 00 01       	mov    0x1004450,%eax
    18c2:	83 c0 01             	add    $0x1,%eax
    18c5:	a3 50 44 00 01       	mov    %eax,0x1004450
    18ca:	e8 0c eb ff ff       	call   0x3db
    18cf:	c7 45 f4 01 00 00 00 	movl   $0x1,-0xc(%ebp)
    18d6:	eb 5f                	jmp    0x1937
    18d8:	8b 5d e4             	mov    -0x1c(%ebp),%ebx
    18db:	8b 45 e8             	mov    -0x18(%ebp),%eax
    18de:	8d 48 13             	lea    0x13(%eax),%ecx
    18e1:	c7 45 8c 67 66 66 66 	movl   $0x66666667,-0x74(%ebp)
    18e8:	8b 45 8c             	mov    -0x74(%ebp),%eax
    18eb:	f7 e9                	imul   %ecx
    18ed:	c1 fa 03             	sar    $0x3,%edx
    18f0:	89 c8                	mov    %ecx,%eax
    18f2:	c1 f8 1f             	sar    $0x1f,%eax
    18f5:	89 d6                	mov    %edx,%esi
    18f7:	29 c6                	sub    %eax,%esi
    18f9:	89 75 c8             	mov    %esi,-0x38(%ebp)
    18fc:	8b 45 c8             	mov    -0x38(%ebp),%eax
    18ff:	c1 e0 02             	shl    $0x2,%eax
    1902:	03 45 c8             	add    -0x38(%ebp),%eax
    1905:	c1 e0 02             	shl    $0x2,%eax
    1908:	89 ca                	mov    %ecx,%edx
    190a:	29 c2                	sub    %eax,%edx
    190c:	89 55 c8             	mov    %edx,-0x38(%ebp)
    190f:	89 d8                	mov    %ebx,%eax
    1911:	c1 e0 02             	shl    $0x2,%eax
    1914:	01 d8                	add    %ebx,%eax
    1916:	c1 e0 02             	shl    $0x2,%eax
    1919:	03 45 c8             	add    -0x38(%ebp),%eax
    191c:	8b 04 85 40 ff 0e 01 	mov    0x10eff40(,%eax,4),%eax
    1923:	85 c0                	test   %eax,%eax
    1925:	74 10                	je     0x1937
    1927:	8b 45 08             	mov    0x8(%ebp),%eax
    192a:	89 04 24             	mov    %eax,(%esp)
    192d:	e8 de eb ff ff       	call   0x510
    1932:	e9 6c 02 00 00       	jmp    0x1ba3
    1937:	8b 5d e4             	mov    -0x1c(%ebp),%ebx
    193a:	8b 45 e8             	mov    -0x18(%ebp),%eax
    193d:	8d 48 13             	lea    0x13(%eax),%ecx
    1940:	c7 45 8c 67 66 66 66 	movl   $0x66666667,-0x74(%ebp)
    1947:	8b 45 8c             	mov    -0x74(%ebp),%eax
    194a:	f7 e9                	imul   %ecx
    194c:	c1 fa 03             	sar    $0x3,%edx
    194f:	89 c8                	mov    %ecx,%eax
    1951:	c1 f8 1f             	sar    $0x1f,%eax
    1954:	89 d6                	mov    %edx,%esi
    1956:	29 c6                	sub    %eax,%esi
    1958:	89 75 cc             	mov    %esi,-0x34(%ebp)
    195b:	8b 45 cc             	mov    -0x34(%ebp),%eax
    195e:	c1 e0 02             	shl    $0x2,%eax
    1961:	03 45 cc             	add    -0x34(%ebp),%eax
    1964:	c1 e0 02             	shl    $0x2,%eax
    1967:	89 ca                	mov    %ecx,%edx
    1969:	29 c2                	sub    %eax,%edx
    196b:	89 55 cc             	mov    %edx,-0x34(%ebp)
    196e:	89 d8                	mov    %ebx,%eax
    1970:	c1 e0 02             	shl    $0x2,%eax
    1973:	01 d8                	add    %ebx,%eax
    1975:	c1 e0 02             	shl    $0x2,%eax
    1978:	03 45 cc             	add    -0x34(%ebp),%eax
    197b:	c7 04 85 40 ff 0e 01 	movl   $0x4,0x10eff40(,%eax,4)
    1982:	04 00 00 00 
    1986:	8b 45 e4             	mov    -0x1c(%ebp),%eax
    1989:	a3 30 ff 0e 01       	mov    %eax,0x10eff30
    198e:	8b 45 e8             	mov    -0x18(%ebp),%eax
    1991:	8d 48 13             	lea    0x13(%eax),%ecx
    1994:	c7 45 8c 67 66 66 66 	movl   $0x66666667,-0x74(%ebp)
    199b:	8b 45 8c             	mov    -0x74(%ebp),%eax
    199e:	f7 e9                	imul   %ecx
    19a0:	c1 fa 03             	sar    $0x3,%edx
    19a3:	89 c8                	mov    %ecx,%eax
    19a5:	c1 f8 1f             	sar    $0x1f,%eax
    19a8:	89 d3                	mov    %edx,%ebx
    19aa:	29 c3                	sub    %eax,%ebx
    19ac:	89 5d d0             	mov    %ebx,-0x30(%ebp)
    19af:	8b 45 d0             	mov    -0x30(%ebp),%eax
    19b2:	c1 e0 02             	shl    $0x2,%eax
    19b5:	03 45 d0             	add    -0x30(%ebp),%eax
    19b8:	c1 e0 02             	shl    $0x2,%eax
    19bb:	89 ce                	mov    %ecx,%esi
    19bd:	29 c6                	sub    %eax,%esi
    19bf:	89 75 d0             	mov    %esi,-0x30(%ebp)
    19c2:	8b 45 d0             	mov    -0x30(%ebp),%eax
    19c5:	a3 80 05 0f 01       	mov    %eax,0x10f0580
    19ca:	83 7d f4 00          	cmpl   $0x0,-0xc(%ebp)
    19ce:	0f 85 cf 01 00 00    	jne    0x1ba3
    19d4:	e9 6e 01 00 00       	jmp    0x1b47
    19d9:	8b 45 e4             	mov    -0x1c(%ebp),%eax
    19dc:	89 45 ec             	mov    %eax,-0x14(%ebp)
    19df:	8b 45 e8             	mov    -0x18(%ebp),%eax
    19e2:	89 45 f0             	mov    %eax,-0x10(%ebp)
    19e5:	8b 55 e4             	mov    -0x1c(%ebp),%edx
    19e8:	8b 4d e8             	mov    -0x18(%ebp),%ecx
    19eb:	89 d0                	mov    %edx,%eax
    19ed:	c1 e0 02             	shl    $0x2,%eax
    19f0:	01 d0                	add    %edx,%eax
    19f2:	c1 e0 02             	shl    $0x2,%eax
    19f5:	01 c8                	add    %ecx,%eax
    19f7:	8b 04 85 40 ff 0e 01 	mov    0x10eff40(,%eax,4),%eax
    19fe:	8b 15 4c 44 00 01    	mov    0x100444c,%edx
    1a04:	89 44 24 10          	mov    %eax,0x10(%esp)
    1a08:	8b 45 e8             	mov    -0x18(%ebp),%eax
    1a0b:	89 44 24 0c          	mov    %eax,0xc(%esp)
    1a0f:	8b 45 e4             	mov    -0x1c(%ebp),%eax
    1a12:	89 44 24 08          	mov    %eax,0x8(%esp)
    1a16:	89 54 24 04          	mov    %edx,0x4(%esp)
    1a1a:	c7 04 24 83 42 00 01 	movl   $0x1004283,(%esp)
    1a21:	e8 d6 16 00 00       	call   0x30fc
    1a26:	8b 55 e4             	mov    -0x1c(%ebp),%edx
    1a29:	8b 4d e8             	mov    -0x18(%ebp),%ecx
    1a2c:	89 d0                	mov    %edx,%eax
    1a2e:	c1 e0 02             	shl    $0x2,%eax
    1a31:	01 d0                	add    %edx,%eax
    1a33:	c1 e0 02             	shl    $0x2,%eax
    1a36:	01 c8                	add    %ecx,%eax
    1a38:	8b 04 85 40 ff 0e 01 	mov    0x10eff40(,%eax,4),%eax
    1a3f:	89 45 d4             	mov    %eax,-0x2c(%ebp)
    1a42:	83 7d d4 02          	cmpl   $0x2,-0x2c(%ebp)
    1a46:	74 5b                	je     0x1aa3
    1a48:	83 7d d4 02          	cmpl   $0x2,-0x2c(%ebp)
    1a4c:	7f 0b                	jg     0x1a59
    1a4e:	83 7d d4 01          	cmpl   $0x1,-0x2c(%ebp)
    1a52:	74 1a                	je     0x1a6e
    1a54:	e9 e0 00 00 00       	jmp    0x1b39
    1a59:	83 7d d4 03          	cmpl   $0x3,-0x2c(%ebp)
    1a5d:	74 76                	je     0x1ad5
    1a5f:	83 7d d4 04          	cmpl   $0x4,-0x2c(%ebp)
    1a63:	0f 84 9e 00 00 00    	je     0x1b07
    1a69:	e9 cb 00 00 00       	jmp    0x1b39
    1a6e:	83 45 e4 13          	addl   $0x13,-0x1c(%ebp)
    1a72:	8b 4d e4             	mov    -0x1c(%ebp),%ecx
    1a75:	c7 45 8c 67 66 66 66 	movl   $0x66666667,-0x74(%ebp)
    1a7c:	8b 45 8c             	mov    -0x74(%ebp),%eax
    1a7f:	f7 e9                	imul   %ecx
    1a81:	c1 fa 03             	sar    $0x3,%edx
    1a84:	89 c8                	mov    %ecx,%eax
    1a86:	c1 f8 1f             	sar    $0x1f,%eax
    1a89:	29 c2                	sub    %eax,%edx
    1a8b:	89 d0                	mov    %edx,%eax
    1a8d:	c1 e0 02             	shl    $0x2,%eax
    1a90:	01 d0                	add    %edx,%eax
    1a92:	c1 e0 02             	shl    $0x2,%eax
    1a95:	89 ca                	mov    %ecx,%edx
    1a97:	29 c2                	sub    %eax,%edx
    1a99:	89 d0                	mov    %edx,%eax
    1a9b:	89 45 e4             	mov    %eax,-0x1c(%ebp)
    1a9e:	e9 a4 00 00 00       	jmp    0x1b47
    1aa3:	83 45 e8 13          	addl   $0x13,-0x18(%ebp)
    1aa7:	8b 4d e8             	mov    -0x18(%ebp),%ecx
    1aaa:	c7 45 8c 67 66 66 66 	movl   $0x66666667,-0x74(%ebp)
    1ab1:	8b 45 8c             	mov    -0x74(%ebp),%eax
    1ab4:	f7 e9                	imul   %ecx
    1ab6:	c1 fa 03             	sar    $0x3,%edx
    1ab9:	89 c8                	mov    %ecx,%eax
    1abb:	c1 f8 1f             	sar    $0x1f,%eax
    1abe:	29 c2                	sub    %eax,%edx
    1ac0:	89 d0                	mov    %edx,%eax
    1ac2:	c1 e0 02             	shl    $0x2,%eax
    1ac5:	01 d0                	add    %edx,%eax
    1ac7:	c1 e0 02             	shl    $0x2,%eax
    1aca:	89 ca                	mov    %ecx,%edx
    1acc:	29 c2                	sub    %eax,%edx
    1ace:	89 d0                	mov    %edx,%eax
    1ad0:	89 45 e8             	mov    %eax,-0x18(%ebp)
    1ad3:	eb 72                	jmp    0x1b47
    1ad5:	83 45 e4 01          	addl   $0x1,-0x1c(%ebp)
    1ad9:	8b 4d e4             	mov    -0x1c(%ebp),%ecx
    1adc:	c7 45 8c 67 66 66 66 	movl   $0x66666667,-0x74(%ebp)
    1ae3:	8b 45 8c             	mov    -0x74(%ebp),%eax
    1ae6:	f7 e9                	imul   %ecx
    1ae8:	c1 fa 03             	sar    $0x3,%edx
    1aeb:	89 c8                	mov    %ecx,%eax
    1aed:	c1 f8 1f             	sar    $0x1f,%eax
    1af0:	29 c2                	sub    %eax,%edx
    1af2:	89 d0                	mov    %edx,%eax
    1af4:	c1 e0 02             	shl    $0x2,%eax
    1af7:	01 d0                	add    %edx,%eax
    1af9:	c1 e0 02             	shl    $0x2,%eax
    1afc:	89 ca                	mov    %ecx,%edx
    1afe:	29 c2                	sub    %eax,%edx
    1b00:	89 d0                	mov    %edx,%eax
    1b02:	89 45 e4             	mov    %eax,-0x1c(%ebp)
    1b05:	eb 40                	jmp    0x1b47
    1b07:	83 45 e8 01          	addl   $0x1,-0x18(%ebp)
    1b0b:	8b 4d e8             	mov    -0x18(%ebp),%ecx
    1b0e:	c7 45 8c 67 66 66 66 	movl   $0x66666667,-0x74(%ebp)
    1b15:	8b 45 8c             	mov    -0x74(%ebp),%eax
    1b18:	f7 e9                	imul   %ecx
    1b1a:	c1 fa 03             	sar    $0x3,%edx
    1b1d:	89 c8                	mov    %ecx,%eax
    1b1f:	c1 f8 1f             	sar    $0x1f,%eax
    1b22:	29 c2                	sub    %eax,%edx
    1b24:	89 d0                	mov    %edx,%eax
    1b26:	c1 e0 02             	shl    $0x2,%eax
    1b29:	01 d0                	add    %edx,%eax
    1b2b:	c1 e0 02             	shl    $0x2,%eax
    1b2e:	89 ca                	mov    %ecx,%edx
    1b30:	29 c2                	sub    %eax,%edx
    1b32:	89 d0                	mov    %edx,%eax
    1b34:	89 45 e8             	mov    %eax,-0x18(%ebp)
    1b37:	eb 0e                	jmp    0x1b47
    1b39:	c7 04 24 92 42 00 01 	movl   $0x1004292,(%esp)
    1b40:	e8 b7 15 00 00       	call   0x30fc
    1b45:	eb fe                	jmp    0x1b45
    1b47:	8b 55 e4             	mov    -0x1c(%ebp),%edx
    1b4a:	8b 4d e8             	mov    -0x18(%ebp),%ecx
    1b4d:	89 d0                	mov    %edx,%eax
    1b4f:	c1 e0 02             	shl    $0x2,%eax
    1b52:	01 d0                	add    %edx,%eax
    1b54:	c1 e0 02             	shl    $0x2,%eax
    1b57:	01 c8                	add    %ecx,%eax
    1b59:	8b 04 85 40 ff 0e 01 	mov    0x10eff40(,%eax,4),%eax
    1b60:	83 f8 05             	cmp    $0x5,%eax
    1b63:	0f 85 70 fe ff ff    	jne    0x19d9
    1b69:	8b 55 e4             	mov    -0x1c(%ebp),%edx
    1b6c:	8b 4d e8             	mov    -0x18(%ebp),%ecx
    1b6f:	89 d0                	mov    %edx,%eax
    1b71:	c1 e0 02             	shl    $0x2,%eax
    1b74:	01 d0                	add    %edx,%eax
    1b76:	c1 e0 02             	shl    $0x2,%eax
    1b79:	01 c8                	add    %ecx,%eax
    1b7b:	c7 04 85 40 ff 0e 01 	movl   $0x0,0x10eff40(,%eax,4)
    1b82:	00 00 00 00 
    1b86:	8b 55 ec             	mov    -0x14(%ebp),%edx
    1b89:	8b 4d f0             	mov    -0x10(%ebp),%ecx
    1b8c:	89 d0                	mov    %edx,%eax
    1b8e:	c1 e0 02             	shl    $0x2,%eax
    1b91:	01 d0                	add    %edx,%eax
    1b93:	c1 e0 02             	shl    $0x2,%eax
    1b96:	01 c8                	add    %ecx,%eax
    1b98:	c7 04 85 40 ff 0e 01 	movl   $0x5,0x10eff40(,%eax,4)
    1b9f:	05 00 00 00 
    1ba3:	83 ec 80             	sub    $0xffffff80,%esp
    1ba6:	5b                   	pop    %ebx
    1ba7:	5e                   	pop    %esi
    1ba8:	5d                   	pop    %ebp
    1ba9:	c3                   	ret    
    1baa:	55                   	push   %ebp
    1bab:	89 e5                	mov    %esp,%ebp
    1bad:	83 ec 08             	sub    $0x8,%esp
    1bb0:	8b 45 08             	mov    0x8(%ebp),%eax
    1bb3:	89 04 24             	mov    %eax,(%esp)
    1bb6:	e8 ff f7 ff ff       	call   0x13ba
    1bbb:	8b 45 08             	mov    0x8(%ebp),%eax
    1bbe:	89 04 24             	mov    %eax,(%esp)
    1bc1:	e8 64 e6 ff ff       	call   0x22a
    1bc6:	8b 45 08             	mov    0x8(%ebp),%eax
    1bc9:	89 04 24             	mov    %eax,(%esp)
    1bcc:	e8 d0 e9 ff ff       	call   0x5a1
    1bd1:	c9                   	leave  
    1bd2:	c3                   	ret    
    1bd3:	55                   	push   %ebp
    1bd4:	89 e5                	mov    %esp,%ebp
    1bd6:	83 ec 48             	sub    $0x48,%esp
    1bd9:	e9 ce 00 00 00       	jmp    0x1cac
    1bde:	8b 45 e4             	mov    -0x1c(%ebp),%eax
    1be1:	89 45 fc             	mov    %eax,-0x4(%ebp)
    1be4:	8b 45 dc             	mov    -0x24(%ebp),%eax
    1be7:	89 c2                	mov    %eax,%edx
    1be9:	83 e2 fe             	and    $0xfffffffe,%edx
    1bec:	89 55 cc             	mov    %edx,-0x34(%ebp)
    1bef:	81 7d cc a6 0f 00 00 	cmpl   $0xfa6,-0x34(%ebp)
    1bf6:	74 5d                	je     0x1c55
    1bf8:	81 7d cc a6 0f 00 00 	cmpl   $0xfa6,-0x34(%ebp)
    1bff:	7f 0e                	jg     0x1c0f
    1c01:	81 7d cc a4 0f 00 00 	cmpl   $0xfa4,-0x34(%ebp)
    1c08:	74 1c                	je     0x1c26
    1c0a:	e9 9d 00 00 00       	jmp    0x1cac
    1c0f:	81 7d cc a8 0f 00 00 	cmpl   $0xfa8,-0x34(%ebp)
    1c16:	74 62                	je     0x1c7a
    1c18:	81 7d cc aa 0f 00 00 	cmpl   $0xfaa,-0x34(%ebp)
    1c1f:	74 6a                	je     0x1c8b
    1c21:	e9 86 00 00 00       	jmp    0x1cac
    1c26:	8b 45 e8             	mov    -0x18(%ebp),%eax
    1c29:	83 f8 71             	cmp    $0x71,%eax
    1c2c:	75 13                	jne    0x1c41
    1c2e:	8b 45 fc             	mov    -0x4(%ebp),%eax
    1c31:	89 04 24             	mov    %eax,(%esp)
    1c34:	e8 5c e5 ff ff       	call   0x195
    1c39:	85 c0                	test   %eax,%eax
    1c3b:	0f 85 8e 00 00 00    	jne    0x1ccf
    1c41:	8b 45 e8             	mov    -0x18(%ebp),%eax
    1c44:	89 44 24 04          	mov    %eax,0x4(%esp)
    1c48:	8b 45 fc             	mov    -0x4(%ebp),%eax
    1c4b:	89 04 24             	mov    %eax,(%esp)
    1c4e:	e8 7e ea ff ff       	call   0x6d1
    1c53:	eb 57                	jmp    0x1cac
    1c55:	8b 45 e8             	mov    -0x18(%ebp),%eax
    1c58:	a3 40 44 00 01       	mov    %eax,0x1004440
    1c5d:	8b 45 ec             	mov    -0x14(%ebp),%eax
    1c60:	a3 44 44 00 01       	mov    %eax,0x1004444
    1c65:	8b 45 f0             	mov    -0x10(%ebp),%eax
    1c68:	a3 48 44 00 01       	mov    %eax,0x1004448
    1c6d:	8b 45 fc             	mov    -0x4(%ebp),%eax
    1c70:	89 04 24             	mov    %eax,(%esp)
    1c73:	e8 29 e9 ff ff       	call   0x5a1
    1c78:	eb 32                	jmp    0x1cac
    1c7a:	8b 45 fc             	mov    -0x4(%ebp),%eax
    1c7d:	89 04 24             	mov    %eax,(%esp)
    1c80:	e8 10 e5 ff ff       	call   0x195
    1c85:	85 c0                	test   %eax,%eax
    1c87:	75 46                	jne    0x1ccf
    1c89:	eb 21                	jmp    0x1cac
    1c8b:	a1 4c 44 00 01       	mov    0x100444c,%eax
    1c90:	83 c0 01             	add    $0x1,%eax
    1c93:	a3 4c 44 00 01       	mov    %eax,0x100444c
    1c98:	a1 54 44 00 01       	mov    0x1004454,%eax
    1c9d:	85 c0                	test   %eax,%eax
    1c9f:	75 0b                	jne    0x1cac
    1ca1:	8b 45 fc             	mov    -0x4(%ebp),%eax
    1ca4:	89 04 24             	mov    %eax,(%esp)
    1ca7:	e8 fe fe ff ff       	call   0x1baa
    1cac:	c7 44 24 08 01 00 00 	movl   $0x1,0x8(%esp)
    1cb3:	00 
    1cb4:	8d 45 dc             	lea    -0x24(%ebp),%eax
    1cb7:	89 44 24 04          	mov    %eax,0x4(%esp)
    1cbb:	c7 04 24 ff ff ff ff 	movl   $0xffffffff,(%esp)
    1cc2:	e8 7b 13 00 00       	call   0x3042
    1cc7:	85 c0                	test   %eax,%eax
    1cc9:	0f 85 0f ff ff ff    	jne    0x1bde
    1ccf:	c9                   	leave  
    1cd0:	c3                   	ret    
    1cd1:	55                   	push   %ebp
    1cd2:	89 e5                	mov    %esp,%ebp
    1cd4:	83 ec 18             	sub    $0x18,%esp
    1cd7:	c7 44 24 08 40 06 00 	movl   $0x640,0x8(%esp)
    1cde:	00 
    1cdf:	c7 44 24 04 00 00 00 	movl   $0x0,0x4(%esp)
    1ce6:	00 
    1ce7:	c7 04 24 40 ff 0e 01 	movl   $0x10eff40,(%esp)
    1cee:	e8 cd 0d 00 00       	call   0x2ac0
    1cf3:	c7 05 34 02 0f 01 05 	movl   $0x5,0x10f0234
    1cfa:	00 00 00 
    1cfd:	c7 05 84 02 0f 01 01 	movl   $0x1,0x10f0284
    1d04:	00 00 00 
    1d07:	c7 05 30 ff 0e 01 0a 	movl   $0xa,0x10eff30
    1d0e:	00 00 00 
    1d11:	c7 05 80 05 0f 01 09 	movl   $0x9,0x10f0580
    1d18:	00 00 00 
    1d1b:	e8 bb e6 ff ff       	call   0x3db
    1d20:	c9                   	leave  
    1d21:	c3                   	ret    
    1d22:	8d 4c 24 04          	lea    0x4(%esp),%ecx
    1d26:	83 e4 f0             	and    $0xfffffff0,%esp
    1d29:	ff 71 fc             	pushl  -0x4(%ecx)
    1d2c:	55                   	push   %ebp
    1d2d:	89 e5                	mov    %esp,%ebp
    1d2f:	51                   	push   %ecx
    1d30:	83 ec 34             	sub    $0x34,%esp
    1d33:	c7 04 24 9a 42 00 01 	movl   $0x100429a,(%esp)
    1d3a:	e8 bd 13 00 00       	call   0x30fc
    1d3f:	c7 44 24 04 84 05 0f 	movl   $0x10f0584,0x4(%esp)
    1d46:	01 
    1d47:	c7 04 24 7e 42 00 01 	movl   $0x100427e,(%esp)
    1d4e:	e8 49 21 00 00       	call   0x3e9c
    1d53:	e8 e0 e2 ff ff       	call   0x38
    1d58:	89 04 24             	mov    %eax,(%esp)
    1d5b:	e8 07 0e 00 00       	call   0x2b67
    1d60:	c7 44 24 14 b8 42 00 	movl   $0x10042b8,0x14(%esp)
    1d67:	01 
    1d68:	c7 44 24 10 3b 01 00 	movl   $0x13b,0x10(%esp)
    1d6f:	00 
    1d70:	c7 44 24 0c 2c 01 00 	movl   $0x12c,0xc(%esp)
    1d77:	00 
    1d78:	c7 44 24 08 96 00 00 	movl   $0x96,0x8(%esp)
    1d7f:	00 
    1d80:	c7 44 24 04 fa 00 00 	movl   $0xfa,0x4(%esp)
    1d87:	00 
    1d88:	c7 04 24 00 00 00 00 	movl   $0x0,(%esp)
    1d8f:	e8 38 e3 ff ff       	call   0xcc
    1d94:	89 45 f8             	mov    %eax,-0x8(%ebp)
    1d97:	8b 45 f8             	mov    -0x8(%ebp),%eax
    1d9a:	89 44 24 04          	mov    %eax,0x4(%esp)
    1d9e:	c7 04 24 be 42 00 01 	movl   $0x10042be,(%esp)
    1da5:	e8 52 13 00 00       	call   0x30fc
    1daa:	c7 04 24 80 54 00 01 	movl   $0x1005480,(%esp)
    1db1:	e8 6a 00 00 00       	call   0x1e20
    1db6:	e8 16 ff ff ff       	call   0x1cd1
    1dbb:	c7 44 24 14 3b 01 00 	movl   $0x13b,0x14(%esp)
    1dc2:	00 
    1dc3:	c7 44 24 10 2c 01 00 	movl   $0x12c,0x10(%esp)
    1dca:	00 
    1dcb:	c7 44 24 0c 00 00 00 	movl   $0x0,0xc(%esp)
    1dd2:	00 
    1dd3:	c7 44 24 08 00 00 00 	movl   $0x0,0x8(%esp)
    1dda:	00 
    1ddb:	c7 44 24 04 80 54 00 	movl   $0x1005480,0x4(%esp)
    1de2:	01 
    1de3:	8b 45 f8             	mov    -0x8(%ebp),%eax
    1de6:	89 04 24             	mov    %eax,(%esp)
    1de9:	e8 5f e3 ff ff       	call   0x14d
    1dee:	c7 44 24 04 01 00 00 	movl   $0x1,0x4(%esp)
    1df5:	00 
    1df6:	8b 45 f8             	mov    -0x8(%ebp),%eax
    1df9:	89 04 24             	mov    %eax,(%esp)
    1dfc:	e8 f9 e3 ff ff       	call   0x1fa
    1e01:	e8 cd fd ff ff       	call   0x1bd3
    1e06:	c7 04 24 c8 42 00 01 	movl   $0x10042c8,(%esp)
    1e0d:	e8 ea 12 00 00       	call   0x30fc
    1e12:	b8 00 00 00 00       	mov    $0x0,%eax
    1e17:	83 c4 34             	add    $0x34,%esp
    1e1a:	59                   	pop    %ecx
    1e1b:	5d                   	pop    %ebp
    1e1c:	8d 61 fc             	lea    -0x4(%ecx),%esp
    1e1f:	c3                   	ret    
    1e20:	83 ec 0c             	sub    $0xc,%esp
    1e23:	c7 04 24 88 05 0f 01 	movl   $0x10f0588,(%esp)
    1e2a:	e8 e1 10 00 00       	call   0x2f10
    1e2f:	a1 90 05 0f 01       	mov    0x10f0590,%eax
    1e34:	83 f8 10             	cmp    $0x10,%eax
    1e37:	74 16                	je     0x1e4f
    1e39:	c7 04 24 df 42 00 01 	movl   $0x10042df,(%esp)
    1e40:	e8 b7 12 00 00       	call   0x30fc
    1e45:	c7 44 24 08 00 00 00 	movl   $0x0,0x8(%esp)
    1e4c:	00 
    1e4d:	eb 31                	jmp    0x1e80
    1e4f:	8b 44 24 10          	mov    0x10(%esp),%eax
    1e53:	a3 98 05 0f 01       	mov    %eax,0x10f0598
    1e58:	c7 44 24 04 60 44 00 	movl   $0x1004460,0x4(%esp)
    1e5f:	01 
    1e60:	c7 04 24 ea 42 00 01 	movl   $0x10042ea,(%esp)
    1e67:	e8 58 11 00 00       	call   0x2fc4
    1e6c:	c7 04 24 04 00 00 00 	movl   $0x4,(%esp)
    1e73:	e8 d4 10 00 00       	call   0x2f4c
    1e78:	c7 44 24 08 01 00 00 	movl   $0x1,0x8(%esp)
    1e7f:	00 
    1e80:	8b 44 24 08          	mov    0x8(%esp),%eax
    1e84:	83 c4 0c             	add    $0xc,%esp
    1e87:	c3                   	ret    
    1e88:	83 ec 04             	sub    $0x4,%esp
    1e8b:	8b 44 24 10          	mov    0x10(%esp),%eax
    1e8f:	66 89 04 24          	mov    %ax,(%esp)
    1e93:	a1 88 05 0f 01       	mov    0x10f0588,%eax
    1e98:	3b 44 24 08          	cmp    0x8(%esp),%eax
    1e9c:	76 2a                	jbe    0x1ec8
    1e9e:	a1 8c 05 0f 01       	mov    0x10f058c,%eax
    1ea3:	3b 44 24 0c          	cmp    0xc(%esp),%eax
    1ea7:	76 1f                	jbe    0x1ec8
    1ea9:	8b 15 98 05 0f 01    	mov    0x10f0598,%edx
    1eaf:	a1 88 05 0f 01       	mov    0x10f0588,%eax
    1eb4:	0f af 44 24 0c       	imul   0xc(%esp),%eax
    1eb9:	03 44 24 08          	add    0x8(%esp),%eax
    1ebd:	01 c0                	add    %eax,%eax
    1ebf:	01 c2                	add    %eax,%edx
    1ec1:	0f b7 04 24          	movzwl (%esp),%eax
    1ec5:	66 89 02             	mov    %ax,(%edx)
    1ec8:	83 c4 04             	add    $0x4,%esp
    1ecb:	c3                   	ret    
    1ecc:	83 ec 04             	sub    $0x4,%esp
    1ecf:	a1 88 05 0f 01       	mov    0x10f0588,%eax
    1ed4:	3b 44 24 08          	cmp    0x8(%esp),%eax
    1ed8:	77 09                	ja     0x1ee3
    1eda:	66 c7 44 24 02 00 00 	movw   $0x0,0x2(%esp)
    1ee1:	eb 35                	jmp    0x1f18
    1ee3:	a1 8c 05 0f 01       	mov    0x10f058c,%eax
    1ee8:	3b 44 24 0c          	cmp    0xc(%esp),%eax
    1eec:	77 09                	ja     0x1ef7
    1eee:	66 c7 44 24 02 00 00 	movw   $0x0,0x2(%esp)
    1ef5:	eb 21                	jmp    0x1f18
    1ef7:	8b 15 98 05 0f 01    	mov    0x10f0598,%edx
    1efd:	a1 88 05 0f 01       	mov    0x10f0588,%eax
    1f02:	0f af 44 24 0c       	imul   0xc(%esp),%eax
    1f07:	03 44 24 08          	add    0x8(%esp),%eax
    1f0b:	01 c0                	add    %eax,%eax
    1f0d:	8d 04 02             	lea    (%edx,%eax,1),%eax
    1f10:	0f b7 00             	movzwl (%eax),%eax
    1f13:	66 89 44 24 02       	mov    %ax,0x2(%esp)
    1f18:	0f b7 44 24 02       	movzwl 0x2(%esp),%eax
    1f1d:	83 c4 04             	add    $0x4,%esp
    1f20:	c3                   	ret    
    1f21:	57                   	push   %edi
    1f22:	83 ec 14             	sub    $0x14,%esp
    1f25:	8b 44 24 2c          	mov    0x2c(%esp),%eax
    1f29:	66 89 04 24          	mov    %ax,(%esp)
    1f2d:	a1 88 05 0f 01       	mov    0x10f0588,%eax
    1f32:	3b 44 24 1c          	cmp    0x1c(%esp),%eax
    1f36:	0f 86 98 00 00 00    	jbe    0x1fd4
    1f3c:	a1 8c 05 0f 01       	mov    0x10f058c,%eax
    1f41:	3b 44 24 20          	cmp    0x20(%esp),%eax
    1f45:	0f 86 89 00 00 00    	jbe    0x1fd4
    1f4b:	a1 88 05 0f 01       	mov    0x10f0588,%eax
    1f50:	3b 44 24 24          	cmp    0x24(%esp),%eax
    1f54:	76 7e                	jbe    0x1fd4
    1f56:	a1 8c 05 0f 01       	mov    0x10f058c,%eax
    1f5b:	3b 44 24 28          	cmp    0x28(%esp),%eax
    1f5f:	76 73                	jbe    0x1fd4
    1f61:	8b 44 24 1c          	mov    0x1c(%esp),%eax
    1f65:	3b 44 24 24          	cmp    0x24(%esp),%eax
    1f69:	77 69                	ja     0x1fd4
    1f6b:	8b 44 24 20          	mov    0x20(%esp),%eax
    1f6f:	3b 44 24 28          	cmp    0x28(%esp),%eax
    1f73:	77 5f                	ja     0x1fd4
    1f75:	8b 15 98 05 0f 01    	mov    0x10f0598,%edx
    1f7b:	a1 88 05 0f 01       	mov    0x10f0588,%eax
    1f80:	0f af 44 24 20       	imul   0x20(%esp),%eax
    1f85:	03 44 24 1c          	add    0x1c(%esp),%eax
    1f89:	01 c0                	add    %eax,%eax
    1f8b:	8d 04 02             	lea    (%edx,%eax,1),%eax
    1f8e:	89 44 24 0c          	mov    %eax,0xc(%esp)
    1f92:	8b 54 24 1c          	mov    0x1c(%esp),%edx
    1f96:	8b 44 24 24          	mov    0x24(%esp),%eax
    1f9a:	29 d0                	sub    %edx,%eax
    1f9c:	89 44 24 10          	mov    %eax,0x10(%esp)
    1fa0:	fc                   	cld    
    1fa1:	8b 44 24 20          	mov    0x20(%esp),%eax
    1fa5:	89 44 24 08          	mov    %eax,0x8(%esp)
    1fa9:	eb 1f                	jmp    0x1fca
    1fab:	8b 4c 24 10          	mov    0x10(%esp),%ecx
    1faf:	0f b7 04 24          	movzwl (%esp),%eax
    1fb3:	8b 7c 24 0c          	mov    0xc(%esp),%edi
    1fb7:	f3 66 ab             	rep stos %ax,%es:(%edi)
    1fba:	a1 88 05 0f 01       	mov    0x10f0588,%eax
    1fbf:	01 c0                	add    %eax,%eax
    1fc1:	01 44 24 0c          	add    %eax,0xc(%esp)
    1fc5:	83 44 24 08 01       	addl   $0x1,0x8(%esp)
    1fca:	8b 44 24 08          	mov    0x8(%esp),%eax
    1fce:	3b 44 24 28          	cmp    0x28(%esp),%eax
    1fd2:	76 d7                	jbe    0x1fab
    1fd4:	83 c4 14             	add    $0x14,%esp
    1fd7:	5f                   	pop    %edi
    1fd8:	c3                   	ret    
    1fd9:	57                   	push   %edi
    1fda:	83 ec 04             	sub    $0x4,%esp
    1fdd:	8b 44 24 0c          	mov    0xc(%esp),%eax
    1fe1:	66 89 04 24          	mov    %ax,(%esp)
    1fe5:	8b 15 88 05 0f 01    	mov    0x10f0588,%edx
    1feb:	a1 8c 05 0f 01       	mov    0x10f058c,%eax
    1ff0:	0f af c2             	imul   %edx,%eax
    1ff3:	89 c1                	mov    %eax,%ecx
    1ff5:	d1 f9                	sar    %ecx
    1ff7:	0f b7 04 24          	movzwl (%esp),%eax
    1ffb:	89 c2                	mov    %eax,%edx
    1ffd:	c1 e2 10             	shl    $0x10,%edx
    2000:	0f b7 04 24          	movzwl (%esp),%eax
    2004:	09 d0                	or     %edx,%eax
    2006:	8b 3d 98 05 0f 01    	mov    0x10f0598,%edi
    200c:	f3 ab                	rep stos %eax,%es:(%edi)
    200e:	83 c4 04             	add    $0x4,%esp
    2011:	5f                   	pop    %edi
    2012:	c3                   	ret    
    2013:	57                   	push   %edi
    2014:	56                   	push   %esi
    2015:	83 ec 10             	sub    $0x10,%esp
    2018:	a1 88 05 0f 01       	mov    0x10f0588,%eax
    201d:	3b 44 24 1c          	cmp    0x1c(%esp),%eax
    2021:	0f 86 a5 00 00 00    	jbe    0x20cc
    2027:	a1 8c 05 0f 01       	mov    0x10f058c,%eax
    202c:	3b 44 24 20          	cmp    0x20(%esp),%eax
    2030:	0f 86 96 00 00 00    	jbe    0x20cc
    2036:	8b 54 24 2c          	mov    0x2c(%esp),%edx
    203a:	8b 44 24 1c          	mov    0x1c(%esp),%eax
    203e:	8d 14 10             	lea    (%eax,%edx,1),%edx
    2041:	a1 88 05 0f 01       	mov    0x10f0588,%eax
    2046:	39 c2                	cmp    %eax,%edx
    2048:	72 0d                	jb     0x2057
    204a:	a1 88 05 0f 01       	mov    0x10f0588,%eax
    204f:	2b 44 24 1c          	sub    0x1c(%esp),%eax
    2053:	89 44 24 2c          	mov    %eax,0x2c(%esp)
    2057:	8b 54 24 30          	mov    0x30(%esp),%edx
    205b:	8b 44 24 20          	mov    0x20(%esp),%eax
    205f:	8d 14 10             	lea    (%eax,%edx,1),%edx
    2062:	a1 8c 05 0f 01       	mov    0x10f058c,%eax
    2067:	39 c2                	cmp    %eax,%edx
    2069:	72 0d                	jb     0x2078
    206b:	a1 8c 05 0f 01       	mov    0x10f058c,%eax
    2070:	2b 44 24 20          	sub    0x20(%esp),%eax
    2074:	89 44 24 30          	mov    %eax,0x30(%esp)
    2078:	a1 88 05 0f 01       	mov    0x10f0588,%eax
    207d:	0f af 44 24 20       	imul   0x20(%esp),%eax
    2082:	03 44 24 1c          	add    0x1c(%esp),%eax
    2086:	89 44 24 0c          	mov    %eax,0xc(%esp)
    208a:	fc                   	cld    
    208b:	c7 44 24 08 00 00 00 	movl   $0x0,0x8(%esp)
    2092:	00 
    2093:	eb 2d                	jmp    0x20c2
    2095:	8b 44 24 0c          	mov    0xc(%esp),%eax
    2099:	01 c0                	add    %eax,%eax
    209b:	89 c6                	mov    %eax,%esi
    209d:	03 74 24 24          	add    0x24(%esp),%esi
    20a1:	8b 44 24 0c          	mov    0xc(%esp),%eax
    20a5:	01 c0                	add    %eax,%eax
    20a7:	89 c7                	mov    %eax,%edi
    20a9:	03 7c 24 28          	add    0x28(%esp),%edi
    20ad:	8b 4c 24 2c          	mov    0x2c(%esp),%ecx
    20b1:	f3 66 a5             	rep movsw %ds:(%esi),%es:(%edi)
    20b4:	a1 88 05 0f 01       	mov    0x10f0588,%eax
    20b9:	01 44 24 0c          	add    %eax,0xc(%esp)
    20bd:	83 44 24 08 01       	addl   $0x1,0x8(%esp)
    20c2:	8b 44 24 08          	mov    0x8(%esp),%eax
    20c6:	3b 44 24 30          	cmp    0x30(%esp),%eax
    20ca:	72 c9                	jb     0x2095
    20cc:	83 c4 10             	add    $0x10,%esp
    20cf:	5e                   	pop    %esi
    20d0:	5f                   	pop    %edi
    20d1:	c3                   	ret    
    20d2:	57                   	push   %edi
    20d3:	56                   	push   %esi
    20d4:	83 ec 10             	sub    $0x10,%esp
    20d7:	a1 88 05 0f 01       	mov    0x10f0588,%eax
    20dc:	3b 44 24 1c          	cmp    0x1c(%esp),%eax
    20e0:	0f 86 a9 00 00 00    	jbe    0x218f
    20e6:	a1 8c 05 0f 01       	mov    0x10f058c,%eax
    20eb:	3b 44 24 20          	cmp    0x20(%esp),%eax
    20ef:	0f 86 9a 00 00 00    	jbe    0x218f
    20f5:	8b 54 24 2c          	mov    0x2c(%esp),%edx
    20f9:	8b 44 24 1c          	mov    0x1c(%esp),%eax
    20fd:	8d 14 10             	lea    (%eax,%edx,1),%edx
    2100:	a1 88 05 0f 01       	mov    0x10f0588,%eax
    2105:	39 c2                	cmp    %eax,%edx
    2107:	72 0d                	jb     0x2116
    2109:	a1 88 05 0f 01       	mov    0x10f0588,%eax
    210e:	2b 44 24 1c          	sub    0x1c(%esp),%eax
    2112:	89 44 24 2c          	mov    %eax,0x2c(%esp)
    2116:	8b 54 24 30          	mov    0x30(%esp),%edx
    211a:	8b 44 24 20          	mov    0x20(%esp),%eax
    211e:	8d 14 10             	lea    (%eax,%edx,1),%edx
    2121:	a1 8c 05 0f 01       	mov    0x10f058c,%eax
    2126:	39 c2                	cmp    %eax,%edx
    2128:	72 0d                	jb     0x2137
    212a:	a1 8c 05 0f 01       	mov    0x10f058c,%eax
    212f:	2b 44 24 20          	sub    0x20(%esp),%eax
    2133:	89 44 24 30          	mov    %eax,0x30(%esp)
    2137:	c7 44 24 0c 00 00 00 	movl   $0x0,0xc(%esp)
    213e:	00 
    213f:	fc                   	cld    
    2140:	c7 44 24 08 00 00 00 	movl   $0x0,0x8(%esp)
    2147:	00 
    2148:	eb 3b                	jmp    0x2185
    214a:	8b 44 24 0c          	mov    0xc(%esp),%eax
    214e:	01 c0                	add    %eax,%eax
    2150:	89 c6                	mov    %eax,%esi
    2152:	03 74 24 24          	add    0x24(%esp),%esi
    2156:	a1 88 05 0f 01       	mov    0x10f0588,%eax
    215b:	0f af 44 24 20       	imul   0x20(%esp),%eax
    2160:	03 44 24 1c          	add    0x1c(%esp),%eax
    2164:	03 44 24 0c          	add    0xc(%esp),%eax
    2168:	01 c0                	add    %eax,%eax
    216a:	89 c7                	mov    %eax,%edi
    216c:	03 7c 24 28          	add    0x28(%esp),%edi
    2170:	8b 4c 24 2c          	mov    0x2c(%esp),%ecx
    2174:	f3 66 a5             	rep movsw %ds:(%esi),%es:(%edi)
    2177:	a1 88 05 0f 01       	mov    0x10f0588,%eax
    217c:	01 44 24 0c          	add    %eax,0xc(%esp)
    2180:	83 44 24 08 01       	addl   $0x1,0x8(%esp)
    2185:	8b 44 24 08          	mov    0x8(%esp),%eax
    2189:	3b 44 24 30          	cmp    0x30(%esp),%eax
    218d:	72 bb                	jb     0x214a
    218f:	83 c4 10             	add    $0x10,%esp
    2192:	5e                   	pop    %esi
    2193:	5f                   	pop    %edi
    2194:	c3                   	ret    
    2195:	83 ec 14             	sub    $0x14,%esp
    2198:	8b 44 24 30          	mov    0x30(%esp),%eax
    219c:	66 89 04 24          	mov    %ax,(%esp)
    21a0:	a1 88 05 0f 01       	mov    0x10f0588,%eax
    21a5:	3b 44 24 18          	cmp    0x18(%esp),%eax
    21a9:	0f 86 dc 00 00 00    	jbe    0x228b
    21af:	a1 8c 05 0f 01       	mov    0x10f058c,%eax
    21b4:	3b 44 24 1c          	cmp    0x1c(%esp),%eax
    21b8:	0f 86 cd 00 00 00    	jbe    0x228b
    21be:	8b 54 24 28          	mov    0x28(%esp),%edx
    21c2:	8b 44 24 18          	mov    0x18(%esp),%eax
    21c6:	8d 14 10             	lea    (%eax,%edx,1),%edx
    21c9:	a1 88 05 0f 01       	mov    0x10f0588,%eax
    21ce:	39 c2                	cmp    %eax,%edx
    21d0:	72 0d                	jb     0x21df
    21d2:	a1 88 05 0f 01       	mov    0x10f0588,%eax
    21d7:	2b 44 24 18          	sub    0x18(%esp),%eax
    21db:	89 44 24 28          	mov    %eax,0x28(%esp)
    21df:	8b 54 24 2c          	mov    0x2c(%esp),%edx
    21e3:	8b 44 24 1c          	mov    0x1c(%esp),%eax
    21e7:	8d 14 10             	lea    (%eax,%edx,1),%edx
    21ea:	a1 8c 05 0f 01       	mov    0x10f058c,%eax
    21ef:	39 c2                	cmp    %eax,%edx
    21f1:	72 0d                	jb     0x2200
    21f3:	a1 8c 05 0f 01       	mov    0x10f058c,%eax
    21f8:	2b 44 24 1c          	sub    0x1c(%esp),%eax
    21fc:	89 44 24 2c          	mov    %eax,0x2c(%esp)
    2200:	a1 88 05 0f 01       	mov    0x10f0588,%eax
    2205:	0f af 44 24 1c       	imul   0x1c(%esp),%eax
    220a:	03 44 24 18          	add    0x18(%esp),%eax
    220e:	01 c0                	add    %eax,%eax
    2210:	01 44 24 24          	add    %eax,0x24(%esp)
    2214:	c7 44 24 0c 00 00 00 	movl   $0x0,0xc(%esp)
    221b:	00 
    221c:	eb 63                	jmp    0x2281
    221e:	c7 44 24 10 00 00 00 	movl   $0x0,0x10(%esp)
    2225:	00 
    2226:	eb 34                	jmp    0x225c
    2228:	8b 44 24 10          	mov    0x10(%esp),%eax
    222c:	01 c0                	add    %eax,%eax
    222e:	03 44 24 20          	add    0x20(%esp),%eax
    2232:	0f b7 00             	movzwl (%eax),%eax
    2235:	66 3b 04 24          	cmp    (%esp),%ax
    2239:	74 1c                	je     0x2257
    223b:	8b 44 24 10          	mov    0x10(%esp),%eax
    223f:	01 c0                	add    %eax,%eax
    2241:	89 c2                	mov    %eax,%edx
    2243:	03 54 24 24          	add    0x24(%esp),%edx
    2247:	8b 44 24 10          	mov    0x10(%esp),%eax
    224b:	01 c0                	add    %eax,%eax
    224d:	03 44 24 20          	add    0x20(%esp),%eax
    2251:	0f b7 00             	movzwl (%eax),%eax
    2254:	66 89 02             	mov    %ax,(%edx)
    2257:	83 44 24 10 01       	addl   $0x1,0x10(%esp)
    225c:	8b 44 24 10          	mov    0x10(%esp),%eax
    2260:	3b 44 24 28          	cmp    0x28(%esp),%eax
    2264:	72 c2                	jb     0x2228
    2266:	a1 88 05 0f 01       	mov    0x10f0588,%eax
    226b:	01 c0                	add    %eax,%eax
    226d:	01 44 24 20          	add    %eax,0x20(%esp)
    2271:	a1 88 05 0f 01       	mov    0x10f0588,%eax
    2276:	01 c0                	add    %eax,%eax
    2278:	01 44 24 24          	add    %eax,0x24(%esp)
    227c:	83 44 24 0c 01       	addl   $0x1,0xc(%esp)
    2281:	8b 44 24 0c          	mov    0xc(%esp),%eax
    2285:	3b 44 24 2c          	cmp    0x2c(%esp),%eax
    2289:	72 93                	jb     0x221e
    228b:	83 c4 14             	add    $0x14,%esp
    228e:	c3                   	ret    
    228f:	57                   	push   %edi
    2290:	56                   	push   %esi
    2291:	8b 15 88 05 0f 01    	mov    0x10f0588,%edx
    2297:	a1 8c 05 0f 01       	mov    0x10f058c,%eax
    229c:	0f af d0             	imul   %eax,%edx
    229f:	89 d0                	mov    %edx,%eax
    22a1:	c1 e8 1f             	shr    $0x1f,%eax
    22a4:	01 d0                	add    %edx,%eax
    22a6:	d1 f8                	sar    %eax
    22a8:	89 c1                	mov    %eax,%ecx
    22aa:	8b 74 24 0c          	mov    0xc(%esp),%esi
    22ae:	8b 7c 24 10          	mov    0x10(%esp),%edi
    22b2:	fc                   	cld    
    22b3:	f3 a5                	rep movsl %ds:(%esi),%es:(%edi)
    22b5:	5e                   	pop    %esi
    22b6:	5f                   	pop    %edi
    22b7:	c3                   	ret    
    22b8:	57                   	push   %edi
    22b9:	83 ec 04             	sub    $0x4,%esp
    22bc:	8b 44 24 18          	mov    0x18(%esp),%eax
    22c0:	66 89 04 24          	mov    %ax,(%esp)
    22c4:	8b 44 24 10          	mov    0x10(%esp),%eax
    22c8:	3b 44 24 14          	cmp    0x14(%esp),%eax
    22cc:	77 2d                	ja     0x22fb
    22ce:	8b 54 24 10          	mov    0x10(%esp),%edx
    22d2:	8b 44 24 14          	mov    0x14(%esp),%eax
    22d6:	89 c1                	mov    %eax,%ecx
    22d8:	29 d1                	sub    %edx,%ecx
    22da:	8b 15 98 05 0f 01    	mov    0x10f0598,%edx
    22e0:	a1 88 05 0f 01       	mov    0x10f0588,%eax
    22e5:	0f af 44 24 0c       	imul   0xc(%esp),%eax
    22ea:	03 44 24 10          	add    0x10(%esp),%eax
    22ee:	01 c0                	add    %eax,%eax
    22f0:	8d 3c 02             	lea    (%edx,%eax,1),%edi
    22f3:	0f b7 04 24          	movzwl (%esp),%eax
    22f7:	fc                   	cld    
    22f8:	f3 66 ab             	rep stos %ax,%es:(%edi)
    22fb:	83 c4 04             	add    $0x4,%esp
    22fe:	5f                   	pop    %edi
    22ff:	c3                   	ret    
    2300:	83 ec 20             	sub    $0x20,%esp
    2303:	8b 44 24 30          	mov    0x30(%esp),%eax
    2307:	66 89 44 24 0c       	mov    %ax,0xc(%esp)
    230c:	8b 44 24 28          	mov    0x28(%esp),%eax
    2310:	89 44 24 1c          	mov    %eax,0x1c(%esp)
    2314:	eb 22                	jmp    0x2338
    2316:	0f b7 44 24 0c       	movzwl 0xc(%esp),%eax
    231b:	8b 54 24 1c          	mov    0x1c(%esp),%edx
    231f:	89 44 24 08          	mov    %eax,0x8(%esp)
    2323:	89 54 24 04          	mov    %edx,0x4(%esp)
    2327:	8b 44 24 24          	mov    0x24(%esp),%eax
    232b:	89 04 24             	mov    %eax,(%esp)
    232e:	e8 55 fb ff ff       	call   0x1e88
    2333:	83 44 24 1c 01       	addl   $0x1,0x1c(%esp)
    2338:	8b 44 24 1c          	mov    0x1c(%esp),%eax
    233c:	3b 44 24 2c          	cmp    0x2c(%esp),%eax
    2340:	76 d4                	jbe    0x2316
    2342:	83 c4 20             	add    $0x20,%esp
    2345:	c3                   	ret    
    2346:	83 ec 18             	sub    $0x18,%esp
    2349:	8b 44 24 2c          	mov    0x2c(%esp),%eax
    234d:	66 89 44 24 14       	mov    %ax,0x14(%esp)
    2352:	0f b7 44 24 14       	movzwl 0x14(%esp),%eax
    2357:	89 44 24 0c          	mov    %eax,0xc(%esp)
    235b:	8b 44 24 24          	mov    0x24(%esp),%eax
    235f:	89 44 24 08          	mov    %eax,0x8(%esp)
    2363:	8b 44 24 1c          	mov    0x1c(%esp),%eax
    2367:	89 44 24 04          	mov    %eax,0x4(%esp)
    236b:	8b 44 24 20          	mov    0x20(%esp),%eax
    236f:	89 04 24             	mov    %eax,(%esp)
    2372:	e8 41 ff ff ff       	call   0x22b8
    2377:	0f b7 44 24 14       	movzwl 0x14(%esp),%eax
    237c:	89 44 24 0c          	mov    %eax,0xc(%esp)
    2380:	8b 44 24 24          	mov    0x24(%esp),%eax
    2384:	89 44 24 08          	mov    %eax,0x8(%esp)
    2388:	8b 44 24 1c          	mov    0x1c(%esp),%eax
    238c:	89 44 24 04          	mov    %eax,0x4(%esp)
    2390:	8b 44 24 28          	mov    0x28(%esp),%eax
    2394:	89 04 24             	mov    %eax,(%esp)
    2397:	e8 1c ff ff ff       	call   0x22b8
    239c:	0f b7 44 24 14       	movzwl 0x14(%esp),%eax
    23a1:	89 44 24 0c          	mov    %eax,0xc(%esp)
    23a5:	8b 44 24 28          	mov    0x28(%esp),%eax
    23a9:	89 44 24 08          	mov    %eax,0x8(%esp)
    23ad:	8b 44 24 20          	mov    0x20(%esp),%eax
    23b1:	89 44 24 04          	mov    %eax,0x4(%esp)
    23b5:	8b 44 24 1c          	mov    0x1c(%esp),%eax
    23b9:	89 04 24             	mov    %eax,(%esp)
    23bc:	e8 3f ff ff ff       	call   0x2300
    23c1:	0f b7 44 24 14       	movzwl 0x14(%esp),%eax
    23c6:	89 44 24 0c          	mov    %eax,0xc(%esp)
    23ca:	8b 44 24 28          	mov    0x28(%esp),%eax
    23ce:	89 44 24 08          	mov    %eax,0x8(%esp)
    23d2:	8b 44 24 20          	mov    0x20(%esp),%eax
    23d6:	89 44 24 04          	mov    %eax,0x4(%esp)
    23da:	8b 44 24 24          	mov    0x24(%esp),%eax
    23de:	89 04 24             	mov    %eax,(%esp)
    23e1:	e8 1a ff ff ff       	call   0x2300
    23e6:	83 7c 24 30 00       	cmpl   $0x0,0x30(%esp)
    23eb:	74 2d                	je     0x241a
    23ed:	0f b7 44 24 14       	movzwl 0x14(%esp),%eax
    23f2:	89 44 24 10          	mov    %eax,0x10(%esp)
    23f6:	8b 44 24 28          	mov    0x28(%esp),%eax
    23fa:	89 44 24 0c          	mov    %eax,0xc(%esp)
    23fe:	8b 44 24 24          	mov    0x24(%esp),%eax
    2402:	89 44 24 08          	mov    %eax,0x8(%esp)
    2406:	8b 44 24 20          	mov    0x20(%esp),%eax
    240a:	89 44 24 04          	mov    %eax,0x4(%esp)
    240e:	8b 44 24 1c          	mov    0x1c(%esp),%eax
    2412:	89 04 24             	mov    %eax,(%esp)
    2415:	e8 07 fb ff ff       	call   0x1f21
    241a:	83 c4 18             	add    $0x18,%esp
    241d:	c3                   	ret    
    241e:	83 ec 1c             	sub    $0x1c,%esp
    2421:	8b 44 24 2c          	mov    0x2c(%esp),%eax
    2425:	66 89 44 24 18       	mov    %ax,0x18(%esp)
    242a:	eb 35                	jmp    0x2461
    242c:	0f b7 54 24 18       	movzwl 0x18(%esp),%edx
    2431:	8b 44 24 28          	mov    0x28(%esp),%eax
    2435:	0f b6 00             	movzbl (%eax),%eax
    2438:	0f be c0             	movsbl %al,%eax
    243b:	89 54 24 0c          	mov    %edx,0xc(%esp)
    243f:	89 44 24 08          	mov    %eax,0x8(%esp)
    2443:	8b 44 24 24          	mov    0x24(%esp),%eax
    2447:	89 44 24 04          	mov    %eax,0x4(%esp)
    244b:	8b 44 24 20          	mov    0x20(%esp),%eax
    244f:	89 04 24             	mov    %eax,(%esp)
    2452:	e8 1d 00 00 00       	call   0x2474
    2457:	83 44 24 20 08       	addl   $0x8,0x20(%esp)
    245c:	83 44 24 28 01       	addl   $0x1,0x28(%esp)
    2461:	8b 44 24 28          	mov    0x28(%esp),%eax
    2465:	0f b6 00             	movzbl (%eax),%eax
    2468:	84 c0                	test   %al,%al
    246a:	75 c0                	jne    0x242c
    246c:	8b 44 24 20          	mov    0x20(%esp),%eax
    2470:	83 c4 1c             	add    $0x1c,%esp
    2473:	c3                   	ret    
    2474:	53                   	push   %ebx
    2475:	83 ec 14             	sub    $0x14,%esp
    2478:	8b 44 24 28          	mov    0x28(%esp),%eax
    247c:	66 89 04 24          	mov    %ax,(%esp)
    2480:	8b 44 24 24          	mov    0x24(%esp),%eax
    2484:	c1 e0 04             	shl    $0x4,%eax
    2487:	05 60 44 00 01       	add    $0x1004460,%eax
    248c:	89 44 24 04          	mov    %eax,0x4(%esp)
    2490:	c7 44 24 10 00 00 00 	movl   $0x0,0x10(%esp)
    2497:	00 
    2498:	e9 b0 00 00 00       	jmp    0x254d
    249d:	8b 44 24 04          	mov    0x4(%esp),%eax
    24a1:	0f b6 00             	movzbl (%eax),%eax
    24a4:	88 44 24 0b          	mov    %al,0xb(%esp)
    24a8:	83 44 24 04 01       	addl   $0x1,0x4(%esp)
    24ad:	c7 44 24 0c 00 00 00 	movl   $0x0,0xc(%esp)
    24b4:	00 
    24b5:	e9 83 00 00 00       	jmp    0x253d
    24ba:	0f be 44 24 0b       	movsbl 0xb(%esp),%eax
    24bf:	83 e0 01             	and    $0x1,%eax
    24c2:	84 c0                	test   %al,%al
    24c4:	74 39                	je     0x24ff
    24c6:	8b 0d 98 05 0f 01    	mov    0x10f0598,%ecx
    24cc:	8b 44 24 10          	mov    0x10(%esp),%eax
    24d0:	89 c2                	mov    %eax,%edx
    24d2:	03 54 24 20          	add    0x20(%esp),%edx
    24d6:	a1 88 05 0f 01       	mov    0x10f0588,%eax
    24db:	0f af c2             	imul   %edx,%eax
    24de:	89 c2                	mov    %eax,%edx
    24e0:	03 54 24 1c          	add    0x1c(%esp),%edx
    24e4:	8b 44 24 0c          	mov    0xc(%esp),%eax
    24e8:	89 d3                	mov    %edx,%ebx
    24ea:	29 c3                	sub    %eax,%ebx
    24ec:	89 d8                	mov    %ebx,%eax
    24ee:	83 c0 08             	add    $0x8,%eax
    24f1:	01 c0                	add    %eax,%eax
    24f3:	8d 14 01             	lea    (%ecx,%eax,1),%edx
    24f6:	0f b7 04 24          	movzwl (%esp),%eax
    24fa:	66 89 02             	mov    %ax,(%edx)
    24fd:	eb 35                	jmp    0x2534
    24ff:	8b 0d 98 05 0f 01    	mov    0x10f0598,%ecx
    2505:	8b 44 24 10          	mov    0x10(%esp),%eax
    2509:	89 c2                	mov    %eax,%edx
    250b:	03 54 24 20          	add    0x20(%esp),%edx
    250f:	a1 88 05 0f 01       	mov    0x10f0588,%eax
    2514:	0f af c2             	imul   %edx,%eax
    2517:	89 c2                	mov    %eax,%edx
    2519:	03 54 24 1c          	add    0x1c(%esp),%edx
    251d:	8b 44 24 0c          	mov    0xc(%esp),%eax
    2521:	89 d3                	mov    %edx,%ebx
    2523:	29 c3                	sub    %eax,%ebx
    2525:	89 d8                	mov    %ebx,%eax
    2527:	83 c0 08             	add    $0x8,%eax
    252a:	01 c0                	add    %eax,%eax
    252c:	8d 04 01             	lea    (%ecx,%eax,1),%eax
    252f:	66 c7 00 ff ff       	movw   $0xffff,(%eax)
    2534:	d0 7c 24 0b          	sarb   0xb(%esp)
    2538:	83 44 24 0c 01       	addl   $0x1,0xc(%esp)
    253d:	83 7c 24 0c 07       	cmpl   $0x7,0xc(%esp)
    2542:	0f 8e 72 ff ff ff    	jle    0x24ba
    2548:	83 44 24 10 01       	addl   $0x1,0x10(%esp)
    254d:	83 7c 24 10 0f       	cmpl   $0xf,0x10(%esp)
    2552:	0f 8e 45 ff ff ff    	jle    0x249d
    2558:	83 c4 14             	add    $0x14,%esp
    255b:	5b                   	pop    %ebx
    255c:	c3                   	ret    
    255d:	83 ec 30             	sub    $0x30,%esp
    2560:	8b 44 24 40          	mov    0x40(%esp),%eax
    2564:	66 89 44 24 0c       	mov    %ax,0xc(%esp)
    2569:	8b 44 24 3c          	mov    0x3c(%esp),%eax
    256d:	89 44 24 10          	mov    %eax,0x10(%esp)
    2571:	8b 44 24 10          	mov    0x10(%esp),%eax
    2575:	8b 40 12             	mov    0x12(%eax),%eax
    2578:	89 44 24 14          	mov    %eax,0x14(%esp)
    257c:	8b 44 24 10          	mov    0x10(%esp),%eax
    2580:	8b 40 16             	mov    0x16(%eax),%eax
    2583:	89 44 24 18          	mov    %eax,0x18(%esp)
    2587:	8b 54 24 3c          	mov    0x3c(%esp),%edx
    258b:	8b 44 24 10          	mov    0x10(%esp),%eax
    258f:	8b 40 0a             	mov    0xa(%eax),%eax
    2592:	8d 04 02             	lea    (%edx,%eax,1),%eax
    2595:	89 44 24 28          	mov    %eax,0x28(%esp)
    2599:	8b 44 24 14          	mov    0x14(%esp),%eax
    259d:	8d 14 00             	lea    (%eax,%eax,1),%edx
    25a0:	89 d0                	mov    %edx,%eax
    25a2:	c1 f8 1f             	sar    $0x1f,%eax
    25a5:	89 c1                	mov    %eax,%ecx
    25a7:	c1 e9 1e             	shr    $0x1e,%ecx
    25aa:	8d 04 0a             	lea    (%edx,%ecx,1),%eax
    25ad:	83 e0 03             	and    $0x3,%eax
    25b0:	29 c8                	sub    %ecx,%eax
    25b2:	89 c2                	mov    %eax,%edx
    25b4:	89 d0                	mov    %edx,%eax
    25b6:	c1 e8 1f             	shr    $0x1f,%eax
    25b9:	01 d0                	add    %edx,%eax
    25bb:	d1 f8                	sar    %eax
    25bd:	89 44 24 2c          	mov    %eax,0x2c(%esp)
    25c1:	8b 44 24 18          	mov    0x18(%esp),%eax
    25c5:	83 e8 01             	sub    $0x1,%eax
    25c8:	89 44 24 1c          	mov    %eax,0x1c(%esp)
    25cc:	e9 8e 00 00 00       	jmp    0x265f
    25d1:	c7 44 24 20 00 00 00 	movl   $0x0,0x20(%esp)
    25d8:	00 
    25d9:	eb 6b                	jmp    0x2646
    25db:	8b 44 24 28          	mov    0x28(%esp),%eax
    25df:	0f b7 00             	movzwl (%eax),%eax
    25e2:	66 c1 e8 05          	shr    $0x5,%ax
    25e6:	0f b7 c0             	movzwl %ax,%eax
    25e9:	c1 e0 06             	shl    $0x6,%eax
    25ec:	89 c2                	mov    %eax,%edx
    25ee:	8b 44 24 28          	mov    0x28(%esp),%eax
    25f2:	0f b7 00             	movzwl (%eax),%eax
    25f5:	83 e0 1f             	and    $0x1f,%eax
    25f8:	09 d0                	or     %edx,%eax
    25fa:	83 c8 20             	or     $0x20,%eax
    25fd:	66 89 44 24 26       	mov    %ax,0x26(%esp)
    2602:	83 7c 24 44 00       	cmpl   $0x0,0x44(%esp)
    2607:	74 0c                	je     0x2615
    2609:	0f b7 44 24 26       	movzwl 0x26(%esp),%eax
    260e:	66 3b 44 24 0c       	cmp    0xc(%esp),%ax
    2613:	74 27                	je     0x263c
    2615:	0f b7 54 24 26       	movzwl 0x26(%esp),%edx
    261a:	8b 44 24 1c          	mov    0x1c(%esp),%eax
    261e:	89 c1                	mov    %eax,%ecx
    2620:	03 4c 24 38          	add    0x38(%esp),%ecx
    2624:	8b 44 24 20          	mov    0x20(%esp),%eax
    2628:	03 44 24 34          	add    0x34(%esp),%eax
    262c:	89 54 24 08          	mov    %edx,0x8(%esp)
    2630:	89 4c 24 04          	mov    %ecx,0x4(%esp)
    2634:	89 04 24             	mov    %eax,(%esp)
    2637:	e8 4c f8 ff ff       	call   0x1e88
    263c:	83 44 24 28 02       	addl   $0x2,0x28(%esp)
    2641:	83 44 24 20 01       	addl   $0x1,0x20(%esp)
    2646:	8b 44 24 20          	mov    0x20(%esp),%eax
    264a:	3b 44 24 14          	cmp    0x14(%esp),%eax
    264e:	7c 8b                	jl     0x25db
    2650:	8b 44 24 2c          	mov    0x2c(%esp),%eax
    2654:	01 c0                	add    %eax,%eax
    2656:	01 44 24 28          	add    %eax,0x28(%esp)
    265a:	83 6c 24 1c 01       	subl   $0x1,0x1c(%esp)
    265f:	83 7c 24 1c 00       	cmpl   $0x0,0x1c(%esp)
    2664:	0f 89 67 ff ff ff    	jns    0x25d1
    266a:	83 c4 30             	add    $0x30,%esp
    266d:	c3                   	ret    
    266e:	83 ec 2c             	sub    $0x2c,%esp
    2671:	8b 44 24 3c          	mov    0x3c(%esp),%eax
    2675:	66 89 44 24 18       	mov    %ax,0x18(%esp)
    267a:	8b 44 24 38          	mov    0x38(%esp),%eax
    267e:	89 44 24 28          	mov    %eax,0x28(%esp)
    2682:	8b 44 24 28          	mov    0x28(%esp),%eax
    2686:	0f b7 40 1c          	movzwl 0x1c(%eax),%eax
    268a:	66 83 f8 18          	cmp    $0x18,%ax
    268e:	75 2f                	jne    0x26bf
    2690:	0f b7 54 24 18       	movzwl 0x18(%esp),%edx
    2695:	8b 44 24 40          	mov    0x40(%esp),%eax
    2699:	89 44 24 10          	mov    %eax,0x10(%esp)
    269d:	89 54 24 0c          	mov    %edx,0xc(%esp)
    26a1:	8b 44 24 38          	mov    0x38(%esp),%eax
    26a5:	89 44 24 08          	mov    %eax,0x8(%esp)
    26a9:	8b 44 24 34          	mov    0x34(%esp),%eax
    26ad:	89 44 24 04          	mov    %eax,0x4(%esp)
    26b1:	8b 44 24 30          	mov    0x30(%esp),%eax
    26b5:	89 04 24             	mov    %eax,(%esp)
    26b8:	e8 33 00 00 00       	call   0x26f0
    26bd:	eb 2d                	jmp    0x26ec
    26bf:	0f b7 54 24 18       	movzwl 0x18(%esp),%edx
    26c4:	8b 44 24 40          	mov    0x40(%esp),%eax
    26c8:	89 44 24 10          	mov    %eax,0x10(%esp)
    26cc:	89 54 24 0c          	mov    %edx,0xc(%esp)
    26d0:	8b 44 24 38          	mov    0x38(%esp),%eax
    26d4:	89 44 24 08          	mov    %eax,0x8(%esp)
    26d8:	8b 44 24 34          	mov    0x34(%esp),%eax
    26dc:	89 44 24 04          	mov    %eax,0x4(%esp)
    26e0:	8b 44 24 30          	mov    0x30(%esp),%eax
    26e4:	89 04 24             	mov    %eax,(%esp)
    26e7:	e8 71 fe ff ff       	call   0x255d
    26ec:	83 c4 2c             	add    $0x2c,%esp
    26ef:	c3                   	ret    
    26f0:	83 ec 30             	sub    $0x30,%esp
    26f3:	8b 44 24 40          	mov    0x40(%esp),%eax
    26f7:	66 89 44 24 0c       	mov    %ax,0xc(%esp)
    26fc:	8b 44 24 3c          	mov    0x3c(%esp),%eax
    2700:	89 44 24 10          	mov    %eax,0x10(%esp)
    2704:	8b 44 24 10          	mov    0x10(%esp),%eax
    2708:	8b 40 12             	mov    0x12(%eax),%eax
    270b:	89 44 24 14          	mov    %eax,0x14(%esp)
    270f:	8b 44 24 10          	mov    0x10(%esp),%eax
    2713:	8b 40 16             	mov    0x16(%eax),%eax
    2716:	89 44 24 18          	mov    %eax,0x18(%esp)
    271a:	8b 54 24 3c          	mov    0x3c(%esp),%edx
    271e:	8b 44 24 10          	mov    0x10(%esp),%eax
    2722:	8b 40 0a             	mov    0xa(%eax),%eax
    2725:	8d 04 02             	lea    (%edx,%eax,1),%eax
    2728:	89 44 24 24          	mov    %eax,0x24(%esp)
    272c:	8b 54 24 14          	mov    0x14(%esp),%edx
    2730:	89 d0                	mov    %edx,%eax
    2732:	01 c0                	add    %eax,%eax
    2734:	8d 14 10             	lea    (%eax,%edx,1),%edx
    2737:	89 d0                	mov    %edx,%eax
    2739:	c1 f8 1f             	sar    $0x1f,%eax
    273c:	89 c1                	mov    %eax,%ecx
    273e:	c1 e9 1e             	shr    $0x1e,%ecx
    2741:	8d 04 0a             	lea    (%edx,%ecx,1),%eax
    2744:	83 e0 03             	and    $0x3,%eax
    2747:	29 c8                	sub    %ecx,%eax
    2749:	89 44 24 2c          	mov    %eax,0x2c(%esp)
    274d:	8b 44 24 18          	mov    0x18(%esp),%eax
    2751:	83 e8 01             	sub    $0x1,%eax
    2754:	89 44 24 1c          	mov    %eax,0x1c(%esp)
    2758:	e9 a4 00 00 00       	jmp    0x2801
    275d:	c7 44 24 20 00 00 00 	movl   $0x0,0x20(%esp)
    2764:	00 
    2765:	eb 7f                	jmp    0x27e6
    2767:	8b 44 24 24          	mov    0x24(%esp),%eax
    276b:	0f b6 40 02          	movzbl 0x2(%eax),%eax
    276f:	c0 e8 03             	shr    $0x3,%al
    2772:	0f b6 c0             	movzbl %al,%eax
    2775:	89 c2                	mov    %eax,%edx
    2777:	c1 e2 0b             	shl    $0xb,%edx
    277a:	8b 44 24 24          	mov    0x24(%esp),%eax
    277e:	0f b6 40 01          	movzbl 0x1(%eax),%eax
    2782:	c0 e8 02             	shr    $0x2,%al
    2785:	0f b6 c0             	movzbl %al,%eax
    2788:	c1 e0 05             	shl    $0x5,%eax
    278b:	01 c2                	add    %eax,%edx
    278d:	8b 44 24 24          	mov    0x24(%esp),%eax
    2791:	0f b6 00             	movzbl (%eax),%eax
    2794:	c0 e8 03             	shr    $0x3,%al
    2797:	0f b6 c0             	movzbl %al,%eax
    279a:	8d 04 02             	lea    (%edx,%eax,1),%eax
    279d:	66 89 44 24 2a       	mov    %ax,0x2a(%esp)
    27a2:	83 7c 24 44 00       	cmpl   $0x0,0x44(%esp)
    27a7:	74 0c                	je     0x27b5
    27a9:	0f b7 44 24 2a       	movzwl 0x2a(%esp),%eax
    27ae:	66 3b 44 24 0c       	cmp    0xc(%esp),%ax
    27b3:	74 27                	je     0x27dc
    27b5:	0f b7 54 24 2a       	movzwl 0x2a(%esp),%edx
    27ba:	8b 44 24 1c          	mov    0x1c(%esp),%eax
    27be:	89 c1                	mov    %eax,%ecx
    27c0:	03 4c 24 38          	add    0x38(%esp),%ecx
    27c4:	8b 44 24 20          	mov    0x20(%esp),%eax
    27c8:	03 44 24 34          	add    0x34(%esp),%eax
    27cc:	89 54 24 08          	mov    %edx,0x8(%esp)
    27d0:	89 4c 24 04          	mov    %ecx,0x4(%esp)
    27d4:	89 04 24             	mov    %eax,(%esp)
    27d7:	e8 ac f6 ff ff       	call   0x1e88
    27dc:	83 44 24 24 03       	addl   $0x3,0x24(%esp)
    27e1:	83 44 24 20 01       	addl   $0x1,0x20(%esp)
    27e6:	8b 44 24 20          	mov    0x20(%esp),%eax
    27ea:	3b 44 24 14          	cmp    0x14(%esp),%eax
    27ee:	0f 8c 73 ff ff ff    	jl     0x2767
    27f4:	8b 44 24 2c          	mov    0x2c(%esp),%eax
    27f8:	01 44 24 24          	add    %eax,0x24(%esp)
    27fc:	83 6c 24 1c 01       	subl   $0x1,0x1c(%esp)
    2801:	83 7c 24 1c 00       	cmpl   $0x0,0x1c(%esp)
    2806:	0f 89 51 ff ff ff    	jns    0x275d
    280c:	83 c4 30             	add    $0x30,%esp
    280f:	c3                   	ret    
    2810:	55                   	push   %ebp
    2811:	89 e5                	mov    %esp,%ebp
    2813:	57                   	push   %edi
    2814:	56                   	push   %esi
    2815:	8b 75 0c             	mov    0xc(%ebp),%esi
    2818:	8b 7d 08             	mov    0x8(%ebp),%edi
    281b:	fc                   	cld    
    281c:	ac                   	lods   %ds:(%esi),%al
    281d:	aa                   	stos   %al,%es:(%edi)
    281e:	84 c0                	test   %al,%al
    2820:	75 fa                	jne    0x281c
    2822:	8b 45 08             	mov    0x8(%ebp),%eax
    2825:	5e                   	pop    %esi
    2826:	5f                   	pop    %edi
    2827:	5d                   	pop    %ebp
    2828:	c3                   	ret    
    2829:	55                   	push   %ebp
    282a:	89 e5                	mov    %esp,%ebp
    282c:	57                   	push   %edi
    282d:	56                   	push   %esi
    282e:	8b 75 0c             	mov    0xc(%ebp),%esi
    2831:	8b 7d 08             	mov    0x8(%ebp),%edi
    2834:	8b 4d 10             	mov    0x10(%ebp),%ecx
    2837:	fc                   	cld    
    2838:	49                   	dec    %ecx
    2839:	78 08                	js     0x2843
    283b:	ac                   	lods   %ds:(%esi),%al
    283c:	aa                   	stos   %al,%es:(%edi)
    283d:	84 c0                	test   %al,%al
    283f:	75 f7                	jne    0x2838
    2841:	f3 aa                	rep stos %al,%es:(%edi)
    2843:	8b 45 08             	mov    0x8(%ebp),%eax
    2846:	5e                   	pop    %esi
    2847:	5f                   	pop    %edi
    2848:	5d                   	pop    %ebp
    2849:	c3                   	ret    
    284a:	55                   	push   %ebp
    284b:	89 e5                	mov    %esp,%ebp
    284d:	57                   	push   %edi
    284e:	56                   	push   %esi
    284f:	8b 75 0c             	mov    0xc(%ebp),%esi
    2852:	8b 7d 08             	mov    0x8(%ebp),%edi
    2855:	b8 00 00 00 00       	mov    $0x0,%eax
    285a:	b9 ff ff ff ff       	mov    $0xffffffff,%ecx
    285f:	fc                   	cld    
    2860:	f2 ae                	repnz scas %es:(%edi),%al
    2862:	4f                   	dec    %edi
    2863:	ac                   	lods   %ds:(%esi),%al
    2864:	aa                   	stos   %al,%es:(%edi)
    2865:	84 c0                	test   %al,%al
    2867:	75 fa                	jne    0x2863
    2869:	8b 45 08             	mov    0x8(%ebp),%eax
    286c:	5e                   	pop    %esi
    286d:	5f                   	pop    %edi
    286e:	5d                   	pop    %ebp
    286f:	c3                   	ret    
    2870:	55                   	push   %ebp
    2871:	89 e5                	mov    %esp,%ebp
    2873:	57                   	push   %edi
    2874:	56                   	push   %esi
    2875:	8b 75 0c             	mov    0xc(%ebp),%esi
    2878:	8b 7d 08             	mov    0x8(%ebp),%edi
    287b:	b8 00 00 00 00       	mov    $0x0,%eax
    2880:	b9 ff ff ff ff       	mov    $0xffffffff,%ecx
    2885:	fc                   	cld    
    2886:	f2 ae                	repnz scas %es:(%edi),%al
    2888:	4f                   	dec    %edi
    2889:	8b 4d 10             	mov    0x10(%ebp),%ecx
    288c:	49                   	dec    %ecx
    288d:	78 06                	js     0x2895
    288f:	ac                   	lods   %ds:(%esi),%al
    2890:	aa                   	stos   %al,%es:(%edi)
    2891:	84 c0                	test   %al,%al
    2893:	75 f7                	jne    0x288c
    2895:	31 c0                	xor    %eax,%eax
    2897:	aa                   	stos   %al,%es:(%edi)
    2898:	8b 45 08             	mov    0x8(%ebp),%eax
    289b:	5e                   	pop    %esi
    289c:	5f                   	pop    %edi
    289d:	5d                   	pop    %ebp
    289e:	c3                   	ret    
    289f:	55                   	push   %ebp
    28a0:	89 e5                	mov    %esp,%ebp
    28a2:	57                   	push   %edi
    28a3:	56                   	push   %esi
    28a4:	8b 7d 08             	mov    0x8(%ebp),%edi
    28a7:	8b 75 0c             	mov    0xc(%ebp),%esi
    28aa:	fc                   	cld    
    28ab:	ac                   	lods   %ds:(%esi),%al
    28ac:	ae                   	scas   %es:(%edi),%al
    28ad:	75 08                	jne    0x28b7
    28af:	84 c0                	test   %al,%al
    28b1:	75 f8                	jne    0x28ab
    28b3:	31 c0                	xor    %eax,%eax
    28b5:	eb 09                	jmp    0x28c0
    28b7:	b8 01 00 00 00       	mov    $0x1,%eax
    28bc:	7c 02                	jl     0x28c0
    28be:	f7 d8                	neg    %eax
    28c0:	5e                   	pop    %esi
    28c1:	5f                   	pop    %edi
    28c2:	5d                   	pop    %ebp
    28c3:	c3                   	ret    
    28c4:	55                   	push   %ebp
    28c5:	89 e5                	mov    %esp,%ebp
    28c7:	57                   	push   %edi
    28c8:	56                   	push   %esi
    28c9:	8b 7d 08             	mov    0x8(%ebp),%edi
    28cc:	8b 75 0c             	mov    0xc(%ebp),%esi
    28cf:	8b 4d 10             	mov    0x10(%ebp),%ecx
    28d2:	fc                   	cld    
    28d3:	49                   	dec    %ecx
    28d4:	78 08                	js     0x28de
    28d6:	ac                   	lods   %ds:(%esi),%al
    28d7:	ae                   	scas   %es:(%edi),%al
    28d8:	75 08                	jne    0x28e2
    28da:	84 c0                	test   %al,%al
    28dc:	75 f5                	jne    0x28d3
    28de:	31 c0                	xor    %eax,%eax
    28e0:	eb 09                	jmp    0x28eb
    28e2:	b8 01 00 00 00       	mov    $0x1,%eax
    28e7:	7c 02                	jl     0x28eb
    28e9:	f7 d8                	neg    %eax
    28eb:	5e                   	pop    %esi
    28ec:	5f                   	pop    %edi
    28ed:	5d                   	pop    %ebp
    28ee:	c3                   	ret    
    28ef:	55                   	push   %ebp
    28f0:	89 e5                	mov    %esp,%ebp
    28f2:	56                   	push   %esi
    28f3:	83 ec 04             	sub    $0x4,%esp
    28f6:	8b 45 0c             	mov    0xc(%ebp),%eax
    28f9:	88 45 f8             	mov    %al,-0x8(%ebp)
    28fc:	8b 75 08             	mov    0x8(%ebp),%esi
    28ff:	0f b6 45 f8          	movzbl -0x8(%ebp),%eax
    2903:	fc                   	cld    
    2904:	88 c4                	mov    %al,%ah
    2906:	ac                   	lods   %ds:(%esi),%al
    2907:	38 e0                	cmp    %ah,%al
    2909:	74 09                	je     0x2914
    290b:	84 c0                	test   %al,%al
    290d:	75 f7                	jne    0x2906
    290f:	be 01 00 00 00       	mov    $0x1,%esi
    2914:	89 f0                	mov    %esi,%eax
    2916:	48                   	dec    %eax
    2917:	83 c4 04             	add    $0x4,%esp
    291a:	5e                   	pop    %esi
    291b:	5d                   	pop    %ebp
    291c:	c3                   	ret    
    291d:	55                   	push   %ebp
    291e:	89 e5                	mov    %esp,%ebp
    2920:	56                   	push   %esi
    2921:	83 ec 04             	sub    $0x4,%esp
    2924:	8b 45 0c             	mov    0xc(%ebp),%eax
    2927:	88 45 f8             	mov    %al,-0x8(%ebp)
    292a:	ba 00 00 00 00       	mov    $0x0,%edx
    292f:	8b 75 08             	mov    0x8(%ebp),%esi
    2932:	0f b6 45 f8          	movzbl -0x8(%ebp),%eax
    2936:	fc                   	cld    
    2937:	88 c4                	mov    %al,%ah
    2939:	ac                   	lods   %ds:(%esi),%al
    293a:	38 e0                	cmp    %ah,%al
    293c:	75 03                	jne    0x2941
    293e:	89 f2                	mov    %esi,%edx
    2940:	4a                   	dec    %edx
    2941:	84 c0                	test   %al,%al
    2943:	75 f4                	jne    0x2939
    2945:	89 d0                	mov    %edx,%eax
    2947:	83 c4 04             	add    $0x4,%esp
    294a:	5e                   	pop    %esi
    294b:	5d                   	pop    %ebp
    294c:	c3                   	ret    
    294d:	55                   	push   %ebp
    294e:	89 e5                	mov    %esp,%ebp
    2950:	56                   	push   %esi
    2951:	b8 00 00 00 00       	mov    $0x0,%eax
    2956:	b9 ff ff ff ff       	mov    $0xffffffff,%ecx
    295b:	8b 75 08             	mov    0x8(%ebp),%esi
    295e:	fc                   	cld    
    295f:	8b 7d 0c             	mov    0xc(%ebp),%edi
    2962:	f2 ae                	repnz scas %es:(%edi),%al
    2964:	f7 d1                	not    %ecx
    2966:	49                   	dec    %ecx
    2967:	89 ca                	mov    %ecx,%edx
    2969:	ac                   	lods   %ds:(%esi),%al
    296a:	84 c0                	test   %al,%al
    296c:	74 09                	je     0x2977
    296e:	8b 7d 0c             	mov    0xc(%ebp),%edi
    2971:	89 d1                	mov    %edx,%ecx
    2973:	f2 ae                	repnz scas %es:(%edi),%al
    2975:	74 f2                	je     0x2969
    2977:	4e                   	dec    %esi
    2978:	89 f2                	mov    %esi,%edx
    297a:	8b 45 08             	mov    0x8(%ebp),%eax
    297d:	89 d1                	mov    %edx,%ecx
    297f:	29 c1                	sub    %eax,%ecx
    2981:	89 c8                	mov    %ecx,%eax
    2983:	5e                   	pop    %esi
    2984:	5d                   	pop    %ebp
    2985:	c3                   	ret    
    2986:	55                   	push   %ebp
    2987:	89 e5                	mov    %esp,%ebp
    2989:	56                   	push   %esi
    298a:	b8 00 00 00 00       	mov    $0x0,%eax
    298f:	b9 ff ff ff ff       	mov    $0xffffffff,%ecx
    2994:	8b 75 08             	mov    0x8(%ebp),%esi
    2997:	fc                   	cld    
    2998:	8b 7d 0c             	mov    0xc(%ebp),%edi
    299b:	f2 ae                	repnz scas %es:(%edi),%al
    299d:	f7 d1                	not    %ecx
    299f:	49                   	dec    %ecx
    29a0:	89 ca                	mov    %ecx,%edx
    29a2:	ac                   	lods   %ds:(%esi),%al
    29a3:	84 c0                	test   %al,%al
    29a5:	74 09                	je     0x29b0
    29a7:	8b 7d 0c             	mov    0xc(%ebp),%edi
    29aa:	89 d1                	mov    %edx,%ecx
    29ac:	f2 ae                	repnz scas %es:(%edi),%al
    29ae:	75 f2                	jne    0x29a2
    29b0:	4e                   	dec    %esi
    29b1:	89 f2                	mov    %esi,%edx
    29b3:	8b 45 08             	mov    0x8(%ebp),%eax
    29b6:	89 d1                	mov    %edx,%ecx
    29b8:	29 c1                	sub    %eax,%ecx
    29ba:	89 c8                	mov    %ecx,%eax
    29bc:	5e                   	pop    %esi
    29bd:	5d                   	pop    %ebp
    29be:	c3                   	ret    
    29bf:	55                   	push   %ebp
    29c0:	89 e5                	mov    %esp,%ebp
    29c2:	56                   	push   %esi
    29c3:	b8 00 00 00 00       	mov    $0x0,%eax
    29c8:	b9 ff ff ff ff       	mov    $0xffffffff,%ecx
    29cd:	8b 75 08             	mov    0x8(%ebp),%esi
    29d0:	fc                   	cld    
    29d1:	8b 7d 0c             	mov    0xc(%ebp),%edi
    29d4:	f2 ae                	repnz scas %es:(%edi),%al
    29d6:	f7 d1                	not    %ecx
    29d8:	49                   	dec    %ecx
    29d9:	89 ca                	mov    %ecx,%edx
    29db:	ac                   	lods   %ds:(%esi),%al
    29dc:	84 c0                	test   %al,%al
    29de:	74 0c                	je     0x29ec
    29e0:	8b 7d 0c             	mov    0xc(%ebp),%edi
    29e3:	89 d1                	mov    %edx,%ecx
    29e5:	f2 ae                	repnz scas %es:(%edi),%al
    29e7:	75 f2                	jne    0x29db
    29e9:	4e                   	dec    %esi
    29ea:	eb 02                	jmp    0x29ee
    29ec:	31 f6                	xor    %esi,%esi
    29ee:	89 f0                	mov    %esi,%eax
    29f0:	5e                   	pop    %esi
    29f1:	5d                   	pop    %ebp
    29f2:	c3                   	ret    
    29f3:	55                   	push   %ebp
    29f4:	89 e5                	mov    %esp,%ebp
    29f6:	56                   	push   %esi
    29f7:	b8 00 00 00 00       	mov    $0x0,%eax
    29fc:	b9 ff ff ff ff       	mov    $0xffffffff,%ecx
    2a01:	8b 75 08             	mov    0x8(%ebp),%esi
    2a04:	fc                   	cld    
    2a05:	8b 7d 0c             	mov    0xc(%ebp),%edi
    2a08:	f2 ae                	repnz scas %es:(%edi),%al
    2a0a:	f7 d1                	not    %ecx
    2a0c:	49                   	dec    %ecx
    2a0d:	89 ca                	mov    %ecx,%edx
    2a0f:	8b 7d 0c             	mov    0xc(%ebp),%edi
    2a12:	89 f0                	mov    %esi,%eax
    2a14:	89 d1                	mov    %edx,%ecx
    2a16:	f3 a6                	repz cmpsb %es:(%edi),%ds:(%esi)
    2a18:	74 0a                	je     0x2a24
    2a1a:	96                   	xchg   %eax,%esi
    2a1b:	46                   	inc    %esi
    2a1c:	80 78 ff 00          	cmpb   $0x0,-0x1(%eax)
    2a20:	75 ed                	jne    0x2a0f
    2a22:	31 c0                	xor    %eax,%eax
    2a24:	5e                   	pop    %esi
    2a25:	5d                   	pop    %ebp
    2a26:	c3                   	ret    
    2a27:	55                   	push   %ebp
    2a28:	89 e5                	mov    %esp,%ebp
    2a2a:	57                   	push   %edi
    2a2b:	8b 7d 08             	mov    0x8(%ebp),%edi
    2a2e:	b8 00 00 00 00       	mov    $0x0,%eax
    2a33:	b9 ff ff ff ff       	mov    $0xffffffff,%ecx
    2a38:	fc                   	cld    
    2a39:	f2 ae                	repnz scas %es:(%edi),%al
    2a3b:	f7 d1                	not    %ecx
    2a3d:	49                   	dec    %ecx
    2a3e:	89 c8                	mov    %ecx,%eax
    2a40:	5f                   	pop    %edi
    2a41:	5d                   	pop    %ebp
    2a42:	c3                   	ret    
    2a43:	55                   	push   %ebp
    2a44:	89 e5                	mov    %esp,%ebp
    2a46:	57                   	push   %edi
    2a47:	56                   	push   %esi
    2a48:	8b 4d 10             	mov    0x10(%ebp),%ecx
    2a4b:	8b 75 0c             	mov    0xc(%ebp),%esi
    2a4e:	8b 7d 08             	mov    0x8(%ebp),%edi
    2a51:	fc                   	cld    
    2a52:	f3 a4                	rep movsb %ds:(%esi),%es:(%edi)
    2a54:	8b 45 08             	mov    0x8(%ebp),%eax
    2a57:	5e                   	pop    %esi
    2a58:	5f                   	pop    %edi
    2a59:	5d                   	pop    %ebp
    2a5a:	c3                   	ret    
    2a5b:	55                   	push   %ebp
    2a5c:	89 e5                	mov    %esp,%ebp
    2a5e:	57                   	push   %edi
    2a5f:	56                   	push   %esi
    2a60:	8b 45 08             	mov    0x8(%ebp),%eax
    2a63:	3b 45 0c             	cmp    0xc(%ebp),%eax
    2a66:	73 0e                	jae    0x2a76
    2a68:	8b 4d 10             	mov    0x10(%ebp),%ecx
    2a6b:	8b 75 0c             	mov    0xc(%ebp),%esi
    2a6e:	8b 7d 08             	mov    0x8(%ebp),%edi
    2a71:	fc                   	cld    
    2a72:	f3 a4                	rep movsb %ds:(%esi),%es:(%edi)
    2a74:	eb 1e                	jmp    0x2a94
    2a76:	8b 55 0c             	mov    0xc(%ebp),%edx
    2a79:	8b 45 10             	mov    0x10(%ebp),%eax
    2a7c:	83 e8 01             	sub    $0x1,%eax
    2a7f:	8d 34 02             	lea    (%edx,%eax,1),%esi
    2a82:	8b 55 08             	mov    0x8(%ebp),%edx
    2a85:	8b 45 10             	mov    0x10(%ebp),%eax
    2a88:	83 e8 01             	sub    $0x1,%eax
    2a8b:	8d 3c 02             	lea    (%edx,%eax,1),%edi
    2a8e:	8b 4d 10             	mov    0x10(%ebp),%ecx
    2a91:	fd                   	std    
    2a92:	f3 a4                	rep movsb %ds:(%esi),%es:(%edi)
    2a94:	8b 45 08             	mov    0x8(%ebp),%eax
    2a97:	5e                   	pop    %esi
    2a98:	5f                   	pop    %edi
    2a99:	5d                   	pop    %ebp
    2a9a:	c3                   	ret    
    2a9b:	55                   	push   %ebp
    2a9c:	89 e5                	mov    %esp,%ebp
    2a9e:	57                   	push   %edi
    2a9f:	56                   	push   %esi
    2aa0:	b8 00 00 00 00       	mov    $0x0,%eax
    2aa5:	8b 7d 08             	mov    0x8(%ebp),%edi
    2aa8:	8b 75 0c             	mov    0xc(%ebp),%esi
    2aab:	8b 4d 10             	mov    0x10(%ebp),%ecx
    2aae:	fc                   	cld    
    2aaf:	f3 a6                	repz cmpsb %es:(%edi),%ds:(%esi)
    2ab1:	74 09                	je     0x2abc
    2ab3:	b8 01 00 00 00       	mov    $0x1,%eax
    2ab8:	7c 02                	jl     0x2abc
    2aba:	f7 d8                	neg    %eax
    2abc:	5e                   	pop    %esi
    2abd:	5f                   	pop    %edi
    2abe:	5d                   	pop    %ebp
    2abf:	c3                   	ret    
    2ac0:	55                   	push   %ebp
    2ac1:	89 e5                	mov    %esp,%ebp
    2ac3:	57                   	push   %edi
    2ac4:	83 ec 04             	sub    $0x4,%esp
    2ac7:	8b 45 0c             	mov    0xc(%ebp),%eax
    2aca:	88 45 f8             	mov    %al,-0x8(%ebp)
    2acd:	0f b6 45 f8          	movzbl -0x8(%ebp),%eax
    2ad1:	8b 7d 08             	mov    0x8(%ebp),%edi
    2ad4:	8b 4d 10             	mov    0x10(%ebp),%ecx
    2ad7:	fc                   	cld    
    2ad8:	f3 aa                	rep stos %al,%es:(%edi)
    2ada:	8b 45 08             	mov    0x8(%ebp),%eax
    2add:	83 c4 04             	add    $0x4,%esp
    2ae0:	5f                   	pop    %edi
    2ae1:	5d                   	pop    %ebp
    2ae2:	c3                   	ret    
    2ae3:	55                   	push   %ebp
    2ae4:	89 e5                	mov    %esp,%ebp
    2ae6:	83 ec 14             	sub    $0x14,%esp
    2ae9:	b8 0b 00 00 00       	mov    $0xb,%eax
    2aee:	cd 80                	int    $0x80
    2af0:	89 45 fc             	mov    %eax,-0x4(%ebp)
    2af3:	83 7d fc 00          	cmpl   $0x0,-0x4(%ebp)
    2af7:	79 13                	jns    0x2b0c
    2af9:	8b 45 fc             	mov    -0x4(%ebp),%eax
    2afc:	f7 d8                	neg    %eax
    2afe:	a3 32 00 00 01       	mov    %eax,0x1000032
    2b03:	c7 45 ec ff ff ff ff 	movl   $0xffffffff,-0x14(%ebp)
    2b0a:	eb 06                	jmp    0x2b12
    2b0c:	8b 45 fc             	mov    -0x4(%ebp),%eax
    2b0f:	89 45 ec             	mov    %eax,-0x14(%ebp)
    2b12:	8b 45 ec             	mov    -0x14(%ebp),%eax
    2b15:	c9                   	leave  
    2b16:	c3                   	ret    
    2b17:	55                   	push   %ebp
    2b18:	89 e5                	mov    %esp,%ebp
    2b1a:	53                   	push   %ebx
    2b1b:	a1 60 54 00 01       	mov    0x1005460,%eax
    2b20:	8b 15 64 54 00 01    	mov    0x1005464,%edx
    2b26:	69 ca 2d 7f 95 4c    	imul   $0x4c957f2d,%edx,%ecx
    2b2c:	69 d8 2d f4 51 58    	imul   $0x5851f42d,%eax,%ebx
    2b32:	01 d9                	add    %ebx,%ecx
    2b34:	bb 2d 7f 95 4c       	mov    $0x4c957f2d,%ebx
    2b39:	f7 e3                	mul    %ebx
    2b3b:	01 d1                	add    %edx,%ecx
    2b3d:	89 ca                	mov    %ecx,%edx
    2b3f:	83 c0 01             	add    $0x1,%eax
    2b42:	83 d2 00             	adc    $0x0,%edx
    2b45:	a3 60 54 00 01       	mov    %eax,0x1005460
    2b4a:	89 15 64 54 00 01    	mov    %edx,0x1005464
    2b50:	a1 60 54 00 01       	mov    0x1005460,%eax
    2b55:	8b 15 64 54 00 01    	mov    0x1005464,%edx
    2b5b:	89 d0                	mov    %edx,%eax
    2b5d:	31 d2                	xor    %edx,%edx
    2b5f:	25 ff 7f 00 00       	and    $0x7fff,%eax
    2b64:	5b                   	pop    %ebx
    2b65:	5d                   	pop    %ebp
    2b66:	c3                   	ret    
    2b67:	55                   	push   %ebp
    2b68:	89 e5                	mov    %esp,%ebp
    2b6a:	8b 45 08             	mov    0x8(%ebp),%eax
    2b6d:	ba 00 00 00 00       	mov    $0x0,%edx
    2b72:	a3 60 54 00 01       	mov    %eax,0x1005460
    2b77:	89 15 64 54 00 01    	mov    %edx,0x1005464
    2b7d:	5d                   	pop    %ebp
    2b7e:	c3                   	ret    
    2b7f:	55                   	push   %ebp
    2b80:	89 e5                	mov    %esp,%ebp
    2b82:	53                   	push   %ebx
    2b83:	83 ec 1c             	sub    $0x1c,%esp
    2b86:	c7 45 f4 ff ff ff ff 	movl   $0xffffffff,-0xc(%ebp)
    2b8d:	c7 44 24 04 f1 42 00 	movl   $0x10042f1,0x4(%esp)
    2b94:	01 
    2b95:	8b 45 08             	mov    0x8(%ebp),%eax
    2b98:	89 04 24             	mov    %eax,(%esp)
    2b9b:	e8 ff fc ff ff       	call   0x289f
    2ba0:	85 c0                	test   %eax,%eax
    2ba2:	75 09                	jne    0x2bad
    2ba4:	c7 45 f4 00 00 00 00 	movl   $0x0,-0xc(%ebp)
    2bab:	eb 5e                	jmp    0x2c0b
    2bad:	c7 44 24 04 f7 42 00 	movl   $0x10042f7,0x4(%esp)
    2bb4:	01 
    2bb5:	8b 45 08             	mov    0x8(%ebp),%eax
    2bb8:	89 04 24             	mov    %eax,(%esp)
    2bbb:	e8 df fc ff ff       	call   0x289f
    2bc0:	85 c0                	test   %eax,%eax
    2bc2:	75 09                	jne    0x2bcd
    2bc4:	c7 45 f4 01 00 00 00 	movl   $0x1,-0xc(%ebp)
    2bcb:	eb 3e                	jmp    0x2c0b
    2bcd:	c7 44 24 04 fd 42 00 	movl   $0x10042fd,0x4(%esp)
    2bd4:	01 
    2bd5:	8b 45 08             	mov    0x8(%ebp),%eax
    2bd8:	89 04 24             	mov    %eax,(%esp)
    2bdb:	e8 bf fc ff ff       	call   0x289f
    2be0:	85 c0                	test   %eax,%eax
    2be2:	75 09                	jne    0x2bed
    2be4:	c7 45 f4 02 00 00 00 	movl   $0x2,-0xc(%ebp)
    2beb:	eb 1e                	jmp    0x2c0b
    2bed:	c7 44 24 04 03 43 00 	movl   $0x1004303,0x4(%esp)
    2bf4:	01 
    2bf5:	8b 45 08             	mov    0x8(%ebp),%eax
    2bf8:	89 04 24             	mov    %eax,(%esp)
    2bfb:	e8 9f fc ff ff       	call   0x289f
    2c00:	85 c0                	test   %eax,%eax
    2c02:	75 07                	jne    0x2c0b
    2c04:	c7 45 f4 03 00 00 00 	movl   $0x3,-0xc(%ebp)
    2c0b:	83 7d f4 ff          	cmpl   $0xffffffff,-0xc(%ebp)
    2c0f:	75 09                	jne    0x2c1a
    2c11:	c7 45 e8 00 00 00 00 	movl   $0x0,-0x18(%ebp)
    2c18:	eb 24                	jmp    0x2c3e
    2c1a:	b8 01 00 00 00       	mov    $0x1,%eax
    2c1f:	8b 5d f4             	mov    -0xc(%ebp),%ebx
    2c22:	cd 80                	int    $0x80
    2c24:	89 45 f8             	mov    %eax,-0x8(%ebp)
    2c27:	83 7d f8 00          	cmpl   $0x0,-0x8(%ebp)
    2c2b:	79 0a                	jns    0x2c37
    2c2d:	8b 45 f8             	mov    -0x8(%ebp),%eax
    2c30:	f7 d8                	neg    %eax
    2c32:	a3 32 00 00 01       	mov    %eax,0x1000032
    2c37:	c7 45 e8 01 00 00 00 	movl   $0x1,-0x18(%ebp)
    2c3e:	8b 45 e8             	mov    -0x18(%ebp),%eax
    2c41:	83 c4 1c             	add    $0x1c,%esp
    2c44:	5b                   	pop    %ebx
    2c45:	5d                   	pop    %ebp
    2c46:	c3                   	ret    
    2c47:	55                   	push   %ebp
    2c48:	89 e5                	mov    %esp,%ebp
    2c4a:	83 ec 14             	sub    $0x14,%esp
    2c4d:	b8 11 00 00 00       	mov    $0x11,%eax
    2c52:	cd 80                	int    $0x80
    2c54:	89 45 fc             	mov    %eax,-0x4(%ebp)
    2c57:	83 7d fc 00          	cmpl   $0x0,-0x4(%ebp)
    2c5b:	79 13                	jns    0x2c70
    2c5d:	8b 45 fc             	mov    -0x4(%ebp),%eax
    2c60:	f7 d8                	neg    %eax
    2c62:	a3 32 00 00 01       	mov    %eax,0x1000032
    2c67:	c7 45 ec ff ff ff ff 	movl   $0xffffffff,-0x14(%ebp)
    2c6e:	eb 06                	jmp    0x2c76
    2c70:	8b 45 fc             	mov    -0x4(%ebp),%eax
    2c73:	89 45 ec             	mov    %eax,-0x14(%ebp)
    2c76:	8b 45 ec             	mov    -0x14(%ebp),%eax
    2c79:	c9                   	leave  
    2c7a:	c3                   	ret    
    2c7b:	55                   	push   %ebp
    2c7c:	89 e5                	mov    %esp,%ebp
    2c7e:	53                   	push   %ebx
    2c7f:	83 ec 14             	sub    $0x14,%esp
    2c82:	b8 03 00 00 00       	mov    $0x3,%eax
    2c87:	8b 5d 08             	mov    0x8(%ebp),%ebx
    2c8a:	8b 4d 0c             	mov    0xc(%ebp),%ecx
    2c8d:	cd 80                	int    $0x80
    2c8f:	89 45 f8             	mov    %eax,-0x8(%ebp)
    2c92:	83 7d f8 00          	cmpl   $0x0,-0x8(%ebp)
    2c96:	79 13                	jns    0x2cab
    2c98:	8b 45 f8             	mov    -0x8(%ebp),%eax
    2c9b:	f7 d8                	neg    %eax
    2c9d:	a3 32 00 00 01       	mov    %eax,0x1000032
    2ca2:	c7 45 e8 ff ff ff ff 	movl   $0xffffffff,-0x18(%ebp)
    2ca9:	eb 06                	jmp    0x2cb1
    2cab:	8b 45 f8             	mov    -0x8(%ebp),%eax
    2cae:	89 45 e8             	mov    %eax,-0x18(%ebp)
    2cb1:	8b 45 e8             	mov    -0x18(%ebp),%eax
    2cb4:	83 c4 14             	add    $0x14,%esp
    2cb7:	5b                   	pop    %ebx
    2cb8:	5d                   	pop    %ebp
    2cb9:	c3                   	ret    
    2cba:	55                   	push   %ebp
    2cbb:	89 e5                	mov    %esp,%ebp
    2cbd:	53                   	push   %ebx
    2cbe:	83 ec 14             	sub    $0x14,%esp
    2cc1:	b8 04 00 00 00       	mov    $0x4,%eax
    2cc6:	8b 5d 08             	mov    0x8(%ebp),%ebx
    2cc9:	8b 4d 0c             	mov    0xc(%ebp),%ecx
    2ccc:	cd 80                	int    $0x80
    2cce:	89 45 f8             	mov    %eax,-0x8(%ebp)
    2cd1:	83 7d f8 00          	cmpl   $0x0,-0x8(%ebp)
    2cd5:	79 13                	jns    0x2cea
    2cd7:	8b 45 f8             	mov    -0x8(%ebp),%eax
    2cda:	f7 d8                	neg    %eax
    2cdc:	a3 32 00 00 01       	mov    %eax,0x1000032
    2ce1:	c7 45 e8 ff ff ff ff 	movl   $0xffffffff,-0x18(%ebp)
    2ce8:	eb 06                	jmp    0x2cf0
    2cea:	8b 45 f8             	mov    -0x8(%ebp),%eax
    2ced:	89 45 e8             	mov    %eax,-0x18(%ebp)
    2cf0:	8b 45 e8             	mov    -0x18(%ebp),%eax
    2cf3:	83 c4 14             	add    $0x14,%esp
    2cf6:	5b                   	pop    %ebx
    2cf7:	5d                   	pop    %ebp
    2cf8:	c3                   	ret    
    2cf9:	55                   	push   %ebp
    2cfa:	89 e5                	mov    %esp,%ebp
    2cfc:	83 ec 14             	sub    $0x14,%esp
    2cff:	b8 08 00 00 00       	mov    $0x8,%eax
    2d04:	cd 80                	int    $0x80
    2d06:	89 45 fc             	mov    %eax,-0x4(%ebp)
    2d09:	83 7d fc 00          	cmpl   $0x0,-0x4(%ebp)
    2d0d:	79 13                	jns    0x2d22
    2d0f:	8b 45 fc             	mov    -0x4(%ebp),%eax
    2d12:	f7 d8                	neg    %eax
    2d14:	a3 32 00 00 01       	mov    %eax,0x1000032
    2d19:	c7 45 ec ff ff ff ff 	movl   $0xffffffff,-0x14(%ebp)
    2d20:	eb 06                	jmp    0x2d28
    2d22:	8b 45 fc             	mov    -0x4(%ebp),%eax
    2d25:	89 45 ec             	mov    %eax,-0x14(%ebp)
    2d28:	8b 45 ec             	mov    -0x14(%ebp),%eax
    2d2b:	c9                   	leave  
    2d2c:	c3                   	ret    
    2d2d:	55                   	push   %ebp
    2d2e:	89 e5                	mov    %esp,%ebp
    2d30:	53                   	push   %ebx
    2d31:	83 ec 10             	sub    $0x10,%esp
    2d34:	b8 09 00 00 00       	mov    $0x9,%eax
    2d39:	8b 5d 08             	mov    0x8(%ebp),%ebx
    2d3c:	cd 80                	int    $0x80
    2d3e:	89 45 f8             	mov    %eax,-0x8(%ebp)
    2d41:	83 7d f8 00          	cmpl   $0x0,-0x8(%ebp)
    2d45:	79 0a                	jns    0x2d51
    2d47:	8b 45 f8             	mov    -0x8(%ebp),%eax
    2d4a:	f7 d8                	neg    %eax
    2d4c:	a3 32 00 00 01       	mov    %eax,0x1000032
    2d51:	83 c4 10             	add    $0x10,%esp
    2d54:	5b                   	pop    %ebx
    2d55:	5d                   	pop    %ebp
    2d56:	c3                   	ret    
    2d57:	55                   	push   %ebp
    2d58:	89 e5                	mov    %esp,%ebp
    2d5a:	53                   	push   %ebx
    2d5b:	83 ec 14             	sub    $0x14,%esp
    2d5e:	b8 0d 00 00 00       	mov    $0xd,%eax
    2d63:	8b 5d 08             	mov    0x8(%ebp),%ebx
    2d66:	8b 4d 0c             	mov    0xc(%ebp),%ecx
    2d69:	8b 55 10             	mov    0x10(%ebp),%edx
    2d6c:	cd 80                	int    $0x80
    2d6e:	89 45 f8             	mov    %eax,-0x8(%ebp)
    2d71:	83 7d f8 00          	cmpl   $0x0,-0x8(%ebp)
    2d75:	79 13                	jns    0x2d8a
    2d77:	8b 45 f8             	mov    -0x8(%ebp),%eax
    2d7a:	f7 d8                	neg    %eax
    2d7c:	a3 32 00 00 01       	mov    %eax,0x1000032
    2d81:	c7 45 e8 ff ff ff ff 	movl   $0xffffffff,-0x18(%ebp)
    2d88:	eb 06                	jmp    0x2d90
    2d8a:	8b 45 f8             	mov    -0x8(%ebp),%eax
    2d8d:	89 45 e8             	mov    %eax,-0x18(%ebp)
    2d90:	8b 45 e8             	mov    -0x18(%ebp),%eax
    2d93:	83 c4 14             	add    $0x14,%esp
    2d96:	5b                   	pop    %ebx
    2d97:	5d                   	pop    %ebp
    2d98:	c3                   	ret    
    2d99:	55                   	push   %ebp
    2d9a:	89 e5                	mov    %esp,%ebp
    2d9c:	53                   	push   %ebx
    2d9d:	83 ec 14             	sub    $0x14,%esp
    2da0:	b8 0e 00 00 00       	mov    $0xe,%eax
    2da5:	8b 5d 08             	mov    0x8(%ebp),%ebx
    2da8:	cd 80                	int    $0x80
    2daa:	89 45 f8             	mov    %eax,-0x8(%ebp)
    2dad:	83 7d f8 00          	cmpl   $0x0,-0x8(%ebp)
    2db1:	79 13                	jns    0x2dc6
    2db3:	8b 45 f8             	mov    -0x8(%ebp),%eax
    2db6:	f7 d8                	neg    %eax
    2db8:	a3 32 00 00 01       	mov    %eax,0x1000032
    2dbd:	c7 45 e8 ff ff ff ff 	movl   $0xffffffff,-0x18(%ebp)
    2dc4:	eb 06                	jmp    0x2dcc
    2dc6:	8b 45 f8             	mov    -0x8(%ebp),%eax
    2dc9:	89 45 e8             	mov    %eax,-0x18(%ebp)
    2dcc:	8b 45 e8             	mov    -0x18(%ebp),%eax
    2dcf:	83 c4 14             	add    $0x14,%esp
    2dd2:	5b                   	pop    %ebx
    2dd3:	5d                   	pop    %ebp
    2dd4:	c3                   	ret    
    2dd5:	55                   	push   %ebp
    2dd6:	89 e5                	mov    %esp,%ebp
    2dd8:	83 ec 18             	sub    $0x18,%esp
    2ddb:	c6 45 f7 00          	movb   $0x0,-0x9(%ebp)
    2ddf:	c6 45 f6 00          	movb   $0x0,-0xa(%ebp)
    2de3:	c7 45 fc 00 00 00 00 	movl   $0x0,-0x4(%ebp)
    2dea:	c7 44 24 04 01 00 00 	movl   $0x1,0x4(%esp)
    2df1:	00 
    2df2:	8d 45 f6             	lea    -0xa(%ebp),%eax
    2df5:	89 04 24             	mov    %eax,(%esp)
    2df8:	e8 7e fe ff ff       	call   0x2c7b
    2dfd:	89 45 f8             	mov    %eax,-0x8(%ebp)
    2e00:	83 7d f8 00          	cmpl   $0x0,-0x8(%ebp)
    2e04:	74 0c                	je     0x2e12
    2e06:	c7 04 24 09 43 00 01 	movl   $0x1004309,(%esp)
    2e0d:	e8 5b 00 00 00       	call   0x2e6d
    2e12:	83 7d f8 00          	cmpl   $0x0,-0x8(%ebp)
    2e16:	75 45                	jne    0x2e5d
    2e18:	0f b6 45 f6          	movzbl -0xa(%ebp),%eax
    2e1c:	3c 08                	cmp    $0x8,%al
    2e1e:	75 21                	jne    0x2e41
    2e20:	83 7d fc 00          	cmpl   $0x0,-0x4(%ebp)
    2e24:	74 37                	je     0x2e5d
    2e26:	83 6d fc 01          	subl   $0x1,-0x4(%ebp)
    2e2a:	83 6d 08 01          	subl   $0x1,0x8(%ebp)
    2e2e:	8b 45 08             	mov    0x8(%ebp),%eax
    2e31:	c6 00 00             	movb   $0x0,(%eax)
    2e34:	8d 45 f6             	lea    -0xa(%ebp),%eax
    2e37:	89 04 24             	mov    %eax,(%esp)
    2e3a:	e8 2e 00 00 00       	call   0x2e6d
    2e3f:	eb 1c                	jmp    0x2e5d
    2e41:	83 45 fc 01          	addl   $0x1,-0x4(%ebp)
    2e45:	8d 45 f6             	lea    -0xa(%ebp),%eax
    2e48:	89 04 24             	mov    %eax,(%esp)
    2e4b:	e8 1d 00 00 00       	call   0x2e6d
    2e50:	0f b6 55 f6          	movzbl -0xa(%ebp),%edx
    2e54:	8b 45 08             	mov    0x8(%ebp),%eax
    2e57:	88 10                	mov    %dl,(%eax)
    2e59:	83 45 08 01          	addl   $0x1,0x8(%ebp)
    2e5d:	0f b6 45 f6          	movzbl -0xa(%ebp),%eax
    2e61:	3c 0a                	cmp    $0xa,%al
    2e63:	75 85                	jne    0x2dea
    2e65:	8b 45 08             	mov    0x8(%ebp),%eax
    2e68:	c6 00 00             	movb   $0x0,(%eax)
    2e6b:	c9                   	leave  
    2e6c:	c3                   	ret    
    2e6d:	55                   	push   %ebp
    2e6e:	89 e5                	mov    %esp,%ebp
    2e70:	83 ec 18             	sub    $0x18,%esp
    2e73:	8b 45 08             	mov    0x8(%ebp),%eax
    2e76:	89 04 24             	mov    %eax,(%esp)
    2e79:	e8 a9 fb ff ff       	call   0x2a27
    2e7e:	89 45 fc             	mov    %eax,-0x4(%ebp)
    2e81:	8b 45 fc             	mov    -0x4(%ebp),%eax
    2e84:	89 44 24 04          	mov    %eax,0x4(%esp)
    2e88:	8b 45 08             	mov    0x8(%ebp),%eax
    2e8b:	89 04 24             	mov    %eax,(%esp)
    2e8e:	e8 27 fe ff ff       	call   0x2cba
    2e93:	c9                   	leave  
    2e94:	c3                   	ret    
    2e95:	55                   	push   %ebp
    2e96:	89 e5                	mov    %esp,%ebp
    2e98:	53                   	push   %ebx
    2e99:	83 ec 14             	sub    $0x14,%esp
    2e9c:	b8 06 00 00 00       	mov    $0x6,%eax
    2ea1:	8b 5d 08             	mov    0x8(%ebp),%ebx
    2ea4:	cd 80                	int    $0x80
    2ea6:	89 45 f8             	mov    %eax,-0x8(%ebp)
    2ea9:	83 7d f8 00          	cmpl   $0x0,-0x8(%ebp)
    2ead:	79 13                	jns    0x2ec2
    2eaf:	8b 45 f8             	mov    -0x8(%ebp),%eax
    2eb2:	f7 d8                	neg    %eax
    2eb4:	a3 32 00 00 01       	mov    %eax,0x1000032
    2eb9:	c7 45 e8 ff ff ff ff 	movl   $0xffffffff,-0x18(%ebp)
    2ec0:	eb 06                	jmp    0x2ec8
    2ec2:	8b 45 f8             	mov    -0x8(%ebp),%eax
    2ec5:	89 45 e8             	mov    %eax,-0x18(%ebp)
    2ec8:	8b 45 e8             	mov    -0x18(%ebp),%eax
    2ecb:	83 c4 14             	add    $0x14,%esp
    2ece:	5b                   	pop    %ebx
    2ecf:	5d                   	pop    %ebp
    2ed0:	c3                   	ret    
    2ed1:	55                   	push   %ebp
    2ed2:	89 e5                	mov    %esp,%ebp
    2ed4:	53                   	push   %ebx
    2ed5:	83 ec 14             	sub    $0x14,%esp
    2ed8:	b8 05 00 00 00       	mov    $0x5,%eax
    2edd:	8b 5d 08             	mov    0x8(%ebp),%ebx
    2ee0:	8b 4d 0c             	mov    0xc(%ebp),%ecx
    2ee3:	cd 80                	int    $0x80
    2ee5:	89 45 f8             	mov    %eax,-0x8(%ebp)
    2ee8:	83 7d f8 00          	cmpl   $0x0,-0x8(%ebp)
    2eec:	79 13                	jns    0x2f01
    2eee:	8b 45 f8             	mov    -0x8(%ebp),%eax
    2ef1:	f7 d8                	neg    %eax
    2ef3:	a3 32 00 00 01       	mov    %eax,0x1000032
    2ef8:	c7 45 e8 ff ff ff ff 	movl   $0xffffffff,-0x18(%ebp)
    2eff:	eb 06                	jmp    0x2f07
    2f01:	8b 45 f8             	mov    -0x8(%ebp),%eax
    2f04:	89 45 e8             	mov    %eax,-0x18(%ebp)
    2f07:	8b 45 e8             	mov    -0x18(%ebp),%eax
    2f0a:	83 c4 14             	add    $0x14,%esp
    2f0d:	5b                   	pop    %ebx
    2f0e:	5d                   	pop    %ebp
    2f0f:	c3                   	ret    
    2f10:	55                   	push   %ebp
    2f11:	89 e5                	mov    %esp,%ebp
    2f13:	53                   	push   %ebx
    2f14:	83 ec 14             	sub    $0x14,%esp
    2f17:	b8 12 00 00 00       	mov    $0x12,%eax
    2f1c:	8b 5d 08             	mov    0x8(%ebp),%ebx
    2f1f:	cd 80                	int    $0x80
    2f21:	89 45 f8             	mov    %eax,-0x8(%ebp)
    2f24:	83 7d f8 00          	cmpl   $0x0,-0x8(%ebp)
    2f28:	79 13                	jns    0x2f3d
    2f2a:	8b 45 f8             	mov    -0x8(%ebp),%eax
    2f2d:	f7 d8                	neg    %eax
    2f2f:	a3 32 00 00 01       	mov    %eax,0x1000032
    2f34:	c7 45 e8 ff ff ff ff 	movl   $0xffffffff,-0x18(%ebp)
    2f3b:	eb 06                	jmp    0x2f43
    2f3d:	8b 45 f8             	mov    -0x8(%ebp),%eax
    2f40:	89 45 e8             	mov    %eax,-0x18(%ebp)
    2f43:	8b 45 e8             	mov    -0x18(%ebp),%eax
    2f46:	83 c4 14             	add    $0x14,%esp
    2f49:	5b                   	pop    %ebx
    2f4a:	5d                   	pop    %ebp
    2f4b:	c3                   	ret    
    2f4c:	55                   	push   %ebp
    2f4d:	89 e5                	mov    %esp,%ebp
    2f4f:	53                   	push   %ebx
    2f50:	83 ec 14             	sub    $0x14,%esp
    2f53:	b8 02 00 00 00       	mov    $0x2,%eax
    2f58:	8b 5d 08             	mov    0x8(%ebp),%ebx
    2f5b:	cd 80                	int    $0x80
    2f5d:	89 45 f8             	mov    %eax,-0x8(%ebp)
    2f60:	83 7d f8 00          	cmpl   $0x0,-0x8(%ebp)
    2f64:	79 13                	jns    0x2f79
    2f66:	8b 45 f8             	mov    -0x8(%ebp),%eax
    2f69:	f7 d8                	neg    %eax
    2f6b:	a3 32 00 00 01       	mov    %eax,0x1000032
    2f70:	c7 45 e8 ff ff ff ff 	movl   $0xffffffff,-0x18(%ebp)
    2f77:	eb 06                	jmp    0x2f7f
    2f79:	8b 45 f8             	mov    -0x8(%ebp),%eax
    2f7c:	89 45 e8             	mov    %eax,-0x18(%ebp)
    2f7f:	8b 45 e8             	mov    -0x18(%ebp),%eax
    2f82:	83 c4 14             	add    $0x14,%esp
    2f85:	5b                   	pop    %ebx
    2f86:	5d                   	pop    %ebp
    2f87:	c3                   	ret    
    2f88:	55                   	push   %ebp
    2f89:	89 e5                	mov    %esp,%ebp
    2f8b:	53                   	push   %ebx
    2f8c:	83 ec 14             	sub    $0x14,%esp
    2f8f:	b8 10 00 00 00       	mov    $0x10,%eax
    2f94:	8b 5d 08             	mov    0x8(%ebp),%ebx
    2f97:	cd 80                	int    $0x80
    2f99:	89 45 f8             	mov    %eax,-0x8(%ebp)
    2f9c:	83 7d f8 00          	cmpl   $0x0,-0x8(%ebp)
    2fa0:	79 13                	jns    0x2fb5
    2fa2:	8b 45 f8             	mov    -0x8(%ebp),%eax
    2fa5:	f7 d8                	neg    %eax
    2fa7:	a3 32 00 00 01       	mov    %eax,0x1000032
    2fac:	c7 45 e8 ff ff ff ff 	movl   $0xffffffff,-0x18(%ebp)
    2fb3:	eb 06                	jmp    0x2fbb
    2fb5:	8b 45 f8             	mov    -0x8(%ebp),%eax
    2fb8:	89 45 e8             	mov    %eax,-0x18(%ebp)
    2fbb:	8b 45 e8             	mov    -0x18(%ebp),%eax
    2fbe:	83 c4 14             	add    $0x14,%esp
    2fc1:	5b                   	pop    %ebx
    2fc2:	5d                   	pop    %ebp
    2fc3:	c3                   	ret    
    2fc4:	55                   	push   %ebp
    2fc5:	89 e5                	mov    %esp,%ebp
    2fc7:	53                   	push   %ebx
    2fc8:	83 ec 14             	sub    $0x14,%esp
    2fcb:	b8 0f 00 00 00       	mov    $0xf,%eax
    2fd0:	8b 5d 08             	mov    0x8(%ebp),%ebx
    2fd3:	8b 4d 0c             	mov    0xc(%ebp),%ecx
    2fd6:	cd 80                	int    $0x80
    2fd8:	89 45 f8             	mov    %eax,-0x8(%ebp)
    2fdb:	83 7d f8 00          	cmpl   $0x0,-0x8(%ebp)
    2fdf:	79 13                	jns    0x2ff4
    2fe1:	8b 45 f8             	mov    -0x8(%ebp),%eax
    2fe4:	f7 d8                	neg    %eax
    2fe6:	a3 32 00 00 01       	mov    %eax,0x1000032
    2feb:	c7 45 e8 ff ff ff ff 	movl   $0xffffffff,-0x18(%ebp)
    2ff2:	eb 06                	jmp    0x2ffa
    2ff4:	8b 45 f8             	mov    -0x8(%ebp),%eax
    2ff7:	89 45 e8             	mov    %eax,-0x18(%ebp)
    2ffa:	8b 45 e8             	mov    -0x18(%ebp),%eax
    2ffd:	83 c4 14             	add    $0x14,%esp
    3000:	5b                   	pop    %ebx
    3001:	5d                   	pop    %ebp
    3002:	c3                   	ret    
    3003:	55                   	push   %ebp
    3004:	89 e5                	mov    %esp,%ebp
    3006:	53                   	push   %ebx
    3007:	83 ec 14             	sub    $0x14,%esp
    300a:	b8 14 00 00 00       	mov    $0x14,%eax
    300f:	8b 5d 08             	mov    0x8(%ebp),%ebx
    3012:	8b 4d 0c             	mov    0xc(%ebp),%ecx
    3015:	cd 80                	int    $0x80
    3017:	89 45 f8             	mov    %eax,-0x8(%ebp)
    301a:	83 7d f8 00          	cmpl   $0x0,-0x8(%ebp)
    301e:	79 13                	jns    0x3033
    3020:	8b 45 f8             	mov    -0x8(%ebp),%eax
    3023:	f7 d8                	neg    %eax
    3025:	a3 32 00 00 01       	mov    %eax,0x1000032
    302a:	c7 45 e8 ff ff ff ff 	movl   $0xffffffff,-0x18(%ebp)
    3031:	eb 06                	jmp    0x3039
    3033:	8b 45 f8             	mov    -0x8(%ebp),%eax
    3036:	89 45 e8             	mov    %eax,-0x18(%ebp)
    3039:	8b 45 e8             	mov    -0x18(%ebp),%eax
    303c:	83 c4 14             	add    $0x14,%esp
    303f:	5b                   	pop    %ebx
    3040:	5d                   	pop    %ebp
    3041:	c3                   	ret    
    3042:	55                   	push   %ebp
    3043:	89 e5                	mov    %esp,%ebp
    3045:	53                   	push   %ebx
    3046:	83 ec 14             	sub    $0x14,%esp
    3049:	b8 15 00 00 00       	mov    $0x15,%eax
    304e:	8b 5d 08             	mov    0x8(%ebp),%ebx
    3051:	8b 4d 0c             	mov    0xc(%ebp),%ecx
    3054:	8b 55 10             	mov    0x10(%ebp),%edx
    3057:	cd 80                	int    $0x80
    3059:	89 45 f8             	mov    %eax,-0x8(%ebp)
    305c:	83 7d f8 00          	cmpl   $0x0,-0x8(%ebp)
    3060:	79 13                	jns    0x3075
    3062:	8b 45 f8             	mov    -0x8(%ebp),%eax
    3065:	f7 d8                	neg    %eax
    3067:	a3 32 00 00 01       	mov    %eax,0x1000032
    306c:	c7 45 e8 ff ff ff ff 	movl   $0xffffffff,-0x18(%ebp)
    3073:	eb 06                	jmp    0x307b
    3075:	8b 45 f8             	mov    -0x8(%ebp),%eax
    3078:	89 45 e8             	mov    %eax,-0x18(%ebp)
    307b:	8b 45 e8             	mov    -0x18(%ebp),%eax
    307e:	83 c4 14             	add    $0x14,%esp
    3081:	5b                   	pop    %ebx
    3082:	5d                   	pop    %ebp
    3083:	c3                   	ret    
    3084:	55                   	push   %ebp
    3085:	89 e5                	mov    %esp,%ebp
    3087:	83 ec 14             	sub    $0x14,%esp
    308a:	b8 16 00 00 00       	mov    $0x16,%eax
    308f:	cd 80                	int    $0x80
    3091:	89 45 fc             	mov    %eax,-0x4(%ebp)
    3094:	83 7d fc 00          	cmpl   $0x0,-0x4(%ebp)
    3098:	79 13                	jns    0x30ad
    309a:	8b 45 fc             	mov    -0x4(%ebp),%eax
    309d:	f7 d8                	neg    %eax
    309f:	a3 32 00 00 01       	mov    %eax,0x1000032
    30a4:	c7 45 ec ff ff ff ff 	movl   $0xffffffff,-0x14(%ebp)
    30ab:	eb 06                	jmp    0x30b3
    30ad:	8b 45 fc             	mov    -0x4(%ebp),%eax
    30b0:	89 45 ec             	mov    %eax,-0x14(%ebp)
    30b3:	8b 45 ec             	mov    -0x14(%ebp),%eax
    30b6:	c9                   	leave  
    30b7:	c3                   	ret    
    30b8:	55                   	push   %ebp
    30b9:	89 e5                	mov    %esp,%ebp
    30bb:	83 ec 14             	sub    $0x14,%esp
    30be:	b8 17 00 00 00       	mov    $0x17,%eax
    30c3:	cd 80                	int    $0x80
    30c5:	89 45 fc             	mov    %eax,-0x4(%ebp)
    30c8:	83 7d fc 00          	cmpl   $0x0,-0x4(%ebp)
    30cc:	79 13                	jns    0x30e1
    30ce:	8b 45 fc             	mov    -0x4(%ebp),%eax
    30d1:	f7 d8                	neg    %eax
    30d3:	a3 32 00 00 01       	mov    %eax,0x1000032
    30d8:	c7 45 ec ff ff ff ff 	movl   $0xffffffff,-0x14(%ebp)
    30df:	eb 06                	jmp    0x30e7
    30e1:	8b 45 fc             	mov    -0x4(%ebp),%eax
    30e4:	89 45 ec             	mov    %eax,-0x14(%ebp)
    30e7:	8b 45 ec             	mov    -0x14(%ebp),%eax
    30ea:	c9                   	leave  
    30eb:	c3                   	ret    
    30ec:	55                   	push   %ebp
    30ed:	89 e5                	mov    %esp,%ebp
    30ef:	83 ec 08             	sub    $0x8,%esp
    30f2:	e8 69 08 00 00       	call   0x3960
    30f7:	c9                   	leave  
    30f8:	c3                   	ret    
    30f9:	90                   	nop
    30fa:	90                   	nop
    30fb:	90                   	nop
    30fc:	55                   	push   %ebp
    30fd:	89 e5                	mov    %esp,%ebp
    30ff:	81 ec 18 02 00 00    	sub    $0x218,%esp
    3105:	8d 45 08             	lea    0x8(%ebp),%eax
    3108:	83 c0 04             	add    $0x4,%eax
    310b:	89 45 f8             	mov    %eax,-0x8(%ebp)
    310e:	8b 55 08             	mov    0x8(%ebp),%edx
    3111:	8b 45 f8             	mov    -0x8(%ebp),%eax
    3114:	89 44 24 08          	mov    %eax,0x8(%esp)
    3118:	89 54 24 04          	mov    %edx,0x4(%esp)
    311c:	8d 85 04 fe ff ff    	lea    -0x1fc(%ebp),%eax
    3122:	89 04 24             	mov    %eax,(%esp)
    3125:	e8 b5 03 00 00       	call   0x34df
    312a:	89 45 fc             	mov    %eax,-0x4(%ebp)
    312d:	8d 85 04 fe ff ff    	lea    -0x1fc(%ebp),%eax
    3133:	89 04 24             	mov    %eax,(%esp)
    3136:	e8 32 fd ff ff       	call   0x2e6d
    313b:	8b 45 fc             	mov    -0x4(%ebp),%eax
    313e:	c9                   	leave  
    313f:	c3                   	ret    
    3140:	55                   	push   %ebp
    3141:	89 e5                	mov    %esp,%ebp
    3143:	83 ec 28             	sub    $0x28,%esp
    3146:	c7 45 f8 00 00 00 00 	movl   $0x0,-0x8(%ebp)
    314d:	83 7d 10 00          	cmpl   $0x0,0x10(%ebp)
    3151:	75 5c                	jne    0x31af
    3153:	c7 45 10 0a 00 00 00 	movl   $0xa,0x10(%ebp)
    315a:	8b 45 08             	mov    0x8(%ebp),%eax
    315d:	0f b6 00             	movzbl (%eax),%eax
    3160:	3c 30                	cmp    $0x30,%al
    3162:	75 4b                	jne    0x31af
    3164:	c7 45 10 08 00 00 00 	movl   $0x8,0x10(%ebp)
    316b:	83 45 08 01          	addl   $0x1,0x8(%ebp)
    316f:	8b 45 08             	mov    0x8(%ebp),%eax
    3172:	0f b6 00             	movzbl (%eax),%eax
    3175:	3c 78                	cmp    $0x78,%al
    3177:	75 36                	jne    0x31af
    3179:	8b 45 08             	mov    0x8(%ebp),%eax
    317c:	83 c0 01             	add    $0x1,%eax
    317f:	0f b6 00             	movzbl (%eax),%eax
    3182:	0f be c0             	movsbl %al,%eax
    3185:	89 04 24             	mov    %eax,(%esp)
    3188:	e8 72 0f 00 00       	call   0x40ff
    318d:	85 c0                	test   %eax,%eax
    318f:	74 1e                	je     0x31af
    3191:	83 45 08 01          	addl   $0x1,0x8(%ebp)
    3195:	c7 45 10 10 00 00 00 	movl   $0x10,0x10(%ebp)
    319c:	eb 11                	jmp    0x31af
    319e:	8b 45 f8             	mov    -0x8(%ebp),%eax
    31a1:	0f af 45 10          	imul   0x10(%ebp),%eax
    31a5:	03 45 fc             	add    -0x4(%ebp),%eax
    31a8:	89 45 f8             	mov    %eax,-0x8(%ebp)
    31ab:	83 45 08 01          	addl   $0x1,0x8(%ebp)
    31af:	8b 45 08             	mov    0x8(%ebp),%eax
    31b2:	0f b6 00             	movzbl (%eax),%eax
    31b5:	0f be c0             	movsbl %al,%eax
    31b8:	89 04 24             	mov    %eax,(%esp)
    31bb:	e8 3f 0f 00 00       	call   0x40ff
    31c0:	85 c0                	test   %eax,%eax
    31c2:	74 7b                	je     0x323f
    31c4:	8b 45 08             	mov    0x8(%ebp),%eax
    31c7:	0f b6 00             	movzbl (%eax),%eax
    31ca:	0f be c0             	movsbl %al,%eax
    31cd:	89 04 24             	mov    %eax,(%esp)
    31d0:	e8 03 0f 00 00       	call   0x40d8
    31d5:	85 c0                	test   %eax,%eax
    31d7:	74 11                	je     0x31ea
    31d9:	8b 45 08             	mov    0x8(%ebp),%eax
    31dc:	0f b6 00             	movzbl (%eax),%eax
    31df:	0f be c0             	movsbl %al,%eax
    31e2:	83 e8 30             	sub    $0x30,%eax
    31e5:	89 45 e8             	mov    %eax,-0x18(%ebp)
    31e8:	eb 43                	jmp    0x322d
    31ea:	8b 45 08             	mov    0x8(%ebp),%eax
    31ed:	0f b6 00             	movzbl (%eax),%eax
    31f0:	0f be c0             	movsbl %al,%eax
    31f3:	89 04 24             	mov    %eax,(%esp)
    31f6:	e8 43 0f 00 00       	call   0x413e
    31fb:	85 c0                	test   %eax,%eax
    31fd:	74 19                	je     0x3218
    31ff:	8b 45 08             	mov    0x8(%ebp),%eax
    3202:	0f b6 00             	movzbl (%eax),%eax
    3205:	0f be c0             	movsbl %al,%eax
    3208:	89 04 24             	mov    %eax,(%esp)
    320b:	e8 dc 0f 00 00       	call   0x41ec
    3210:	83 e8 37             	sub    $0x37,%eax
    3213:	89 45 ec             	mov    %eax,-0x14(%ebp)
    3216:	eb 0f                	jmp    0x3227
    3218:	8b 45 08             	mov    0x8(%ebp),%eax
    321b:	0f b6 00             	movzbl (%eax),%eax
    321e:	0f be c0             	movsbl %al,%eax
    3221:	83 e8 37             	sub    $0x37,%eax
    3224:	89 45 ec             	mov    %eax,-0x14(%ebp)
    3227:	8b 45 ec             	mov    -0x14(%ebp),%eax
    322a:	89 45 e8             	mov    %eax,-0x18(%ebp)
    322d:	8b 45 e8             	mov    -0x18(%ebp),%eax
    3230:	89 45 fc             	mov    %eax,-0x4(%ebp)
    3233:	8b 45 fc             	mov    -0x4(%ebp),%eax
    3236:	3b 45 10             	cmp    0x10(%ebp),%eax
    3239:	0f 82 5f ff ff ff    	jb     0x319e
    323f:	83 7d 0c 00          	cmpl   $0x0,0xc(%ebp)
    3243:	74 08                	je     0x324d
    3245:	8b 55 08             	mov    0x8(%ebp),%edx
    3248:	8b 45 0c             	mov    0xc(%ebp),%eax
    324b:	89 10                	mov    %edx,(%eax)
    324d:	8b 45 f8             	mov    -0x8(%ebp),%eax
    3250:	c9                   	leave  
    3251:	c3                   	ret    
    3252:	55                   	push   %ebp
    3253:	89 e5                	mov    %esp,%ebp
    3255:	83 ec 18             	sub    $0x18,%esp
    3258:	c7 45 fc 00 00 00 00 	movl   $0x0,-0x4(%ebp)
    325f:	eb 2a                	jmp    0x328b
    3261:	8b 55 fc             	mov    -0x4(%ebp),%edx
    3264:	89 d0                	mov    %edx,%eax
    3266:	c1 e0 02             	shl    $0x2,%eax
    3269:	01 d0                	add    %edx,%eax
    326b:	01 c0                	add    %eax,%eax
    326d:	89 c2                	mov    %eax,%edx
    326f:	8b 45 08             	mov    0x8(%ebp),%eax
    3272:	8b 08                	mov    (%eax),%ecx
    3274:	0f b6 01             	movzbl (%ecx),%eax
    3277:	0f be c0             	movsbl %al,%eax
    327a:	8d 04 02             	lea    (%edx,%eax,1),%eax
    327d:	83 e8 30             	sub    $0x30,%eax
    3280:	89 45 fc             	mov    %eax,-0x4(%ebp)
    3283:	8d 51 01             	lea    0x1(%ecx),%edx
    3286:	8b 45 08             	mov    0x8(%ebp),%eax
    3289:	89 10                	mov    %edx,(%eax)
    328b:	8b 45 08             	mov    0x8(%ebp),%eax
    328e:	8b 00                	mov    (%eax),%eax
    3290:	0f b6 00             	movzbl (%eax),%eax
    3293:	0f be c0             	movsbl %al,%eax
    3296:	89 04 24             	mov    %eax,(%esp)
    3299:	e8 3a 0e 00 00       	call   0x40d8
    329e:	85 c0                	test   %eax,%eax
    32a0:	75 bf                	jne    0x3261
    32a2:	8b 45 fc             	mov    -0x4(%ebp),%eax
    32a5:	c9                   	leave  
    32a6:	c3                   	ret    
    32a7:	55                   	push   %ebp
    32a8:	89 e5                	mov    %esp,%ebp
    32aa:	53                   	push   %ebx
    32ab:	83 ec 48             	sub    $0x48,%esp
    32ae:	c7 45 f0 10 43 00 01 	movl   $0x1004310,-0x10(%ebp)
    32b5:	8b 45 1c             	mov    0x1c(%ebp),%eax
    32b8:	83 e0 40             	and    $0x40,%eax
    32bb:	85 c0                	test   %eax,%eax
    32bd:	74 07                	je     0x32c6
    32bf:	c7 45 f0 38 43 00 01 	movl   $0x1004338,-0x10(%ebp)
    32c6:	8b 45 1c             	mov    0x1c(%ebp),%eax
    32c9:	83 e0 10             	and    $0x10,%eax
    32cc:	85 c0                	test   %eax,%eax
    32ce:	74 04                	je     0x32d4
    32d0:	83 65 1c fe          	andl   $0xfffffffe,0x1c(%ebp)
    32d4:	83 7d 10 01          	cmpl   $0x1,0x10(%ebp)
    32d8:	7e 06                	jle    0x32e0
    32da:	83 7d 10 24          	cmpl   $0x24,0x10(%ebp)
    32de:	7e 0c                	jle    0x32ec
    32e0:	c7 45 b4 00 00 00 00 	movl   $0x0,-0x4c(%ebp)
    32e7:	e9 ea 01 00 00       	jmp    0x34d6
    32ec:	8b 45 1c             	mov    0x1c(%ebp),%eax
    32ef:	83 e0 01             	and    $0x1,%eax
    32f2:	84 c0                	test   %al,%al
    32f4:	74 06                	je     0x32fc
    32f6:	c6 45 b9 30          	movb   $0x30,-0x47(%ebp)
    32fa:	eb 04                	jmp    0x3300
    32fc:	c6 45 b9 20          	movb   $0x20,-0x47(%ebp)
    3300:	0f b6 45 b9          	movzbl -0x47(%ebp),%eax
    3304:	88 45 ee             	mov    %al,-0x12(%ebp)
    3307:	8b 45 1c             	mov    0x1c(%ebp),%eax
    330a:	83 e0 02             	and    $0x2,%eax
    330d:	85 c0                	test   %eax,%eax
    330f:	74 0f                	je     0x3320
    3311:	83 7d 0c 00          	cmpl   $0x0,0xc(%ebp)
    3315:	79 09                	jns    0x3320
    3317:	c6 45 ef 2d          	movb   $0x2d,-0x11(%ebp)
    331b:	f7 5d 0c             	negl   0xc(%ebp)
    331e:	eb 32                	jmp    0x3352
    3320:	8b 45 1c             	mov    0x1c(%ebp),%eax
    3323:	83 e0 04             	and    $0x4,%eax
    3326:	85 c0                	test   %eax,%eax
    3328:	75 1d                	jne    0x3347
    332a:	8b 45 1c             	mov    0x1c(%ebp),%eax
    332d:	83 e0 08             	and    $0x8,%eax
    3330:	85 c0                	test   %eax,%eax
    3332:	74 06                	je     0x333a
    3334:	c6 45 bb 20          	movb   $0x20,-0x45(%ebp)
    3338:	eb 04                	jmp    0x333e
    333a:	c6 45 bb 00          	movb   $0x0,-0x45(%ebp)
    333e:	0f b6 45 bb          	movzbl -0x45(%ebp),%eax
    3342:	88 45 ba             	mov    %al,-0x46(%ebp)
    3345:	eb 04                	jmp    0x334b
    3347:	c6 45 ba 2b          	movb   $0x2b,-0x46(%ebp)
    334b:	0f b6 45 ba          	movzbl -0x46(%ebp),%eax
    334f:	88 45 ef             	mov    %al,-0x11(%ebp)
    3352:	80 7d ef 00          	cmpb   $0x0,-0x11(%ebp)
    3356:	74 04                	je     0x335c
    3358:	83 6d 14 01          	subl   $0x1,0x14(%ebp)
    335c:	8b 45 1c             	mov    0x1c(%ebp),%eax
    335f:	83 e0 20             	and    $0x20,%eax
    3362:	85 c0                	test   %eax,%eax
    3364:	74 16                	je     0x337c
    3366:	83 7d 10 10          	cmpl   $0x10,0x10(%ebp)
    336a:	75 06                	jne    0x3372
    336c:	83 6d 14 02          	subl   $0x2,0x14(%ebp)
    3370:	eb 0a                	jmp    0x337c
    3372:	83 7d 10 08          	cmpl   $0x8,0x10(%ebp)
    3376:	75 04                	jne    0x337c
    3378:	83 6d 14 01          	subl   $0x1,0x14(%ebp)
    337c:	c7 45 f4 00 00 00 00 	movl   $0x0,-0xc(%ebp)
    3383:	83 7d 0c 00          	cmpl   $0x0,0xc(%ebp)
    3387:	75 35                	jne    0x33be
    3389:	8b 45 f4             	mov    -0xc(%ebp),%eax
    338c:	c6 44 05 ca 30       	movb   $0x30,-0x36(%ebp,%eax,1)
    3391:	83 45 f4 01          	addl   $0x1,-0xc(%ebp)
    3395:	eb 2d                	jmp    0x33c4
    3397:	8b 5d f4             	mov    -0xc(%ebp),%ebx
    339a:	8b 45 0c             	mov    0xc(%ebp),%eax
    339d:	ba 00 00 00 00       	mov    $0x0,%edx
    33a2:	8b 4d 10             	mov    0x10(%ebp),%ecx
    33a5:	f7 f1                	div    %ecx
    33a7:	89 45 0c             	mov    %eax,0xc(%ebp)
    33aa:	89 55 f8             	mov    %edx,-0x8(%ebp)
    33ad:	8b 45 f8             	mov    -0x8(%ebp),%eax
    33b0:	03 45 f0             	add    -0x10(%ebp),%eax
    33b3:	0f b6 00             	movzbl (%eax),%eax
    33b6:	88 44 1d ca          	mov    %al,-0x36(%ebp,%ebx,1)
    33ba:	83 45 f4 01          	addl   $0x1,-0xc(%ebp)
    33be:	83 7d 0c 00          	cmpl   $0x0,0xc(%ebp)
    33c2:	75 d3                	jne    0x3397
    33c4:	8b 45 f4             	mov    -0xc(%ebp),%eax
    33c7:	3b 45 18             	cmp    0x18(%ebp),%eax
    33ca:	7e 06                	jle    0x33d2
    33cc:	8b 45 f4             	mov    -0xc(%ebp),%eax
    33cf:	89 45 18             	mov    %eax,0x18(%ebp)
    33d2:	8b 45 18             	mov    0x18(%ebp),%eax
    33d5:	29 45 14             	sub    %eax,0x14(%ebp)
    33d8:	8b 45 1c             	mov    0x1c(%ebp),%eax
    33db:	83 e0 11             	and    $0x11,%eax
    33de:	85 c0                	test   %eax,%eax
    33e0:	75 1b                	jne    0x33fd
    33e2:	eb 0a                	jmp    0x33ee
    33e4:	8b 45 08             	mov    0x8(%ebp),%eax
    33e7:	c6 00 20             	movb   $0x20,(%eax)
    33ea:	83 45 08 01          	addl   $0x1,0x8(%ebp)
    33ee:	83 7d 14 00          	cmpl   $0x0,0x14(%ebp)
    33f2:	0f 9f c0             	setg   %al
    33f5:	83 6d 14 01          	subl   $0x1,0x14(%ebp)
    33f9:	84 c0                	test   %al,%al
    33fb:	75 e7                	jne    0x33e4
    33fd:	80 7d ef 00          	cmpb   $0x0,-0x11(%ebp)
    3401:	74 0d                	je     0x3410
    3403:	8b 55 08             	mov    0x8(%ebp),%edx
    3406:	0f b6 45 ef          	movzbl -0x11(%ebp),%eax
    340a:	88 02                	mov    %al,(%edx)
    340c:	83 45 08 01          	addl   $0x1,0x8(%ebp)
    3410:	8b 45 1c             	mov    0x1c(%ebp),%eax
    3413:	83 e0 20             	and    $0x20,%eax
    3416:	85 c0                	test   %eax,%eax
    3418:	74 34                	je     0x344e
    341a:	83 7d 10 08          	cmpl   $0x8,0x10(%ebp)
    341e:	75 0c                	jne    0x342c
    3420:	8b 45 08             	mov    0x8(%ebp),%eax
    3423:	c6 00 30             	movb   $0x30,(%eax)
    3426:	83 45 08 01          	addl   $0x1,0x8(%ebp)
    342a:	eb 22                	jmp    0x344e
    342c:	83 7d 10 10          	cmpl   $0x10,0x10(%ebp)
    3430:	75 1c                	jne    0x344e
    3432:	8b 45 08             	mov    0x8(%ebp),%eax
    3435:	c6 00 30             	movb   $0x30,(%eax)
    3438:	83 45 08 01          	addl   $0x1,0x8(%ebp)
    343c:	8b 45 f0             	mov    -0x10(%ebp),%eax
    343f:	83 c0 21             	add    $0x21,%eax
    3442:	0f b6 10             	movzbl (%eax),%edx
    3445:	8b 45 08             	mov    0x8(%ebp),%eax
    3448:	88 10                	mov    %dl,(%eax)
    344a:	83 45 08 01          	addl   $0x1,0x8(%ebp)
    344e:	8b 45 1c             	mov    0x1c(%ebp),%eax
    3451:	83 e0 10             	and    $0x10,%eax
    3454:	85 c0                	test   %eax,%eax
    3456:	75 2a                	jne    0x3482
    3458:	eb 0d                	jmp    0x3467
    345a:	8b 55 08             	mov    0x8(%ebp),%edx
    345d:	0f b6 45 ee          	movzbl -0x12(%ebp),%eax
    3461:	88 02                	mov    %al,(%edx)
    3463:	83 45 08 01          	addl   $0x1,0x8(%ebp)
    3467:	83 7d 14 00          	cmpl   $0x0,0x14(%ebp)
    346b:	0f 9f c0             	setg   %al
    346e:	83 6d 14 01          	subl   $0x1,0x14(%ebp)
    3472:	84 c0                	test   %al,%al
    3474:	75 e4                	jne    0x345a
    3476:	eb 0a                	jmp    0x3482
    3478:	8b 45 08             	mov    0x8(%ebp),%eax
    347b:	c6 00 30             	movb   $0x30,(%eax)
    347e:	83 45 08 01          	addl   $0x1,0x8(%ebp)
    3482:	8b 45 18             	mov    0x18(%ebp),%eax
    3485:	3b 45 f4             	cmp    -0xc(%ebp),%eax
    3488:	0f 9f c0             	setg   %al
    348b:	83 6d 18 01          	subl   $0x1,0x18(%ebp)
    348f:	84 c0                	test   %al,%al
    3491:	75 e5                	jne    0x3478
    3493:	eb 11                	jmp    0x34a6
    3495:	8b 45 f4             	mov    -0xc(%ebp),%eax
    3498:	0f b6 54 05 ca       	movzbl -0x36(%ebp,%eax,1),%edx
    349d:	8b 45 08             	mov    0x8(%ebp),%eax
    34a0:	88 10                	mov    %dl,(%eax)
    34a2:	83 45 08 01          	addl   $0x1,0x8(%ebp)
    34a6:	83 7d f4 00          	cmpl   $0x0,-0xc(%ebp)
    34aa:	0f 9f c0             	setg   %al
    34ad:	83 6d f4 01          	subl   $0x1,-0xc(%ebp)
    34b1:	84 c0                	test   %al,%al
    34b3:	75 e0                	jne    0x3495
    34b5:	eb 0a                	jmp    0x34c1
    34b7:	8b 45 08             	mov    0x8(%ebp),%eax
    34ba:	c6 00 20             	movb   $0x20,(%eax)
    34bd:	83 45 08 01          	addl   $0x1,0x8(%ebp)
    34c1:	83 7d 14 00          	cmpl   $0x0,0x14(%ebp)
    34c5:	0f 9f c0             	setg   %al
    34c8:	83 6d 14 01          	subl   $0x1,0x14(%ebp)
    34cc:	84 c0                	test   %al,%al
    34ce:	75 e7                	jne    0x34b7
    34d0:	8b 45 08             	mov    0x8(%ebp),%eax
    34d3:	89 45 b4             	mov    %eax,-0x4c(%ebp)
    34d6:	8b 45 b4             	mov    -0x4c(%ebp),%eax
    34d9:	83 c4 48             	add    $0x48,%esp
    34dc:	5b                   	pop    %ebx
    34dd:	5d                   	pop    %ebp
    34de:	c3                   	ret    
    34df:	55                   	push   %ebp
    34e0:	89 e5                	mov    %esp,%ebp
    34e2:	83 ec 58             	sub    $0x58,%esp
    34e5:	8b 45 08             	mov    0x8(%ebp),%eax
    34e8:	89 45 e4             	mov    %eax,-0x1c(%ebp)
    34eb:	e9 1b 04 00 00       	jmp    0x390b
    34f0:	8b 45 0c             	mov    0xc(%ebp),%eax
    34f3:	0f b6 00             	movzbl (%eax),%eax
    34f6:	3c 25                	cmp    $0x25,%al
    34f8:	74 14                	je     0x350e
    34fa:	8b 45 0c             	mov    0xc(%ebp),%eax
    34fd:	0f b6 10             	movzbl (%eax),%edx
    3500:	8b 45 e4             	mov    -0x1c(%ebp),%eax
    3503:	88 10                	mov    %dl,(%eax)
    3505:	83 45 e4 01          	addl   $0x1,-0x1c(%ebp)
    3509:	e9 f4 03 00 00       	jmp    0x3902
    350e:	c7 45 f0 00 00 00 00 	movl   $0x0,-0x10(%ebp)
    3515:	8b 45 0c             	mov    0xc(%ebp),%eax
    3518:	83 c0 01             	add    $0x1,%eax
    351b:	89 45 0c             	mov    %eax,0xc(%ebp)
    351e:	8b 45 0c             	mov    0xc(%ebp),%eax
    3521:	0f b6 00             	movzbl (%eax),%eax
    3524:	0f be c0             	movsbl %al,%eax
    3527:	83 e8 20             	sub    $0x20,%eax
    352a:	89 45 cc             	mov    %eax,-0x34(%ebp)
    352d:	83 7d cc 10          	cmpl   $0x10,-0x34(%ebp)
    3531:	77 2a                	ja     0x355d
    3533:	8b 55 cc             	mov    -0x34(%ebp),%edx
    3536:	8b 04 95 64 43 00 01 	mov    0x1004364(,%edx,4),%eax
    353d:	ff e0                	jmp    *%eax
    353f:	83 4d f0 10          	orl    $0x10,-0x10(%ebp)
    3543:	eb d0                	jmp    0x3515
    3545:	83 4d f0 04          	orl    $0x4,-0x10(%ebp)
    3549:	eb ca                	jmp    0x3515
    354b:	83 4d f0 08          	orl    $0x8,-0x10(%ebp)
    354f:	eb c4                	jmp    0x3515
    3551:	83 4d f0 20          	orl    $0x20,-0x10(%ebp)
    3555:	eb be                	jmp    0x3515
    3557:	83 4d f0 01          	orl    $0x1,-0x10(%ebp)
    355b:	eb b8                	jmp    0x3515
    355d:	c7 45 f4 ff ff ff ff 	movl   $0xffffffff,-0xc(%ebp)
    3564:	8b 45 0c             	mov    0xc(%ebp),%eax
    3567:	0f b6 00             	movzbl (%eax),%eax
    356a:	0f be c0             	movsbl %al,%eax
    356d:	89 04 24             	mov    %eax,(%esp)
    3570:	e8 63 0b 00 00       	call   0x40d8
    3575:	85 c0                	test   %eax,%eax
    3577:	74 10                	je     0x3589
    3579:	8d 45 0c             	lea    0xc(%ebp),%eax
    357c:	89 04 24             	mov    %eax,(%esp)
    357f:	e8 ce fc ff ff       	call   0x3252
    3584:	89 45 f4             	mov    %eax,-0xc(%ebp)
    3587:	eb 2f                	jmp    0x35b8
    3589:	8b 45 0c             	mov    0xc(%ebp),%eax
    358c:	0f b6 00             	movzbl (%eax),%eax
    358f:	3c 2a                	cmp    $0x2a,%al
    3591:	75 25                	jne    0x35b8
    3593:	8b 45 0c             	mov    0xc(%ebp),%eax
    3596:	83 c0 01             	add    $0x1,%eax
    3599:	89 45 0c             	mov    %eax,0xc(%ebp)
    359c:	83 45 10 04          	addl   $0x4,0x10(%ebp)
    35a0:	8b 45 10             	mov    0x10(%ebp),%eax
    35a3:	83 e8 04             	sub    $0x4,%eax
    35a6:	8b 00                	mov    (%eax),%eax
    35a8:	89 45 f4             	mov    %eax,-0xc(%ebp)
    35ab:	83 7d f4 00          	cmpl   $0x0,-0xc(%ebp)
    35af:	79 07                	jns    0x35b8
    35b1:	f7 5d f4             	negl   -0xc(%ebp)
    35b4:	83 4d f0 10          	orl    $0x10,-0x10(%ebp)
    35b8:	c7 45 f8 ff ff ff ff 	movl   $0xffffffff,-0x8(%ebp)
    35bf:	8b 45 0c             	mov    0xc(%ebp),%eax
    35c2:	0f b6 00             	movzbl (%eax),%eax
    35c5:	3c 2e                	cmp    $0x2e,%al
    35c7:	75 5d                	jne    0x3626
    35c9:	8b 45 0c             	mov    0xc(%ebp),%eax
    35cc:	83 c0 01             	add    $0x1,%eax
    35cf:	89 45 0c             	mov    %eax,0xc(%ebp)
    35d2:	8b 45 0c             	mov    0xc(%ebp),%eax
    35d5:	0f b6 00             	movzbl (%eax),%eax
    35d8:	0f be c0             	movsbl %al,%eax
    35db:	89 04 24             	mov    %eax,(%esp)
    35de:	e8 f5 0a 00 00       	call   0x40d8
    35e3:	85 c0                	test   %eax,%eax
    35e5:	74 10                	je     0x35f7
    35e7:	8d 45 0c             	lea    0xc(%ebp),%eax
    35ea:	89 04 24             	mov    %eax,(%esp)
    35ed:	e8 60 fc ff ff       	call   0x3252
    35f2:	89 45 f8             	mov    %eax,-0x8(%ebp)
    35f5:	eb 22                	jmp    0x3619
    35f7:	8b 45 0c             	mov    0xc(%ebp),%eax
    35fa:	0f b6 00             	movzbl (%eax),%eax
    35fd:	3c 2a                	cmp    $0x2a,%al
    35ff:	75 18                	jne    0x3619
    3601:	8b 45 0c             	mov    0xc(%ebp),%eax
    3604:	83 c0 01             	add    $0x1,%eax
    3607:	89 45 0c             	mov    %eax,0xc(%ebp)
    360a:	83 45 10 04          	addl   $0x4,0x10(%ebp)
    360e:	8b 45 10             	mov    0x10(%ebp),%eax
    3611:	83 e8 04             	sub    $0x4,%eax
    3614:	8b 00                	mov    (%eax),%eax
    3616:	89 45 f8             	mov    %eax,-0x8(%ebp)
    3619:	83 7d f8 00          	cmpl   $0x0,-0x8(%ebp)
    361d:	79 07                	jns    0x3626
    361f:	c7 45 f8 00 00 00 00 	movl   $0x0,-0x8(%ebp)
    3626:	c7 45 fc ff ff ff ff 	movl   $0xffffffff,-0x4(%ebp)
    362d:	8b 45 0c             	mov    0xc(%ebp),%eax
    3630:	0f b6 00             	movzbl (%eax),%eax
    3633:	3c 68                	cmp    $0x68,%al
    3635:	74 14                	je     0x364b
    3637:	8b 45 0c             	mov    0xc(%ebp),%eax
    363a:	0f b6 00             	movzbl (%eax),%eax
    363d:	3c 6c                	cmp    $0x6c,%al
    363f:	74 0a                	je     0x364b
    3641:	8b 45 0c             	mov    0xc(%ebp),%eax
    3644:	0f b6 00             	movzbl (%eax),%eax
    3647:	3c 4c                	cmp    $0x4c,%al
    3649:	75 15                	jne    0x3660
    364b:	8b 45 0c             	mov    0xc(%ebp),%eax
    364e:	0f b6 00             	movzbl (%eax),%eax
    3651:	0f be c0             	movsbl %al,%eax
    3654:	89 45 fc             	mov    %eax,-0x4(%ebp)
    3657:	8b 45 0c             	mov    0xc(%ebp),%eax
    365a:	83 c0 01             	add    $0x1,%eax
    365d:	89 45 0c             	mov    %eax,0xc(%ebp)
    3660:	8b 45 0c             	mov    0xc(%ebp),%eax
    3663:	0f b6 00             	movzbl (%eax),%eax
    3666:	0f be c0             	movsbl %al,%eax
    3669:	83 e8 58             	sub    $0x58,%eax
    366c:	89 45 c8             	mov    %eax,-0x38(%ebp)
    366f:	83 7d c8 20          	cmpl   $0x20,-0x38(%ebp)
    3673:	0f 87 51 02 00 00    	ja     0x38ca
    3679:	8b 4d c8             	mov    -0x38(%ebp),%ecx
    367c:	8b 04 8d a8 43 00 01 	mov    0x10043a8(,%ecx,4),%eax
    3683:	ff e0                	jmp    *%eax
    3685:	8b 45 f0             	mov    -0x10(%ebp),%eax
    3688:	83 e0 10             	and    $0x10,%eax
    368b:	85 c0                	test   %eax,%eax
    368d:	75 16                	jne    0x36a5
    368f:	eb 0a                	jmp    0x369b
    3691:	8b 45 e4             	mov    -0x1c(%ebp),%eax
    3694:	c6 00 20             	movb   $0x20,(%eax)
    3697:	83 45 e4 01          	addl   $0x1,-0x1c(%ebp)
    369b:	83 6d f4 01          	subl   $0x1,-0xc(%ebp)
    369f:	83 7d f4 00          	cmpl   $0x0,-0xc(%ebp)
    36a3:	7f ec                	jg     0x3691
    36a5:	83 45 10 04          	addl   $0x4,0x10(%ebp)
    36a9:	8b 45 10             	mov    0x10(%ebp),%eax
    36ac:	83 e8 04             	sub    $0x4,%eax
    36af:	8b 00                	mov    (%eax),%eax
    36b1:	89 c2                	mov    %eax,%edx
    36b3:	8b 45 e4             	mov    -0x1c(%ebp),%eax
    36b6:	88 10                	mov    %dl,(%eax)
    36b8:	83 45 e4 01          	addl   $0x1,-0x1c(%ebp)
    36bc:	eb 0a                	jmp    0x36c8
    36be:	8b 45 e4             	mov    -0x1c(%ebp),%eax
    36c1:	c6 00 20             	movb   $0x20,(%eax)
    36c4:	83 45 e4 01          	addl   $0x1,-0x1c(%ebp)
    36c8:	83 6d f4 01          	subl   $0x1,-0xc(%ebp)
    36cc:	83 7d f4 00          	cmpl   $0x0,-0xc(%ebp)
    36d0:	7f ec                	jg     0x36be
    36d2:	e9 2b 02 00 00       	jmp    0x3902
    36d7:	83 45 10 04          	addl   $0x4,0x10(%ebp)
    36db:	8b 45 10             	mov    0x10(%ebp),%eax
    36de:	83 e8 04             	sub    $0x4,%eax
    36e1:	8b 00                	mov    (%eax),%eax
    36e3:	89 45 e8             	mov    %eax,-0x18(%ebp)
    36e6:	83 7d e8 00          	cmpl   $0x0,-0x18(%ebp)
    36ea:	75 07                	jne    0x36f3
    36ec:	c7 45 e8 5d 43 00 01 	movl   $0x100435d,-0x18(%ebp)
    36f3:	8b 45 e8             	mov    -0x18(%ebp),%eax
    36f6:	89 04 24             	mov    %eax,(%esp)
    36f9:	e8 29 f3 ff ff       	call   0x2a27
    36fe:	89 45 dc             	mov    %eax,-0x24(%ebp)
    3701:	83 7d f8 00          	cmpl   $0x0,-0x8(%ebp)
    3705:	79 08                	jns    0x370f
    3707:	8b 45 dc             	mov    -0x24(%ebp),%eax
    370a:	89 45 f8             	mov    %eax,-0x8(%ebp)
    370d:	eb 0e                	jmp    0x371d
    370f:	8b 45 dc             	mov    -0x24(%ebp),%eax
    3712:	3b 45 f8             	cmp    -0x8(%ebp),%eax
    3715:	7e 06                	jle    0x371d
    3717:	8b 45 f8             	mov    -0x8(%ebp),%eax
    371a:	89 45 dc             	mov    %eax,-0x24(%ebp)
    371d:	8b 45 f0             	mov    -0x10(%ebp),%eax
    3720:	83 e0 10             	and    $0x10,%eax
    3723:	85 c0                	test   %eax,%eax
    3725:	75 1d                	jne    0x3744
    3727:	eb 0a                	jmp    0x3733
    3729:	8b 45 e4             	mov    -0x1c(%ebp),%eax
    372c:	c6 00 20             	movb   $0x20,(%eax)
    372f:	83 45 e4 01          	addl   $0x1,-0x1c(%ebp)
    3733:	8b 45 f4             	mov    -0xc(%ebp),%eax
    3736:	3b 45 dc             	cmp    -0x24(%ebp),%eax
    3739:	0f 9f c0             	setg   %al
    373c:	83 6d f4 01          	subl   $0x1,-0xc(%ebp)
    3740:	84 c0                	test   %al,%al
    3742:	75 e5                	jne    0x3729
    3744:	c7 45 e0 00 00 00 00 	movl   $0x0,-0x20(%ebp)
    374b:	eb 17                	jmp    0x3764
    374d:	8b 45 e8             	mov    -0x18(%ebp),%eax
    3750:	0f b6 10             	movzbl (%eax),%edx
    3753:	8b 45 e4             	mov    -0x1c(%ebp),%eax
    3756:	88 10                	mov    %dl,(%eax)
    3758:	83 45 e4 01          	addl   $0x1,-0x1c(%ebp)
    375c:	83 45 e8 01          	addl   $0x1,-0x18(%ebp)
    3760:	83 45 e0 01          	addl   $0x1,-0x20(%ebp)
    3764:	8b 45 e0             	mov    -0x20(%ebp),%eax
    3767:	3b 45 dc             	cmp    -0x24(%ebp),%eax
    376a:	7c e1                	jl     0x374d
    376c:	eb 0a                	jmp    0x3778
    376e:	8b 45 e4             	mov    -0x1c(%ebp),%eax
    3771:	c6 00 20             	movb   $0x20,(%eax)
    3774:	83 45 e4 01          	addl   $0x1,-0x1c(%ebp)
    3778:	8b 45 f4             	mov    -0xc(%ebp),%eax
    377b:	3b 45 dc             	cmp    -0x24(%ebp),%eax
    377e:	0f 9f c0             	setg   %al
    3781:	83 6d f4 01          	subl   $0x1,-0xc(%ebp)
    3785:	84 c0                	test   %al,%al
    3787:	75 e5                	jne    0x376e
    3789:	e9 74 01 00 00       	jmp    0x3902
    378e:	83 45 10 04          	addl   $0x4,0x10(%ebp)
    3792:	8b 45 10             	mov    0x10(%ebp),%eax
    3795:	83 e8 04             	sub    $0x4,%eax
    3798:	8b 00                	mov    (%eax),%eax
    379a:	89 c2                	mov    %eax,%edx
    379c:	8b 45 f0             	mov    -0x10(%ebp),%eax
    379f:	89 44 24 14          	mov    %eax,0x14(%esp)
    37a3:	8b 45 f8             	mov    -0x8(%ebp),%eax
    37a6:	89 44 24 10          	mov    %eax,0x10(%esp)
    37aa:	8b 45 f4             	mov    -0xc(%ebp),%eax
    37ad:	89 44 24 0c          	mov    %eax,0xc(%esp)
    37b1:	c7 44 24 08 08 00 00 	movl   $0x8,0x8(%esp)
    37b8:	00 
    37b9:	89 54 24 04          	mov    %edx,0x4(%esp)
    37bd:	8b 45 e4             	mov    -0x1c(%ebp),%eax
    37c0:	89 04 24             	mov    %eax,(%esp)
    37c3:	e8 df fa ff ff       	call   0x32a7
    37c8:	89 45 e4             	mov    %eax,-0x1c(%ebp)
    37cb:	e9 32 01 00 00       	jmp    0x3902
    37d0:	83 7d f4 ff          	cmpl   $0xffffffff,-0xc(%ebp)
    37d4:	75 0b                	jne    0x37e1
    37d6:	c7 45 f4 08 00 00 00 	movl   $0x8,-0xc(%ebp)
    37dd:	83 4d f0 01          	orl    $0x1,-0x10(%ebp)
    37e1:	83 45 10 04          	addl   $0x4,0x10(%ebp)
    37e5:	8b 45 10             	mov    0x10(%ebp),%eax
    37e8:	83 e8 04             	sub    $0x4,%eax
    37eb:	8b 00                	mov    (%eax),%eax
    37ed:	89 c2                	mov    %eax,%edx
    37ef:	8b 45 f0             	mov    -0x10(%ebp),%eax
    37f2:	89 44 24 14          	mov    %eax,0x14(%esp)
    37f6:	8b 45 f8             	mov    -0x8(%ebp),%eax
    37f9:	89 44 24 10          	mov    %eax,0x10(%esp)
    37fd:	8b 45 f4             	mov    -0xc(%ebp),%eax
    3800:	89 44 24 0c          	mov    %eax,0xc(%esp)
    3804:	c7 44 24 08 10 00 00 	movl   $0x10,0x8(%esp)
    380b:	00 
    380c:	89 54 24 04          	mov    %edx,0x4(%esp)
    3810:	8b 45 e4             	mov    -0x1c(%ebp),%eax
    3813:	89 04 24             	mov    %eax,(%esp)
    3816:	e8 8c fa ff ff       	call   0x32a7
    381b:	89 45 e4             	mov    %eax,-0x1c(%ebp)
    381e:	e9 df 00 00 00       	jmp    0x3902
    3823:	83 4d f0 40          	orl    $0x40,-0x10(%ebp)
    3827:	83 45 10 04          	addl   $0x4,0x10(%ebp)
    382b:	8b 45 10             	mov    0x10(%ebp),%eax
    382e:	83 e8 04             	sub    $0x4,%eax
    3831:	8b 00                	mov    (%eax),%eax
    3833:	89 c2                	mov    %eax,%edx
    3835:	8b 45 f0             	mov    -0x10(%ebp),%eax
    3838:	89 44 24 14          	mov    %eax,0x14(%esp)
    383c:	8b 45 f8             	mov    -0x8(%ebp),%eax
    383f:	89 44 24 10          	mov    %eax,0x10(%esp)
    3843:	8b 45 f4             	mov    -0xc(%ebp),%eax
    3846:	89 44 24 0c          	mov    %eax,0xc(%esp)
    384a:	c7 44 24 08 10 00 00 	movl   $0x10,0x8(%esp)
    3851:	00 
    3852:	89 54 24 04          	mov    %edx,0x4(%esp)
    3856:	8b 45 e4             	mov    -0x1c(%ebp),%eax
    3859:	89 04 24             	mov    %eax,(%esp)
    385c:	e8 46 fa ff ff       	call   0x32a7
    3861:	89 45 e4             	mov    %eax,-0x1c(%ebp)
    3864:	e9 99 00 00 00       	jmp    0x3902
    3869:	83 4d f0 02          	orl    $0x2,-0x10(%ebp)
    386d:	83 45 10 04          	addl   $0x4,0x10(%ebp)
    3871:	8b 45 10             	mov    0x10(%ebp),%eax
    3874:	83 e8 04             	sub    $0x4,%eax
    3877:	8b 00                	mov    (%eax),%eax
    3879:	89 c2                	mov    %eax,%edx
    387b:	8b 45 f0             	mov    -0x10(%ebp),%eax
    387e:	89 44 24 14          	mov    %eax,0x14(%esp)
    3882:	8b 45 f8             	mov    -0x8(%ebp),%eax
    3885:	89 44 24 10          	mov    %eax,0x10(%esp)
    3889:	8b 45 f4             	mov    -0xc(%ebp),%eax
    388c:	89 44 24 0c          	mov    %eax,0xc(%esp)
    3890:	c7 44 24 08 0a 00 00 	movl   $0xa,0x8(%esp)
    3897:	00 
    3898:	89 54 24 04          	mov    %edx,0x4(%esp)
    389c:	8b 45 e4             	mov    -0x1c(%ebp),%eax
    389f:	89 04 24             	mov    %eax,(%esp)
    38a2:	e8 00 fa ff ff       	call   0x32a7
    38a7:	89 45 e4             	mov    %eax,-0x1c(%ebp)
    38aa:	eb 56                	jmp    0x3902
    38ac:	83 45 10 04          	addl   $0x4,0x10(%ebp)
    38b0:	8b 45 10             	mov    0x10(%ebp),%eax
    38b3:	83 e8 04             	sub    $0x4,%eax
    38b6:	8b 00                	mov    (%eax),%eax
    38b8:	89 45 ec             	mov    %eax,-0x14(%ebp)
    38bb:	8b 55 e4             	mov    -0x1c(%ebp),%edx
    38be:	8b 45 08             	mov    0x8(%ebp),%eax
    38c1:	29 c2                	sub    %eax,%edx
    38c3:	8b 45 ec             	mov    -0x14(%ebp),%eax
    38c6:	89 10                	mov    %edx,(%eax)
    38c8:	eb 38                	jmp    0x3902
    38ca:	8b 45 0c             	mov    0xc(%ebp),%eax
    38cd:	0f b6 00             	movzbl (%eax),%eax
    38d0:	3c 25                	cmp    $0x25,%al
    38d2:	74 0a                	je     0x38de
    38d4:	8b 45 e4             	mov    -0x1c(%ebp),%eax
    38d7:	c6 00 25             	movb   $0x25,(%eax)
    38da:	83 45 e4 01          	addl   $0x1,-0x1c(%ebp)
    38de:	8b 45 0c             	mov    0xc(%ebp),%eax
    38e1:	0f b6 00             	movzbl (%eax),%eax
    38e4:	84 c0                	test   %al,%al
    38e6:	74 11                	je     0x38f9
    38e8:	8b 45 0c             	mov    0xc(%ebp),%eax
    38eb:	0f b6 10             	movzbl (%eax),%edx
    38ee:	8b 45 e4             	mov    -0x1c(%ebp),%eax
    38f1:	88 10                	mov    %dl,(%eax)
    38f3:	83 45 e4 01          	addl   $0x1,-0x1c(%ebp)
    38f7:	eb 09                	jmp    0x3902
    38f9:	8b 45 0c             	mov    0xc(%ebp),%eax
    38fc:	83 e8 01             	sub    $0x1,%eax
    38ff:	89 45 0c             	mov    %eax,0xc(%ebp)
    3902:	8b 45 0c             	mov    0xc(%ebp),%eax
    3905:	83 c0 01             	add    $0x1,%eax
    3908:	89 45 0c             	mov    %eax,0xc(%ebp)
    390b:	8b 45 0c             	mov    0xc(%ebp),%eax
    390e:	0f b6 00             	movzbl (%eax),%eax
    3911:	84 c0                	test   %al,%al
    3913:	0f 85 d7 fb ff ff    	jne    0x34f0
    3919:	8b 45 e4             	mov    -0x1c(%ebp),%eax
    391c:	c6 00 00             	movb   $0x0,(%eax)
    391f:	8b 55 e4             	mov    -0x1c(%ebp),%edx
    3922:	8b 45 08             	mov    0x8(%ebp),%eax
    3925:	89 d1                	mov    %edx,%ecx
    3927:	29 c1                	sub    %eax,%ecx
    3929:	89 c8                	mov    %ecx,%eax
    392b:	c9                   	leave  
    392c:	c3                   	ret    
    392d:	55                   	push   %ebp
    392e:	89 e5                	mov    %esp,%ebp
    3930:	83 ec 28             	sub    $0x28,%esp
    3933:	8d 45 0c             	lea    0xc(%ebp),%eax
    3936:	83 c0 04             	add    $0x4,%eax
    3939:	89 45 f8             	mov    %eax,-0x8(%ebp)
    393c:	8b 55 0c             	mov    0xc(%ebp),%edx
    393f:	8b 45 f8             	mov    -0x8(%ebp),%eax
    3942:	89 44 24 08          	mov    %eax,0x8(%esp)
    3946:	89 54 24 04          	mov    %edx,0x4(%esp)
    394a:	8b 45 08             	mov    0x8(%ebp),%eax
    394d:	89 04 24             	mov    %eax,(%esp)
    3950:	e8 8a fb ff ff       	call   0x34df
    3955:	89 45 fc             	mov    %eax,-0x4(%ebp)
    3958:	8b 45 fc             	mov    -0x4(%ebp),%eax
    395b:	c9                   	leave  
    395c:	c3                   	ret    
    395d:	90                   	nop
    395e:	90                   	nop
    395f:	90                   	nop
    3960:	55                   	push   %ebp
    3961:	89 e5                	mov    %esp,%ebp
    3963:	c7 05 a0 05 0f 01 a8 	movl   $0x10f05a8,0x10f05a0
    396a:	05 0f 01 
    396d:	a1 a0 05 0f 01       	mov    0x10f05a0,%eax
    3972:	a3 a4 05 0f 01       	mov    %eax,0x10f05a4
    3977:	c7 05 a8 09 0f 01 00 	movl   $0x0,0x10f09a8
    397e:	00 00 00 
    3981:	5d                   	pop    %ebp
    3982:	c3                   	ret    
    3983:	55                   	push   %ebp
    3984:	89 e5                	mov    %esp,%ebp
    3986:	a1 a8 09 0f 01       	mov    0x10f09a8,%eax
    398b:	85 c0                	test   %eax,%eax
    398d:	0f 9e c0             	setle  %al
    3990:	0f b6 c0             	movzbl %al,%eax
    3993:	5d                   	pop    %ebp
    3994:	c3                   	ret    
    3995:	55                   	push   %ebp
    3996:	89 e5                	mov    %esp,%ebp
    3998:	a1 a8 09 0f 01       	mov    0x10f09a8,%eax
    399d:	3d ff 03 00 00       	cmp    $0x3ff,%eax
    39a2:	0f 9f c0             	setg   %al
    39a5:	0f b6 c0             	movzbl %al,%eax
    39a8:	5d                   	pop    %ebp
    39a9:	c3                   	ret    
    39aa:	55                   	push   %ebp
    39ab:	89 e5                	mov    %esp,%ebp
    39ad:	81 ec 18 01 00 00    	sub    $0x118,%esp
    39b3:	8d 85 fc fe ff ff    	lea    -0x104(%ebp),%eax
    39b9:	89 45 fc             	mov    %eax,-0x4(%ebp)
    39bc:	8d 85 fc fe ff ff    	lea    -0x104(%ebp),%eax
    39c2:	89 04 24             	mov    %eax,(%esp)
    39c5:	e8 0b f4 ff ff       	call   0x2dd5
    39ca:	eb 3d                	jmp    0x3a09
    39cc:	8b 15 a4 05 0f 01    	mov    0x10f05a4,%edx
    39d2:	8b 45 fc             	mov    -0x4(%ebp),%eax
    39d5:	0f b6 00             	movzbl (%eax),%eax
    39d8:	88 02                	mov    %al,(%edx)
    39da:	8d 42 01             	lea    0x1(%edx),%eax
    39dd:	a3 a4 05 0f 01       	mov    %eax,0x10f05a4
    39e2:	a1 a8 09 0f 01       	mov    0x10f09a8,%eax
    39e7:	83 c0 01             	add    $0x1,%eax
    39ea:	a3 a8 09 0f 01       	mov    %eax,0x10f09a8
    39ef:	a1 a4 05 0f 01       	mov    0x10f05a4,%eax
    39f4:	3d a7 09 0f 01       	cmp    $0x10f09a7,%eax
    39f9:	76 0a                	jbe    0x3a05
    39fb:	c7 05 a4 05 0f 01 a8 	movl   $0x10f05a8,0x10f05a4
    3a02:	05 0f 01 
    3a05:	83 45 fc 01          	addl   $0x1,-0x4(%ebp)
    3a09:	8b 45 fc             	mov    -0x4(%ebp),%eax
    3a0c:	0f b6 00             	movzbl (%eax),%eax
    3a0f:	84 c0                	test   %al,%al
    3a11:	75 b9                	jne    0x39cc
    3a13:	c9                   	leave  
    3a14:	c3                   	ret    
    3a15:	55                   	push   %ebp
    3a16:	89 e5                	mov    %esp,%ebp
    3a18:	83 ec 18             	sub    $0x18,%esp
    3a1b:	a1 a8 09 0f 01       	mov    0x10f09a8,%eax
    3a20:	85 c0                	test   %eax,%eax
    3a22:	7f 05                	jg     0x3a29
    3a24:	e8 81 ff ff ff       	call   0x39aa
    3a29:	8b 15 a0 05 0f 01    	mov    0x10f05a0,%edx
    3a2f:	0f b6 02             	movzbl (%edx),%eax
    3a32:	88 45 ff             	mov    %al,-0x1(%ebp)
    3a35:	8d 42 01             	lea    0x1(%edx),%eax
    3a38:	a3 a0 05 0f 01       	mov    %eax,0x10f05a0
    3a3d:	a1 a8 09 0f 01       	mov    0x10f09a8,%eax
    3a42:	83 e8 01             	sub    $0x1,%eax
    3a45:	a3 a8 09 0f 01       	mov    %eax,0x10f09a8
    3a4a:	a1 a0 05 0f 01       	mov    0x10f05a0,%eax
    3a4f:	3d a7 09 0f 01       	cmp    $0x10f09a7,%eax
    3a54:	76 0a                	jbe    0x3a60
    3a56:	c7 05 a0 05 0f 01 a8 	movl   $0x10f05a8,0x10f05a0
    3a5d:	05 0f 01 
    3a60:	0f b6 45 ff          	movzbl -0x1(%ebp),%eax
    3a64:	c9                   	leave  
    3a65:	c3                   	ret    
    3a66:	55                   	push   %ebp
    3a67:	89 e5                	mov    %esp,%ebp
    3a69:	a1 a0 05 0f 01       	mov    0x10f05a0,%eax
    3a6e:	83 e8 01             	sub    $0x1,%eax
    3a71:	a3 a0 05 0f 01       	mov    %eax,0x10f05a0
    3a76:	a1 a8 09 0f 01       	mov    0x10f09a8,%eax
    3a7b:	83 c0 01             	add    $0x1,%eax
    3a7e:	a3 a8 09 0f 01       	mov    %eax,0x10f09a8
    3a83:	a1 a0 05 0f 01       	mov    0x10f05a0,%eax
    3a88:	3d a8 05 0f 01       	cmp    $0x10f05a8,%eax
    3a8d:	73 0a                	jae    0x3a99
    3a8f:	c7 05 a0 05 0f 01 a7 	movl   $0x10f09a7,0x10f05a0
    3a96:	09 0f 01 
    3a99:	5d                   	pop    %ebp
    3a9a:	c3                   	ret    
    3a9b:	55                   	push   %ebp
    3a9c:	89 e5                	mov    %esp,%ebp
    3a9e:	83 ec 48             	sub    $0x48,%esp
    3aa1:	c7 45 e0 00 00 00 00 	movl   $0x0,-0x20(%ebp)
    3aa8:	8b 45 08             	mov    0x8(%ebp),%eax
    3aab:	89 45 e4             	mov    %eax,-0x1c(%ebp)
    3aae:	8b 45 e4             	mov    -0x1c(%ebp),%eax
    3ab1:	0f b6 00             	movzbl (%eax),%eax
    3ab4:	0f b6 c0             	movzbl %al,%eax
    3ab7:	89 45 f0             	mov    %eax,-0x10(%ebp)
    3aba:	83 45 e4 01          	addl   $0x1,-0x1c(%ebp)
    3abe:	8b 45 f0             	mov    -0x10(%ebp),%eax
    3ac1:	89 04 24             	mov    %eax,(%esp)
    3ac4:	e8 9c 06 00 00       	call   0x4165
    3ac9:	85 c0                	test   %eax,%eax
    3acb:	75 e1                	jne    0x3aae
    3acd:	83 7d f0 2d          	cmpl   $0x2d,-0x10(%ebp)
    3ad1:	75 19                	jne    0x3aec
    3ad3:	c7 45 f4 01 00 00 00 	movl   $0x1,-0xc(%ebp)
    3ada:	8b 45 e4             	mov    -0x1c(%ebp),%eax
    3add:	0f b6 00             	movzbl (%eax),%eax
    3ae0:	0f be c0             	movsbl %al,%eax
    3ae3:	89 45 f0             	mov    %eax,-0x10(%ebp)
    3ae6:	83 45 e4 01          	addl   $0x1,-0x1c(%ebp)
    3aea:	eb 1d                	jmp    0x3b09
    3aec:	c7 45 f4 00 00 00 00 	movl   $0x0,-0xc(%ebp)
    3af3:	83 7d f0 2b          	cmpl   $0x2b,-0x10(%ebp)
    3af7:	75 10                	jne    0x3b09
    3af9:	8b 45 e4             	mov    -0x1c(%ebp),%eax
    3afc:	0f b6 00             	movzbl (%eax),%eax
    3aff:	0f be c0             	movsbl %al,%eax
    3b02:	89 45 f0             	mov    %eax,-0x10(%ebp)
    3b05:	83 45 e4 01          	addl   $0x1,-0x1c(%ebp)
    3b09:	83 7d 0c 00          	cmpl   $0x0,0xc(%ebp)
    3b0d:	74 06                	je     0x3b15
    3b0f:	83 7d 0c 10          	cmpl   $0x10,0xc(%ebp)
    3b13:	75 34                	jne    0x3b49
    3b15:	83 7d f0 30          	cmpl   $0x30,-0x10(%ebp)
    3b19:	75 2e                	jne    0x3b49
    3b1b:	8b 45 e4             	mov    -0x1c(%ebp),%eax
    3b1e:	0f b6 00             	movzbl (%eax),%eax
    3b21:	3c 78                	cmp    $0x78,%al
    3b23:	74 0a                	je     0x3b2f
    3b25:	8b 45 e4             	mov    -0x1c(%ebp),%eax
    3b28:	0f b6 00             	movzbl (%eax),%eax
    3b2b:	3c 58                	cmp    $0x58,%al
    3b2d:	75 1a                	jne    0x3b49
    3b2f:	8b 45 e4             	mov    -0x1c(%ebp),%eax
    3b32:	83 c0 01             	add    $0x1,%eax
    3b35:	0f b6 00             	movzbl (%eax),%eax
    3b38:	0f be c0             	movsbl %al,%eax
    3b3b:	89 45 f0             	mov    %eax,-0x10(%ebp)
    3b3e:	83 45 e4 02          	addl   $0x2,-0x1c(%ebp)
    3b42:	c7 45 0c 10 00 00 00 	movl   $0x10,0xc(%ebp)
    3b49:	83 7d 0c 00          	cmpl   $0x0,0xc(%ebp)
    3b4d:	75 1c                	jne    0x3b6b
    3b4f:	83 7d f0 30          	cmpl   $0x30,-0x10(%ebp)
    3b53:	75 09                	jne    0x3b5e
    3b55:	c7 45 d0 08 00 00 00 	movl   $0x8,-0x30(%ebp)
    3b5c:	eb 07                	jmp    0x3b65
    3b5e:	c7 45 d0 0a 00 00 00 	movl   $0xa,-0x30(%ebp)
    3b65:	8b 45 d0             	mov    -0x30(%ebp),%eax
    3b68:	89 45 0c             	mov    %eax,0xc(%ebp)
    3b6b:	83 7d f4 00          	cmpl   $0x0,-0xc(%ebp)
    3b6f:	74 09                	je     0x3b7a
    3b71:	c7 45 d4 00 00 00 80 	movl   $0x80000000,-0x2c(%ebp)
    3b78:	eb 07                	jmp    0x3b81
    3b7a:	c7 45 d4 ff ff ff 7f 	movl   $0x7fffffff,-0x2c(%ebp)
    3b81:	8b 55 d4             	mov    -0x2c(%ebp),%edx
    3b84:	89 55 ec             	mov    %edx,-0x14(%ebp)
    3b87:	8b 55 ec             	mov    -0x14(%ebp),%edx
    3b8a:	89 d0                	mov    %edx,%eax
    3b8c:	c1 fa 1f             	sar    $0x1f,%edx
    3b8f:	f7 7d 0c             	idivl  0xc(%ebp)
    3b92:	89 55 fc             	mov    %edx,-0x4(%ebp)
    3b95:	8b 55 ec             	mov    -0x14(%ebp),%edx
    3b98:	89 55 c4             	mov    %edx,-0x3c(%ebp)
    3b9b:	8b 55 c4             	mov    -0x3c(%ebp),%edx
    3b9e:	89 d0                	mov    %edx,%eax
    3ba0:	c1 fa 1f             	sar    $0x1f,%edx
    3ba3:	f7 7d 0c             	idivl  0xc(%ebp)
    3ba6:	89 45 ec             	mov    %eax,-0x14(%ebp)
    3ba9:	83 7d f4 00          	cmpl   $0x0,-0xc(%ebp)
    3bad:	74 13                	je     0x3bc2
    3baf:	83 7d fc 00          	cmpl   $0x0,-0x4(%ebp)
    3bb3:	7e 0a                	jle    0x3bbf
    3bb5:	8b 45 0c             	mov    0xc(%ebp),%eax
    3bb8:	29 45 fc             	sub    %eax,-0x4(%ebp)
    3bbb:	83 45 ec 01          	addl   $0x1,-0x14(%ebp)
    3bbf:	f7 5d fc             	negl   -0x4(%ebp)
    3bc2:	c7 45 e8 00 00 00 00 	movl   $0x0,-0x18(%ebp)
    3bc9:	c7 45 f8 00 00 00 00 	movl   $0x0,-0x8(%ebp)
    3bd0:	8b 45 f0             	mov    -0x10(%ebp),%eax
    3bd3:	89 04 24             	mov    %eax,(%esp)
    3bd6:	e8 fd 04 00 00       	call   0x40d8
    3bdb:	85 c0                	test   %eax,%eax
    3bdd:	74 06                	je     0x3be5
    3bdf:	83 6d f0 30          	subl   $0x30,-0x10(%ebp)
    3be3:	eb 38                	jmp    0x3c1d
    3be5:	8b 45 f0             	mov    -0x10(%ebp),%eax
    3be8:	89 04 24             	mov    %eax,(%esp)
    3beb:	e8 a2 05 00 00       	call   0x4192
    3bf0:	85 c0                	test   %eax,%eax
    3bf2:	0f 84 d6 00 00 00    	je     0x3cce
    3bf8:	8b 45 f0             	mov    -0x10(%ebp),%eax
    3bfb:	89 04 24             	mov    %eax,(%esp)
    3bfe:	e8 c2 05 00 00       	call   0x41c5
    3c03:	85 c0                	test   %eax,%eax
    3c05:	74 09                	je     0x3c10
    3c07:	c7 45 d8 37 00 00 00 	movl   $0x37,-0x28(%ebp)
    3c0e:	eb 07                	jmp    0x3c17
    3c10:	c7 45 d8 57 00 00 00 	movl   $0x57,-0x28(%ebp)
    3c17:	8b 45 d8             	mov    -0x28(%ebp),%eax
    3c1a:	29 45 f0             	sub    %eax,-0x10(%ebp)
    3c1d:	8b 45 f0             	mov    -0x10(%ebp),%eax
    3c20:	3b 45 0c             	cmp    0xc(%ebp),%eax
    3c23:	0f 8d a5 00 00 00    	jge    0x3cce
    3c29:	83 7d f8 00          	cmpl   $0x0,-0x8(%ebp)
    3c2d:	0f 88 86 00 00 00    	js     0x3cb9
    3c33:	83 7d f4 00          	cmpl   $0x0,-0xc(%ebp)
    3c37:	74 41                	je     0x3c7a
    3c39:	8b 45 e8             	mov    -0x18(%ebp),%eax
    3c3c:	3b 45 ec             	cmp    -0x14(%ebp),%eax
    3c3f:	7c 10                	jl     0x3c51
    3c41:	8b 45 e8             	mov    -0x18(%ebp),%eax
    3c44:	3b 45 ec             	cmp    -0x14(%ebp),%eax
    3c47:	75 18                	jne    0x3c61
    3c49:	8b 45 f0             	mov    -0x10(%ebp),%eax
    3c4c:	3b 45 fc             	cmp    -0x4(%ebp),%eax
    3c4f:	7e 10                	jle    0x3c61
    3c51:	c7 45 f8 ff ff ff ff 	movl   $0xffffffff,-0x8(%ebp)
    3c58:	c7 45 e8 00 00 00 80 	movl   $0x80000000,-0x18(%ebp)
    3c5f:	eb 58                	jmp    0x3cb9
    3c61:	c7 45 f8 01 00 00 00 	movl   $0x1,-0x8(%ebp)
    3c68:	8b 45 e8             	mov    -0x18(%ebp),%eax
    3c6b:	0f af 45 0c          	imul   0xc(%ebp),%eax
    3c6f:	89 45 e8             	mov    %eax,-0x18(%ebp)
    3c72:	8b 45 f0             	mov    -0x10(%ebp),%eax
    3c75:	29 45 e8             	sub    %eax,-0x18(%ebp)
    3c78:	eb 3f                	jmp    0x3cb9
    3c7a:	8b 45 e8             	mov    -0x18(%ebp),%eax
    3c7d:	3b 45 ec             	cmp    -0x14(%ebp),%eax
    3c80:	7f 10                	jg     0x3c92
    3c82:	8b 45 e8             	mov    -0x18(%ebp),%eax
    3c85:	3b 45 ec             	cmp    -0x14(%ebp),%eax
    3c88:	75 18                	jne    0x3ca2
    3c8a:	8b 45 f0             	mov    -0x10(%ebp),%eax
    3c8d:	3b 45 fc             	cmp    -0x4(%ebp),%eax
    3c90:	7e 10                	jle    0x3ca2
    3c92:	c7 45 f8 ff ff ff ff 	movl   $0xffffffff,-0x8(%ebp)
    3c99:	c7 45 e8 ff ff ff 7f 	movl   $0x7fffffff,-0x18(%ebp)
    3ca0:	eb 17                	jmp    0x3cb9
    3ca2:	c7 45 f8 01 00 00 00 	movl   $0x1,-0x8(%ebp)
    3ca9:	8b 45 e8             	mov    -0x18(%ebp),%eax
    3cac:	0f af 45 0c          	imul   0xc(%ebp),%eax
    3cb0:	89 45 e8             	mov    %eax,-0x18(%ebp)
    3cb3:	8b 45 f0             	mov    -0x10(%ebp),%eax
    3cb6:	01 45 e8             	add    %eax,-0x18(%ebp)
    3cb9:	8b 45 e4             	mov    -0x1c(%ebp),%eax
    3cbc:	0f b6 00             	movzbl (%eax),%eax
    3cbf:	0f b6 c0             	movzbl %al,%eax
    3cc2:	89 45 f0             	mov    %eax,-0x10(%ebp)
    3cc5:	83 45 e4 01          	addl   $0x1,-0x1c(%ebp)
    3cc9:	e9 02 ff ff ff       	jmp    0x3bd0
    3cce:	83 7d e0 00          	cmpl   $0x0,-0x20(%ebp)
    3cd2:	74 1f                	je     0x3cf3
    3cd4:	83 7d f8 00          	cmpl   $0x0,-0x8(%ebp)
    3cd8:	74 0b                	je     0x3ce5
    3cda:	8b 45 e4             	mov    -0x1c(%ebp),%eax
    3cdd:	83 e8 01             	sub    $0x1,%eax
    3ce0:	89 45 dc             	mov    %eax,-0x24(%ebp)
    3ce3:	eb 06                	jmp    0x3ceb
    3ce5:	8b 55 08             	mov    0x8(%ebp),%edx
    3ce8:	89 55 dc             	mov    %edx,-0x24(%ebp)
    3ceb:	8b 45 e0             	mov    -0x20(%ebp),%eax
    3cee:	8b 55 dc             	mov    -0x24(%ebp),%edx
    3cf1:	89 10                	mov    %edx,(%eax)
    3cf3:	8b 45 e8             	mov    -0x18(%ebp),%eax
    3cf6:	c9                   	leave  
    3cf7:	c3                   	ret    
    3cf8:	55                   	push   %ebp
    3cf9:	89 e5                	mov    %esp,%ebp
    3cfb:	83 ec 08             	sub    $0x8,%esp
    3cfe:	e8 12 fd ff ff       	call   0x3a15
    3d03:	89 c2                	mov    %eax,%edx
    3d05:	8b 45 08             	mov    0x8(%ebp),%eax
    3d08:	88 10                	mov    %dl,(%eax)
    3d0a:	8b 45 08             	mov    0x8(%ebp),%eax
    3d0d:	0f b6 00             	movzbl (%eax),%eax
    3d10:	3c 2f                	cmp    $0x2f,%al
    3d12:	7e 0a                	jle    0x3d1e
    3d14:	8b 45 08             	mov    0x8(%ebp),%eax
    3d17:	0f b6 00             	movzbl (%eax),%eax
    3d1a:	3c 39                	cmp    $0x39,%al
    3d1c:	7e 43                	jle    0x3d61
    3d1e:	8b 45 08             	mov    0x8(%ebp),%eax
    3d21:	0f b6 00             	movzbl (%eax),%eax
    3d24:	3c 60                	cmp    $0x60,%al
    3d26:	7e 13                	jle    0x3d3b
    3d28:	8b 45 08             	mov    0x8(%ebp),%eax
    3d2b:	0f b6 00             	movzbl (%eax),%eax
    3d2e:	0f be d0             	movsbl %al,%edx
    3d31:	8b 45 0c             	mov    0xc(%ebp),%eax
    3d34:	83 c0 56             	add    $0x56,%eax
    3d37:	39 c2                	cmp    %eax,%edx
    3d39:	7e 26                	jle    0x3d61
    3d3b:	8b 45 08             	mov    0x8(%ebp),%eax
    3d3e:	0f b6 00             	movzbl (%eax),%eax
    3d41:	3c 40                	cmp    $0x40,%al
    3d43:	7e 13                	jle    0x3d58
    3d45:	8b 45 08             	mov    0x8(%ebp),%eax
    3d48:	0f b6 00             	movzbl (%eax),%eax
    3d4b:	0f be d0             	movsbl %al,%edx
    3d4e:	8b 45 0c             	mov    0xc(%ebp),%eax
    3d51:	83 c0 36             	add    $0x36,%eax
    3d54:	39 c2                	cmp    %eax,%edx
    3d56:	7e 09                	jle    0x3d61
    3d58:	e8 26 fc ff ff       	call   0x3983
    3d5d:	85 c0                	test   %eax,%eax
    3d5f:	74 9d                	je     0x3cfe
    3d61:	8b 45 08             	mov    0x8(%ebp),%eax
    3d64:	0f b6 00             	movzbl (%eax),%eax
    3d67:	3c 2f                	cmp    $0x2f,%al
    3d69:	7e 0a                	jle    0x3d75
    3d6b:	8b 45 08             	mov    0x8(%ebp),%eax
    3d6e:	0f b6 00             	movzbl (%eax),%eax
    3d71:	3c 39                	cmp    $0x39,%al
    3d73:	7e 3a                	jle    0x3daf
    3d75:	8b 45 08             	mov    0x8(%ebp),%eax
    3d78:	0f b6 00             	movzbl (%eax),%eax
    3d7b:	3c 60                	cmp    $0x60,%al
    3d7d:	7e 13                	jle    0x3d92
    3d7f:	8b 45 08             	mov    0x8(%ebp),%eax
    3d82:	0f b6 00             	movzbl (%eax),%eax
    3d85:	0f be d0             	movsbl %al,%edx
    3d88:	8b 45 0c             	mov    0xc(%ebp),%eax
    3d8b:	83 c0 56             	add    $0x56,%eax
    3d8e:	39 c2                	cmp    %eax,%edx
    3d90:	7e 1d                	jle    0x3daf
    3d92:	8b 45 08             	mov    0x8(%ebp),%eax
    3d95:	0f b6 00             	movzbl (%eax),%eax
    3d98:	3c 40                	cmp    $0x40,%al
    3d9a:	7e 18                	jle    0x3db4
    3d9c:	8b 45 08             	mov    0x8(%ebp),%eax
    3d9f:	0f b6 00             	movzbl (%eax),%eax
    3da2:	0f be d0             	movsbl %al,%edx
    3da5:	8b 45 0c             	mov    0xc(%ebp),%eax
    3da8:	83 c0 36             	add    $0x36,%eax
    3dab:	39 c2                	cmp    %eax,%edx
    3dad:	7f 05                	jg     0x3db4
    3daf:	e8 b2 fc ff ff       	call   0x3a66
    3db4:	e8 5c fc ff ff       	call   0x3a15
    3db9:	89 c2                	mov    %eax,%edx
    3dbb:	8b 45 08             	mov    0x8(%ebp),%eax
    3dbe:	88 10                	mov    %dl,(%eax)
    3dc0:	8b 45 08             	mov    0x8(%ebp),%eax
    3dc3:	0f b6 00             	movzbl (%eax),%eax
    3dc6:	3c 2f                	cmp    $0x2f,%al
    3dc8:	7e 0a                	jle    0x3dd4
    3dca:	8b 45 08             	mov    0x8(%ebp),%eax
    3dcd:	0f b6 00             	movzbl (%eax),%eax
    3dd0:	3c 39                	cmp    $0x39,%al
    3dd2:	7e 47                	jle    0x3e1b
    3dd4:	8b 45 08             	mov    0x8(%ebp),%eax
    3dd7:	0f b6 00             	movzbl (%eax),%eax
    3dda:	3c 60                	cmp    $0x60,%al
    3ddc:	7e 13                	jle    0x3df1
    3dde:	8b 45 08             	mov    0x8(%ebp),%eax
    3de1:	0f b6 00             	movzbl (%eax),%eax
    3de4:	0f be d0             	movsbl %al,%edx
    3de7:	8b 45 0c             	mov    0xc(%ebp),%eax
    3dea:	83 c0 56             	add    $0x56,%eax
    3ded:	39 c2                	cmp    %eax,%edx
    3def:	7e 2a                	jle    0x3e1b
    3df1:	8b 45 08             	mov    0x8(%ebp),%eax
    3df4:	0f b6 00             	movzbl (%eax),%eax
    3df7:	3c 40                	cmp    $0x40,%al
    3df9:	7e 13                	jle    0x3e0e
    3dfb:	8b 45 08             	mov    0x8(%ebp),%eax
    3dfe:	0f b6 00             	movzbl (%eax),%eax
    3e01:	0f be d0             	movsbl %al,%edx
    3e04:	8b 45 0c             	mov    0xc(%ebp),%eax
    3e07:	83 c0 36             	add    $0x36,%eax
    3e0a:	39 c2                	cmp    %eax,%edx
    3e0c:	7e 0d                	jle    0x3e1b
    3e0e:	8b 45 08             	mov    0x8(%ebp),%eax
    3e11:	c6 00 00             	movb   $0x0,(%eax)
    3e14:	e8 4d fc ff ff       	call   0x3a66
    3e19:	c9                   	leave  
    3e1a:	c3                   	ret    
    3e1b:	83 45 08 01          	addl   $0x1,0x8(%ebp)
    3e1f:	eb 93                	jmp    0x3db4
    3e21:	55                   	push   %ebp
    3e22:	89 e5                	mov    %esp,%ebp
    3e24:	83 ec 08             	sub    $0x8,%esp
    3e27:	e8 e9 fb ff ff       	call   0x3a15
    3e2c:	89 c2                	mov    %eax,%edx
    3e2e:	8b 45 08             	mov    0x8(%ebp),%eax
    3e31:	88 10                	mov    %dl,(%eax)
    3e33:	8b 45 08             	mov    0x8(%ebp),%eax
    3e36:	0f b6 00             	movzbl (%eax),%eax
    3e39:	3c 20                	cmp    $0x20,%al
    3e3b:	74 0a                	je     0x3e47
    3e3d:	8b 45 08             	mov    0x8(%ebp),%eax
    3e40:	0f b6 00             	movzbl (%eax),%eax
    3e43:	3c 0a                	cmp    $0xa,%al
    3e45:	75 09                	jne    0x3e50
    3e47:	e8 37 fb ff ff       	call   0x3983
    3e4c:	85 c0                	test   %eax,%eax
    3e4e:	74 d7                	je     0x3e27
    3e50:	8b 45 08             	mov    0x8(%ebp),%eax
    3e53:	0f b6 00             	movzbl (%eax),%eax
    3e56:	3c 20                	cmp    $0x20,%al
    3e58:	74 0f                	je     0x3e69
    3e5a:	8b 45 08             	mov    0x8(%ebp),%eax
    3e5d:	0f b6 00             	movzbl (%eax),%eax
    3e60:	3c 0a                	cmp    $0xa,%al
    3e62:	74 05                	je     0x3e69
    3e64:	e8 fd fb ff ff       	call   0x3a66
    3e69:	e8 a7 fb ff ff       	call   0x3a15
    3e6e:	89 c2                	mov    %eax,%edx
    3e70:	8b 45 08             	mov    0x8(%ebp),%eax
    3e73:	88 10                	mov    %dl,(%eax)
    3e75:	8b 45 08             	mov    0x8(%ebp),%eax
    3e78:	0f b6 00             	movzbl (%eax),%eax
    3e7b:	3c 20                	cmp    $0x20,%al
    3e7d:	74 0a                	je     0x3e89
    3e7f:	8b 45 08             	mov    0x8(%ebp),%eax
    3e82:	0f b6 00             	movzbl (%eax),%eax
    3e85:	3c 0a                	cmp    $0xa,%al
    3e87:	75 0d                	jne    0x3e96
    3e89:	8b 45 08             	mov    0x8(%ebp),%eax
    3e8c:	c6 00 00             	movb   $0x0,(%eax)
    3e8f:	e8 d2 fb ff ff       	call   0x3a66
    3e94:	c9                   	leave  
    3e95:	c3                   	ret    
    3e96:	83 45 08 01          	addl   $0x1,0x8(%ebp)
    3e9a:	eb cd                	jmp    0x3e69
    3e9c:	55                   	push   %ebp
    3e9d:	89 e5                	mov    %esp,%ebp
    3e9f:	57                   	push   %edi
    3ea0:	81 ec 44 01 00 00    	sub    $0x144,%esp
    3ea6:	c7 85 e4 fe ff ff 00 	movl   $0x0,-0x11c(%ebp)
    3ead:	00 00 00 
    3eb0:	8d 85 e8 fe ff ff    	lea    -0x118(%ebp),%eax
    3eb6:	89 85 d4 fe ff ff    	mov    %eax,-0x12c(%ebp)
    3ebc:	c7 85 d0 fe ff ff 00 	movl   $0x0,-0x130(%ebp)
    3ec3:	00 00 00 
    3ec6:	b8 fc 00 00 00       	mov    $0xfc,%eax
    3ecb:	83 f8 04             	cmp    $0x4,%eax
    3ece:	72 1e                	jb     0x3eee
    3ed0:	c7 85 cc fe ff ff 3f 	movl   $0x3f,-0x134(%ebp)
    3ed7:	00 00 00 
    3eda:	8b bd d4 fe ff ff    	mov    -0x12c(%ebp),%edi
    3ee0:	8b 8d cc fe ff ff    	mov    -0x134(%ebp),%ecx
    3ee6:	8b 85 d0 fe ff ff    	mov    -0x130(%ebp),%eax
    3eec:	f3 ab                	rep stos %eax,%es:(%edi)
    3eee:	c7 45 e8 00 00 00 00 	movl   $0x0,-0x18(%ebp)
    3ef5:	8d 45 08             	lea    0x8(%ebp),%eax
    3ef8:	83 c0 04             	add    $0x4,%eax
    3efb:	89 45 e4             	mov    %eax,-0x1c(%ebp)
    3efe:	e9 b6 01 00 00       	jmp    0x40b9
    3f03:	8b 45 08             	mov    0x8(%ebp),%eax
    3f06:	0f b6 00             	movzbl (%eax),%eax
    3f09:	3c 25                	cmp    $0x25,%al
    3f0b:	75 09                	jne    0x3f16
    3f0d:	83 4d e8 01          	orl    $0x1,-0x18(%ebp)
    3f11:	e9 9a 01 00 00       	jmp    0x40b0
    3f16:	8b 45 e8             	mov    -0x18(%ebp),%eax
    3f19:	83 e0 01             	and    $0x1,%eax
    3f1c:	84 c0                	test   %al,%al
    3f1e:	0f 84 8c 01 00 00    	je     0x40b0
    3f24:	8b 45 08             	mov    0x8(%ebp),%eax
    3f27:	0f b6 00             	movzbl (%eax),%eax
    3f2a:	0f be c0             	movsbl %al,%eax
    3f2d:	89 85 d8 fe ff ff    	mov    %eax,-0x128(%ebp)
    3f33:	83 bd d8 fe ff ff 64 	cmpl   $0x64,-0x128(%ebp)
    3f3a:	74 43                	je     0x3f7f
    3f3c:	83 bd d8 fe ff ff 64 	cmpl   $0x64,-0x128(%ebp)
    3f43:	7f 1f                	jg     0x3f64
    3f45:	83 bd d8 fe ff ff 2a 	cmpl   $0x2a,-0x128(%ebp)
    3f4c:	0f 84 5a 01 00 00    	je     0x40ac
    3f52:	83 bd d8 fe ff ff 63 	cmpl   $0x63,-0x128(%ebp)
    3f59:	0f 84 c1 00 00 00    	je     0x4020
    3f5f:	e9 4c 01 00 00       	jmp    0x40b0
    3f64:	83 bd d8 fe ff ff 73 	cmpl   $0x73,-0x128(%ebp)
    3f6b:	74 6e                	je     0x3fdb
    3f6d:	83 bd d8 fe ff ff 78 	cmpl   $0x78,-0x128(%ebp)
    3f74:	0f 84 d9 00 00 00    	je     0x4053
    3f7a:	e9 31 01 00 00       	jmp    0x40b0
    3f7f:	c7 44 24 04 0a 00 00 	movl   $0xa,0x4(%esp)
    3f86:	00 
    3f87:	8d 85 e4 fe ff ff    	lea    -0x11c(%ebp),%eax
    3f8d:	89 04 24             	mov    %eax,(%esp)
    3f90:	e8 63 fd ff ff       	call   0x3cf8
    3f95:	c7 44 24 04 0a 00 00 	movl   $0xa,0x4(%esp)
    3f9c:	00 
    3f9d:	8d 85 e4 fe ff ff    	lea    -0x11c(%ebp),%eax
    3fa3:	89 04 24             	mov    %eax,(%esp)
    3fa6:	e8 f0 fa ff ff       	call   0x3a9b
    3fab:	89 45 ec             	mov    %eax,-0x14(%ebp)
    3fae:	8b 45 e8             	mov    -0x18(%ebp),%eax
    3fb1:	83 e0 02             	and    $0x2,%eax
    3fb4:	85 c0                	test   %eax,%eax
    3fb6:	75 17                	jne    0x3fcf
    3fb8:	83 45 e4 04          	addl   $0x4,-0x1c(%ebp)
    3fbc:	8b 45 e4             	mov    -0x1c(%ebp),%eax
    3fbf:	83 e8 04             	sub    $0x4,%eax
    3fc2:	8b 00                	mov    (%eax),%eax
    3fc4:	89 45 f0             	mov    %eax,-0x10(%ebp)
    3fc7:	8b 55 f0             	mov    -0x10(%ebp),%edx
    3fca:	8b 45 ec             	mov    -0x14(%ebp),%eax
    3fcd:	89 02                	mov    %eax,(%edx)
    3fcf:	c7 45 e8 00 00 00 00 	movl   $0x0,-0x18(%ebp)
    3fd6:	e9 d5 00 00 00       	jmp    0x40b0
    3fdb:	8d 85 e4 fe ff ff    	lea    -0x11c(%ebp),%eax
    3fe1:	89 04 24             	mov    %eax,(%esp)
    3fe4:	e8 38 fe ff ff       	call   0x3e21
    3fe9:	8b 45 e8             	mov    -0x18(%ebp),%eax
    3fec:	83 e0 02             	and    $0x2,%eax
    3fef:	85 c0                	test   %eax,%eax
    3ff1:	0f 85 b9 00 00 00    	jne    0x40b0
    3ff7:	83 45 e4 04          	addl   $0x4,-0x1c(%ebp)
    3ffb:	8b 45 e4             	mov    -0x1c(%ebp),%eax
    3ffe:	83 e8 04             	sub    $0x4,%eax
    4001:	8b 00                	mov    (%eax),%eax
    4003:	89 45 f8             	mov    %eax,-0x8(%ebp)
    4006:	8d 85 e4 fe ff ff    	lea    -0x11c(%ebp),%eax
    400c:	89 44 24 04          	mov    %eax,0x4(%esp)
    4010:	8b 45 f8             	mov    -0x8(%ebp),%eax
    4013:	89 04 24             	mov    %eax,(%esp)
    4016:	e8 f5 e7 ff ff       	call   0x2810
    401b:	e9 90 00 00 00       	jmp    0x40b0
    4020:	e8 f0 f9 ff ff       	call   0x3a15
    4025:	88 45 f7             	mov    %al,-0x9(%ebp)
    4028:	8b 45 e8             	mov    -0x18(%ebp),%eax
    402b:	83 e0 02             	and    $0x2,%eax
    402e:	85 c0                	test   %eax,%eax
    4030:	75 18                	jne    0x404a
    4032:	83 45 e4 04          	addl   $0x4,-0x1c(%ebp)
    4036:	8b 45 e4             	mov    -0x1c(%ebp),%eax
    4039:	83 e8 04             	sub    $0x4,%eax
    403c:	8b 00                	mov    (%eax),%eax
    403e:	89 45 f8             	mov    %eax,-0x8(%ebp)
    4041:	8b 55 f8             	mov    -0x8(%ebp),%edx
    4044:	0f b6 45 f7          	movzbl -0x9(%ebp),%eax
    4048:	88 02                	mov    %al,(%edx)
    404a:	c7 45 e8 00 00 00 00 	movl   $0x0,-0x18(%ebp)
    4051:	eb 5d                	jmp    0x40b0
    4053:	c7 44 24 04 10 00 00 	movl   $0x10,0x4(%esp)
    405a:	00 
    405b:	8d 85 e4 fe ff ff    	lea    -0x11c(%ebp),%eax
    4061:	89 04 24             	mov    %eax,(%esp)
    4064:	e8 8f fc ff ff       	call   0x3cf8
    4069:	c7 44 24 04 10 00 00 	movl   $0x10,0x4(%esp)
    4070:	00 
    4071:	8d 85 e4 fe ff ff    	lea    -0x11c(%ebp),%eax
    4077:	89 04 24             	mov    %eax,(%esp)
    407a:	e8 1c fa ff ff       	call   0x3a9b
    407f:	89 45 ec             	mov    %eax,-0x14(%ebp)
    4082:	8b 45 e8             	mov    -0x18(%ebp),%eax
    4085:	83 e0 02             	and    $0x2,%eax
    4088:	85 c0                	test   %eax,%eax
    408a:	75 17                	jne    0x40a3
    408c:	83 45 e4 04          	addl   $0x4,-0x1c(%ebp)
    4090:	8b 45 e4             	mov    -0x1c(%ebp),%eax
    4093:	83 e8 04             	sub    $0x4,%eax
    4096:	8b 00                	mov    (%eax),%eax
    4098:	89 45 f0             	mov    %eax,-0x10(%ebp)
    409b:	8b 55 f0             	mov    -0x10(%ebp),%edx
    409e:	8b 45 ec             	mov    -0x14(%ebp),%eax
    40a1:	89 02                	mov    %eax,(%edx)
    40a3:	c7 45 e8 00 00 00 00 	movl   $0x0,-0x18(%ebp)
    40aa:	eb 04                	jmp    0x40b0
    40ac:	83 4d e8 02          	orl    $0x2,-0x18(%ebp)
    40b0:	8b 45 08             	mov    0x8(%ebp),%eax
    40b3:	83 c0 01             	add    $0x1,%eax
    40b6:	89 45 08             	mov    %eax,0x8(%ebp)
    40b9:	8b 45 08             	mov    0x8(%ebp),%eax
    40bc:	0f b6 00             	movzbl (%eax),%eax
    40bf:	84 c0                	test   %al,%al
    40c1:	0f 85 3c fe ff ff    	jne    0x3f03
    40c7:	b8 01 00 00 00       	mov    $0x1,%eax
    40cc:	81 c4 44 01 00 00    	add    $0x144,%esp
    40d2:	5f                   	pop    %edi
    40d3:	5d                   	pop    %ebp
    40d4:	c3                   	ret    
    40d5:	90                   	nop
    40d6:	90                   	nop
    40d7:	90                   	nop
    40d8:	55                   	push   %ebp
    40d9:	89 e5                	mov    %esp,%ebp
    40db:	83 ec 04             	sub    $0x4,%esp
    40de:	83 7d 08 2f          	cmpl   $0x2f,0x8(%ebp)
    40e2:	7e 0f                	jle    0x40f3
    40e4:	83 7d 08 39          	cmpl   $0x39,0x8(%ebp)
    40e8:	7f 09                	jg     0x40f3
    40ea:	c7 45 fc 01 00 00 00 	movl   $0x1,-0x4(%ebp)
    40f1:	eb 07                	jmp    0x40fa
    40f3:	c7 45 fc 00 00 00 00 	movl   $0x0,-0x4(%ebp)
    40fa:	8b 45 fc             	mov    -0x4(%ebp),%eax
    40fd:	c9                   	leave  
    40fe:	c3                   	ret    
    40ff:	55                   	push   %ebp
    4100:	89 e5                	mov    %esp,%ebp
    4102:	83 ec 04             	sub    $0x4,%esp
    4105:	83 7d 08 2f          	cmpl   $0x2f,0x8(%ebp)
    4109:	7e 06                	jle    0x4111
    410b:	83 7d 08 39          	cmpl   $0x39,0x8(%ebp)
    410f:	7e 18                	jle    0x4129
    4111:	83 7d 08 60          	cmpl   $0x60,0x8(%ebp)
    4115:	7e 06                	jle    0x411d
    4117:	83 7d 08 66          	cmpl   $0x66,0x8(%ebp)
    411b:	7e 0c                	jle    0x4129
    411d:	83 7d 08 40          	cmpl   $0x40,0x8(%ebp)
    4121:	7e 0f                	jle    0x4132
    4123:	83 7d 08 46          	cmpl   $0x46,0x8(%ebp)
    4127:	7f 09                	jg     0x4132
    4129:	c7 45 fc 01 00 00 00 	movl   $0x1,-0x4(%ebp)
    4130:	eb 07                	jmp    0x4139
    4132:	c7 45 fc 00 00 00 00 	movl   $0x0,-0x4(%ebp)
    4139:	8b 45 fc             	mov    -0x4(%ebp),%eax
    413c:	c9                   	leave  
    413d:	c3                   	ret    
    413e:	55                   	push   %ebp
    413f:	89 e5                	mov    %esp,%ebp
    4141:	83 ec 04             	sub    $0x4,%esp
    4144:	83 7d 08 60          	cmpl   $0x60,0x8(%ebp)
    4148:	7e 0f                	jle    0x4159
    414a:	83 7d 08 7a          	cmpl   $0x7a,0x8(%ebp)
    414e:	7f 09                	jg     0x4159
    4150:	c7 45 fc 01 00 00 00 	movl   $0x1,-0x4(%ebp)
    4157:	eb 07                	jmp    0x4160
    4159:	c7 45 fc 00 00 00 00 	movl   $0x0,-0x4(%ebp)
    4160:	8b 45 fc             	mov    -0x4(%ebp),%eax
    4163:	c9                   	leave  
    4164:	c3                   	ret    
    4165:	55                   	push   %ebp
    4166:	89 e5                	mov    %esp,%ebp
    4168:	83 ec 04             	sub    $0x4,%esp
    416b:	83 7d 08 20          	cmpl   $0x20,0x8(%ebp)
    416f:	74 0c                	je     0x417d
    4171:	83 7d 08 0a          	cmpl   $0xa,0x8(%ebp)
    4175:	74 06                	je     0x417d
    4177:	83 7d 08 0d          	cmpl   $0xd,0x8(%ebp)
    417b:	75 09                	jne    0x4186
    417d:	c7 45 fc 01 00 00 00 	movl   $0x1,-0x4(%ebp)
    4184:	eb 07                	jmp    0x418d
    4186:	c7 45 fc 00 00 00 00 	movl   $0x0,-0x4(%ebp)
    418d:	8b 45 fc             	mov    -0x4(%ebp),%eax
    4190:	c9                   	leave  
    4191:	c3                   	ret    
    4192:	55                   	push   %ebp
    4193:	89 e5                	mov    %esp,%ebp
    4195:	83 ec 04             	sub    $0x4,%esp
    4198:	83 7d 08 60          	cmpl   $0x60,0x8(%ebp)
    419c:	7e 06                	jle    0x41a4
    419e:	83 7d 08 7a          	cmpl   $0x7a,0x8(%ebp)
    41a2:	7e 0c                	jle    0x41b0
    41a4:	83 7d 08 40          	cmpl   $0x40,0x8(%ebp)
    41a8:	7e 0f                	jle    0x41b9
    41aa:	83 7d 08 5a          	cmpl   $0x5a,0x8(%ebp)
    41ae:	7f 09                	jg     0x41b9
    41b0:	c7 45 fc 01 00 00 00 	movl   $0x1,-0x4(%ebp)
    41b7:	eb 07                	jmp    0x41c0
    41b9:	c7 45 fc 00 00 00 00 	movl   $0x0,-0x4(%ebp)
    41c0:	8b 45 fc             	mov    -0x4(%ebp),%eax
    41c3:	c9                   	leave  
    41c4:	c3                   	ret    
    41c5:	55                   	push   %ebp
    41c6:	89 e5                	mov    %esp,%ebp
    41c8:	83 ec 04             	sub    $0x4,%esp
    41cb:	83 7d 08 40          	cmpl   $0x40,0x8(%ebp)
    41cf:	7e 0f                	jle    0x41e0
    41d1:	83 7d 08 5a          	cmpl   $0x5a,0x8(%ebp)
    41d5:	7f 09                	jg     0x41e0
    41d7:	c7 45 fc 01 00 00 00 	movl   $0x1,-0x4(%ebp)
    41de:	eb 07                	jmp    0x41e7
    41e0:	c7 45 fc 00 00 00 00 	movl   $0x0,-0x4(%ebp)
    41e7:	8b 45 fc             	mov    -0x4(%ebp),%eax
    41ea:	c9                   	leave  
    41eb:	c3                   	ret    
    41ec:	55                   	push   %ebp
    41ed:	89 e5                	mov    %esp,%ebp
    41ef:	83 ec 04             	sub    $0x4,%esp
    41f2:	83 7d 08 60          	cmpl   $0x60,0x8(%ebp)
    41f6:	7e 11                	jle    0x4209
    41f8:	83 7d 08 7a          	cmpl   $0x7a,0x8(%ebp)
    41fc:	7f 0b                	jg     0x4209
    41fe:	8b 45 08             	mov    0x8(%ebp),%eax
    4201:	83 e8 20             	sub    $0x20,%eax
    4204:	89 45 fc             	mov    %eax,-0x4(%ebp)
    4207:	eb 06                	jmp    0x420f
    4209:	8b 45 08             	mov    0x8(%ebp),%eax
    420c:	89 45 fc             	mov    %eax,-0x4(%ebp)
    420f:	8b 45 fc             	mov    -0x4(%ebp),%eax
    4212:	c9                   	leave  
    4213:	c3                   	ret    
    4214:	6d                   	insl   (%dx),%es:(%edi)
    4215:	73 67                	jae    0x427e
    4217:	2e 74 79             	je,pn  0x4293
    421a:	70 65                	jo     0x4281
    421c:	20 3d 20 25 64 0a    	and    %bh,0xa642520
    4222:	00 00                	add    %al,(%eax)
    4224:	53                   	push   %ebx
    4225:	6e                   	outsb  %ds:(%esi),(%dx)
    4226:	61                   	popa   
    4227:	6b 65 20 74          	imul   $0x74,0x20(%ebp),%esp
    422b:	69 6d 65 3a 25 64 20 	imul   $0x2064253a,0x65(%ebp),%ebp
    4232:	73 63                	jae    0x4297
    4234:	6f                   	outsl  %ds:(%esi),(%dx)
    4235:	72 65                	jb     0x429c
    4237:	3a 25 64 20 47 61    	cmp    0x61472064,%ah
    423d:	6d                   	insl   (%dx),%es:(%edi)
    423e:	65 20 4f 76          	and    %cl,%gs:0x76(%edi)
    4242:	65                   	gs
    4243:	72 20                	jb     0x4265
    4245:	20 20                	and    %ah,(%eax)
    4247:	20 20                	and    %ah,(%eax)
    4249:	00 4d 00             	add    %cl,0x0(%ebp)
    424c:	20 00                	and    %al,(%eax)
    424e:	52                   	push   %edx
    424f:	00 4c 00 00          	add    %cl,0x0(%eax,%eax,1)
    4253:	00 53 6e             	add    %dl,0x6e(%ebx)
    4256:	61                   	popa   
    4257:	6b 65 20 74          	imul   $0x74,0x20(%ebp),%esp
    425b:	69 6d 65 3a 25 64 20 	imul   $0x2064253a,0x65(%ebp),%ebp
    4262:	73 63                	jae    0x42c7
    4264:	6f                   	outsl  %ds:(%esi),(%dx)
    4265:	72 65                	jb     0x42cc
    4267:	3a 25 64 20 28 25    	cmp    0x25282064,%ah
    426d:	34 64                	xor    $0x64,%al
    426f:	2c 25                	sub    $0x25,%al
    4271:	34 64                	xor    $0x64,%al
    4273:	29 20                	sub    %esp,(%eax)
    4275:	25 73 20 25 73       	and    $0x73252073,%eax
    427a:	20 25 73 00 25 64    	and    %ah,0x64250073
    4280:	00 0a                	add    %cl,(%edx)
    4282:	00 78 20             	add    %bh,0x20(%eax)
    4285:	25 64 20 25 64       	and    $0x64252064,%eax
    428a:	20 25 64 20 25 64    	and    %ah,0x64252064
    4290:	0a 00                	or     (%eax),%al
    4292:	70 61                	jo     0x42f5
    4294:	6e                   	outsb  %ds:(%esi),(%dx)
    4295:	69 63 31 0a 00 65 6e 	imul   $0x6e65000a,0x31(%ebx),%esp
    429c:	74 65                	je     0x4303
    429e:	72 20                	jb     0x42c0
    42a0:	77 69                	ja     0x430b
    42a2:	6e                   	outsb  %ds:(%esi),(%dx)
    42a3:	64 6f                	outsl  %fs:(%esi),(%dx)
    42a5:	77 20                	ja     0x42c7
    42a7:	6d                   	insl   (%dx),%es:(%edi)
    42a8:	61                   	popa   
    42a9:	6e                   	outsb  %ds:(%esi),(%dx)
    42aa:	61                   	popa   
    42ab:	67                   	addr16
    42ac:	65                   	gs
    42ad:	72 20                	jb     0x42cf
    42af:	27                   	daa    
    42b0:	73 20                	jae    0x42d2
    42b2:	70 69                	jo     0x431d
    42b4:	64 3a 0a             	cmp    %fs:(%edx),%cl
    42b7:	00 53 6e             	add    %dl,0x6e(%ebx)
    42ba:	61                   	popa   
    42bb:	6b 65 00 68          	imul   $0x68,0x0(%ebp),%esp
    42bf:	77 6e                	ja     0x432f
    42c1:	64 3a 20             	cmp    %fs:(%eax),%ah
    42c4:	25 78 0a 00 65       	and    $0x65000a78,%eax
    42c9:	78 69                	js     0x4334
    42cb:	74 20                	je     0x42ed
    42cd:	77 69                	ja     0x4338
    42cf:	74 68                	je     0x4339
    42d1:	20 65 78             	and    %ah,0x78(%ebp)
    42d4:	69 74 20 63 6f 64 65 	imul   $0x2065646f,0x63(%eax,%eiz,1),%esi
    42db:	20 
    42dc:	30 0a                	xor    %cl,(%edx)
    42de:	00 64 65 70          	add    %ah,0x70(%ebp,%eiz,2)
    42e2:	74 68                	je     0x434c
    42e4:	21 3d 31 36 0a 00    	and    %edi,0xa3631
    42ea:	2f                   	das    
    42eb:	61                   	popa   
    42ec:	73 63                	jae    0x4351
    42ee:	31 36                	xor    %esi,(%esi)
    42f0:	00 2f                	add    %ch,(%edi)
    42f2:	74 74                	je     0x4368
    42f4:	79 30                	jns    0x4326
    42f6:	00 2f                	add    %ch,(%edi)
    42f8:	74 74                	je     0x436e
    42fa:	79 31                	jns    0x432d
    42fc:	00 2f                	add    %ch,(%edi)
    42fe:	74 74                	je     0x4374
    4300:	79 32                	jns    0x4334
    4302:	00 2f                	add    %ch,(%edi)
    4304:	74 74                	je     0x437a
    4306:	79 33                	jns    0x433b
    4308:	00 61 68             	add    %ah,0x68(%ecx)
    430b:	21 00                	and    %eax,(%eax)
    430d:	00 00                	add    %al,(%eax)
    430f:	00 30                	add    %dh,(%eax)
    4311:	31 32                	xor    %esi,(%edx)
    4313:	33 34 35 36 37 38 39 	xor    0x39383736(,%esi,1),%esi
    431a:	41                   	inc    %ecx
    431b:	42                   	inc    %edx
    431c:	43                   	inc    %ebx
    431d:	44                   	inc    %esp
    431e:	45                   	inc    %ebp
    431f:	46                   	inc    %esi
    4320:	47                   	inc    %edi
    4321:	48                   	dec    %eax
    4322:	49                   	dec    %ecx
    4323:	4a                   	dec    %edx
    4324:	4b                   	dec    %ebx
    4325:	4c                   	dec    %esp
    4326:	4d                   	dec    %ebp
    4327:	4e                   	dec    %esi
    4328:	4f                   	dec    %edi
    4329:	50                   	push   %eax
    432a:	51                   	push   %ecx
    432b:	52                   	push   %edx
    432c:	53                   	push   %ebx
    432d:	54                   	push   %esp
    432e:	55                   	push   %ebp
    432f:	56                   	push   %esi
    4330:	57                   	push   %edi
    4331:	58                   	pop    %eax
    4332:	59                   	pop    %ecx
    4333:	5a                   	pop    %edx
    4334:	00 00                	add    %al,(%eax)
    4336:	00 00                	add    %al,(%eax)
    4338:	30 31                	xor    %dh,(%ecx)
    433a:	32 33                	xor    (%ebx),%dh
    433c:	34 35                	xor    $0x35,%al
    433e:	36                   	ss
    433f:	37                   	aaa    
    4340:	38 39                	cmp    %bh,(%ecx)
    4342:	61                   	popa   
    4343:	62 63 64             	bound  %esp,0x64(%ebx)
    4346:	65                   	gs
    4347:	66 67 68 69 6a       	addr16 pushw $0x6a69
    434c:	6b 6c 6d 6e 6f       	imul   $0x6f,0x6e(%ebp,%ebp,2),%ebp
    4351:	70 71                	jo     0x43c4
    4353:	72 73                	jb     0x43c8
    4355:	74 75                	je     0x43cc
    4357:	76 77                	jbe    0x43d0
    4359:	78 79                	js     0x43d4
    435b:	7a 00                	jp     0x435d
    435d:	3c 4e                	cmp    $0x4e,%al
    435f:	55                   	push   %ebp
    4360:	4c                   	dec    %esp
    4361:	4c                   	dec    %esp
    4362:	3e 00 4b 35          	add    %cl,%ds:0x35(%ebx)
    4366:	00 01                	add    %al,(%ecx)
    4368:	5d                   	pop    %ebp
    4369:	35 00 01 5d 35       	xor    $0x355d0100,%eax
    436e:	00 01                	add    %al,(%ecx)
    4370:	51                   	push   %ecx
    4371:	35 00 01 5d 35       	xor    $0x355d0100,%eax
    4376:	00 01                	add    %al,(%ecx)
    4378:	5d                   	pop    %ebp
    4379:	35 00 01 5d 35       	xor    $0x355d0100,%eax
    437e:	00 01                	add    %al,(%ecx)
    4380:	5d                   	pop    %ebp
    4381:	35 00 01 5d 35       	xor    $0x355d0100,%eax
    4386:	00 01                	add    %al,(%ecx)
    4388:	5d                   	pop    %ebp
    4389:	35 00 01 5d 35       	xor    $0x355d0100,%eax
    438e:	00 01                	add    %al,(%ecx)
    4390:	45                   	inc    %ebp
    4391:	35 00 01 5d 35       	xor    $0x355d0100,%eax
    4396:	00 01                	add    %al,(%ecx)
    4398:	3f                   	aas    
    4399:	35 00 01 5d 35       	xor    $0x355d0100,%eax
    439e:	00 01                	add    %al,(%ecx)
    43a0:	5d                   	pop    %ebp
    43a1:	35 00 01 57 35       	xor    $0x35570100,%eax
    43a6:	00 01                	add    %al,(%ecx)
    43a8:	27                   	daa    
    43a9:	38 00                	cmp    %al,(%eax)
    43ab:	01 ca                	add    %ecx,%edx
    43ad:	38 00                	cmp    %al,(%eax)
    43af:	01 ca                	add    %ecx,%edx
    43b1:	38 00                	cmp    %al,(%eax)
    43b3:	01 ca                	add    %ecx,%edx
    43b5:	38 00                	cmp    %al,(%eax)
    43b7:	01 ca                	add    %ecx,%edx
    43b9:	38 00                	cmp    %al,(%eax)
    43bb:	01 ca                	add    %ecx,%edx
    43bd:	38 00                	cmp    %al,(%eax)
    43bf:	01 ca                	add    %ecx,%edx
    43c1:	38 00                	cmp    %al,(%eax)
    43c3:	01 ca                	add    %ecx,%edx
    43c5:	38 00                	cmp    %al,(%eax)
    43c7:	01 ca                	add    %ecx,%edx
    43c9:	38 00                	cmp    %al,(%eax)
    43cb:	01 ca                	add    %ecx,%edx
    43cd:	38 00                	cmp    %al,(%eax)
    43cf:	01 ca                	add    %ecx,%edx
    43d1:	38 00                	cmp    %al,(%eax)
    43d3:	01 85 36 00 01 69    	add    %eax,0x69010036(%ebp)
    43d9:	38 00                	cmp    %al,(%eax)
    43db:	01 ca                	add    %ecx,%edx
    43dd:	38 00                	cmp    %al,(%eax)
    43df:	01 ca                	add    %ecx,%edx
    43e1:	38 00                	cmp    %al,(%eax)
    43e3:	01 ca                	add    %ecx,%edx
    43e5:	38 00                	cmp    %al,(%eax)
    43e7:	01 ca                	add    %ecx,%edx
    43e9:	38 00                	cmp    %al,(%eax)
    43eb:	01 69 38             	add    %ebp,0x38(%ecx)
    43ee:	00 01                	add    %al,(%ecx)
    43f0:	ca 38 00             	lret   $0x38
    43f3:	01 ca                	add    %ecx,%edx
    43f5:	38 00                	cmp    %al,(%eax)
    43f7:	01 ca                	add    %ecx,%edx
    43f9:	38 00                	cmp    %al,(%eax)
    43fb:	01 ca                	add    %ecx,%edx
    43fd:	38 00                	cmp    %al,(%eax)
    43ff:	01 ac 38 00 01 8e 37 	add    %ebp,0x378e0100(%eax,%edi,1)
    4406:	00 01                	add    %al,(%ecx)
    4408:	d0                   	(bad)  
    4409:	37                   	aaa    
    440a:	00 01                	add    %al,(%ecx)
    440c:	ca 38 00             	lret   $0x38
    440f:	01 ca                	add    %ecx,%edx
    4411:	38 00                	cmp    %al,(%eax)
    4413:	01 d7                	add    %edx,%edi
    4415:	36 00 01             	add    %al,%ss:(%ecx)
    4418:	ca 38 00             	lret   $0x38
    441b:	01 6d 38             	add    %ebp,0x38(%ebp)
    441e:	00 01                	add    %al,(%ecx)
    4420:	ca 38 00             	lret   $0x38
    4423:	01 ca                	add    %ecx,%edx
    4425:	38 00                	cmp    %al,(%eax)
    4427:	01 23                	add    %esp,(%ebx)
    4429:	38 00                	cmp    %al,(%eax)
    442b:	01                   	.byte 0x1
